GAS LISTING /tmp/ccGwqsQr.s 			page 1


   1              		.file	"abi.c"
   2              		.option nopic
   3              		.option norelax
   4              		.text
   5              	.Ltext0:
   6              		.cfi_sections	.debug_frame
   7              		.align	2
   8              		.globl	callSys
  10              	callSys:
  11              	.LFB0:
  12              		.file 1 "src/abi.c"
   1:src/abi.c     **** #include "../h/abi.h"
   2:src/abi.c     **** 
   3:src/abi.c     **** 
   4:src/abi.c     **** 
   5:src/abi.c     **** uint64 callSys(int op, void* args, int argLen){
  13              		.loc 1 5 47
  14              		.cfi_startproc
  15              	.LVL0:
  16 0000 130101FF 		addi	sp,sp,-16
  17              		.cfi_def_cfa_offset 16
  18 0004 23348100 		sd	s0,8(sp)
  19              		.cfi_offset 8, -8
  20 0008 13040101 		addi	s0,sp,16
  21              		.cfi_def_cfa 8, 0
   6:src/abi.c     ****     uint64 opReg = (uint64) op;
  22              		.loc 1 6 5
  23              	.LVL1:
   7:src/abi.c     ****     uint64* argsReg = (uint64*)args;
  24              		.loc 1 7 5
   8:src/abi.c     **** 
   9:src/abi.c     ****     if(argLen == 1){
  25              		.loc 1 9 5
  26              		.loc 1 9 7 is_stmt 0
  27 000c 93071000 		li	a5,1
  28 0010 6300F604 		beq	a2,a5,.L7
  10:src/abi.c     ****         uint64 arg1 = argsReg[0];
  11:src/abi.c     ****         __asm__ volatile("mv a1,%0": :"r"(arg1));
  12:src/abi.c     ****     }
  13:src/abi.c     ****     else if(argLen == 2){
  29              		.loc 1 13 10 is_stmt 1
  30              		.loc 1 13 12 is_stmt 0
  31 0014 93072000 		li	a5,2
  32 0018 630CF604 		beq	a2,a5,.L8
  14:src/abi.c     ****         uint64 arg1 = argsReg[0];
  15:src/abi.c     ****         uint64 arg2 = argsReg[1];
  16:src/abi.c     ****         __asm__ volatile("mv a1,%0": :"r"(arg1));
  17:src/abi.c     ****         __asm__ volatile("mv a2,%0": :"r"(arg2));
  18:src/abi.c     ****     }
  19:src/abi.c     ****     else if(argLen == 3){
  33              		.loc 1 19 10 is_stmt 1
  34              		.loc 1 19 12 is_stmt 0
  35 001c 93073000 		li	a5,3
  36 0020 6302F606 		beq	a2,a5,.L9
  20:src/abi.c     ****         uint64 arg1 = argsReg[0];
  21:src/abi.c     ****         uint64 arg2 = argsReg[1];
  22:src/abi.c     ****         uint64 arg3 = argsReg[2];
GAS LISTING /tmp/ccGwqsQr.s 			page 2


  23:src/abi.c     ****         __asm__ volatile("mv a1,%0": :"r"(arg1));
  24:src/abi.c     ****         __asm__ volatile("mv a2,%0": :"r"(arg2));
  25:src/abi.c     ****         __asm__ volatile("mv a3,%0": :"r"(arg3));
  26:src/abi.c     ****     }
  27:src/abi.c     ****     else if(argLen == 4){
  37              		.loc 1 27 10 is_stmt 1
  38              		.loc 1 27 12 is_stmt 0
  39 0024 93074000 		li	a5,4
  40 0028 6318F602 		bne	a2,a5,.L3
  41              	.LBB2:
  28:src/abi.c     ****         uint64 arg1 = argsReg[0];
  42              		.loc 1 28 9 is_stmt 1
  43              		.loc 1 28 16 is_stmt 0
  44 002c 03B60500 		ld	a2,0(a1)
  45              	.LVL2:
  29:src/abi.c     ****         uint64 arg2 = argsReg[1];
  46              		.loc 1 29 9 is_stmt 1
  47              		.loc 1 29 16 is_stmt 0
  48 0030 83B68500 		ld	a3,8(a1)
  49              	.LVL3:
  30:src/abi.c     ****         uint64 arg3 = argsReg[2];
  50              		.loc 1 30 9 is_stmt 1
  51              		.loc 1 30 16 is_stmt 0
  52 0034 03B70501 		ld	a4,16(a1)
  53              	.LVL4:
  31:src/abi.c     ****         uint64 arg4 = argsReg[3];
  54              		.loc 1 31 9 is_stmt 1
  55              		.loc 1 31 16 is_stmt 0
  56 0038 83B78501 		ld	a5,24(a1)
  57              	.LVL5:
  32:src/abi.c     ****         __asm__ volatile("mv a1,%0": :"r"(arg1));
  58              		.loc 1 32 9 is_stmt 1
  59              	#APP
  60              	# 32 "src/abi.c" 1
  33              	        __asm__ volatile("mv a2,%0": :"r"(arg2));
  61              		mv a1,a2
  62              	# 0 "" 2
  63              		.loc 1 33 9
  64              	# 33 "src/abi.c" 1
  34              	        __asm__ volatile("mv a3,%0": :"r"(arg3));
  65              		mv a2,a3
  66              	# 0 "" 2
  67              		.loc 1 34 9
  68              	# 34 "src/abi.c" 1
  35              	        __asm__ volatile("mv a4,%0": :"r"(arg4));
  69              		mv a3,a4
  70              	# 0 "" 2
  71              		.loc 1 35 9
  72              	# 35 "src/abi.c" 1
  36              	    }
  73              		mv a4,a5
  74              	# 0 "" 2
  75              	#NO_APP
  76 004c 6F00C000 		j	.L3
  77              	.LVL6:
  78              	.L7:
  79              	.LBE2:
GAS LISTING /tmp/ccGwqsQr.s 			page 3


  80              	.LBB3:
  10:src/abi.c     ****         __asm__ volatile("mv a1,%0": :"r"(arg1));
  81              		.loc 1 10 9
  10:src/abi.c     ****         __asm__ volatile("mv a1,%0": :"r"(arg1));
  82              		.loc 1 10 16 is_stmt 0
  83 0050 83B70500 		ld	a5,0(a1)
  84              	.LVL7:
  11:src/abi.c     ****     }
  85              		.loc 1 11 9 is_stmt 1
  86              	#APP
  87              	# 11 "src/abi.c" 1
  88              		mv a1,a5
  89              	# 0 "" 2
  90              	.LVL8:
  91              	#NO_APP
  92              	.L3:
  93              	.LBE3:
  37:src/abi.c     ****     __asm__ volatile("mv a0,%0": :"r"(opReg));
  94              		.loc 1 37 5
  95              	#APP
  96              	# 37 "src/abi.c" 1
  38              	    __asm__ volatile("ecall");
  97              		mv a0,a0
  98              	# 0 "" 2
  99              		.loc 1 38 5
 100              	# 38 "src/abi.c" 1
  39              	
  40:src/abi.c     ****     uint64 res;
 101              		ecall
 102              	# 0 "" 2
 103              		.loc 1 40 5
  41:src/abi.c     ****     __asm__ volatile("mv %0,a0":"=r"(res));
 104              		.loc 1 41 5
 105              	# 41 "src/abi.c" 1
  42              	
 106              		mv a0,a0
 107              	# 0 "" 2
 108              	.LVL9:
  43:src/abi.c     ****     return res;
 109              		.loc 1 43 5
  44:src/abi.c     **** }...
 110              		.loc 1 44 1 is_stmt 0
 111              	#NO_APP
 112 0064 03348100 		ld	s0,8(sp)
 113              		.cfi_remember_state
 114              		.cfi_restore 8
 115              		.cfi_def_cfa 2, 16
 116 0068 13010101 		addi	sp,sp,16
 117              		.cfi_def_cfa_offset 0
 118 006c 67800000 		jr	ra
 119              	.LVL10:
 120              	.L8:
 121              		.cfi_restore_state
 122              	.LBB4:
  14:src/abi.c     ****         uint64 arg1 = argsReg[0];
 123              		.loc 1 14 9 is_stmt 1
  14:src/abi.c     ****         uint64 arg1 = argsReg[0];
GAS LISTING /tmp/ccGwqsQr.s 			page 4


 124              		.loc 1 14 16 is_stmt 0
 125 0070 03B70500 		ld	a4,0(a1)
 126              	.LVL11:
  15:src/abi.c     ****         uint64 arg2 = argsReg[1];
 127              		.loc 1 15 9 is_stmt 1
  15:src/abi.c     ****         uint64 arg2 = argsReg[1];
 128              		.loc 1 15 16 is_stmt 0
 129 0074 83B78500 		ld	a5,8(a1)
 130              	.LVL12:
  16:src/abi.c     ****         __asm__ volatile("mv a1,%0": :"r"(arg1));
 131              		.loc 1 16 9 is_stmt 1
 132              	#APP
 133              	# 16 "src/abi.c" 1
  17:src/abi.c     ****         __asm__ volatile("mv a2,%0": :"r"(arg2));
 134              		mv a1,a4
 135              	# 0 "" 2
 136              		.loc 1 17 9
 137              	# 17 "src/abi.c" 1
 138              		mv a2,a5
 139              	# 0 "" 2
 140              	#NO_APP
 141              	.LBE4:
 142 0080 6FF09FFD 		j	.L3
 143              	.LVL13:
 144              	.L9:
 145              	.LBB5:
  20:src/abi.c     ****         uint64 arg1 = argsReg[0];
 146              		.loc 1 20 9
  20:src/abi.c     ****         uint64 arg1 = argsReg[0];
 147              		.loc 1 20 16 is_stmt 0
 148 0084 83B60500 		ld	a3,0(a1)
 149              	.LVL14:
  21:src/abi.c     ****         uint64 arg2 = argsReg[1];
 150              		.loc 1 21 9 is_stmt 1
  21:src/abi.c     ****         uint64 arg2 = argsReg[1];
 151              		.loc 1 21 16 is_stmt 0
 152 0088 03B78500 		ld	a4,8(a1)
 153              	.LVL15:
  22:src/abi.c     ****         uint64 arg3 = argsReg[2];
 154              		.loc 1 22 9 is_stmt 1
  22:src/abi.c     ****         uint64 arg3 = argsReg[2];
 155              		.loc 1 22 16 is_stmt 0
 156 008c 83B70501 		ld	a5,16(a1)
 157              	.LVL16:
  23:src/abi.c     ****         __asm__ volatile("mv a1,%0": :"r"(arg1));
 158              		.loc 1 23 9 is_stmt 1
 159              	#APP
 160              	# 23 "src/abi.c" 1
  24:src/abi.c     ****         __asm__ volatile("mv a2,%0": :"r"(arg2));
 161              		mv a1,a3
 162              	# 0 "" 2
 163              		.loc 1 24 9
 164              	# 24 "src/abi.c" 1
  25:src/abi.c     ****         __asm__ volatile("mv a3,%0": :"r"(arg3));
 165              		mv a2,a4
 166              	# 0 "" 2
 167              		.loc 1 25 9
GAS LISTING /tmp/ccGwqsQr.s 			page 5


 168              	# 25 "src/abi.c" 1
 169              		mv a3,a5
 170              	# 0 "" 2
 171              	#NO_APP
 172              	.LBE5:
 173 009c 6FF0DFFB 		j	.L3
 174              		.cfi_endproc
 175              	.LFE0:
 177              	.Letext0:
 178              		.file 2 "src/../h/../lib/hw.h"
GAS LISTING /tmp/ccGwqsQr.s 			page 6


DEFINED SYMBOLS
                            *ABS*:0000000000000000 abi.c
     /tmp/ccGwqsQr.s:10     .text:0000000000000000 callSys
     /tmp/ccGwqsQr.s:14     .text:0000000000000000 .L0 
     /tmp/ccGwqsQr.s:16     .text:0000000000000000 .L0 
     /tmp/ccGwqsQr.s:17     .text:0000000000000004 .L0 
     /tmp/ccGwqsQr.s:19     .text:0000000000000008 .L0 
     /tmp/ccGwqsQr.s:21     .text:000000000000000c .L0 
     /tmp/ccGwqsQr.s:24     .text:000000000000000c .L0 
     /tmp/ccGwqsQr.s:25     .text:000000000000000c .L0 
     /tmp/ccGwqsQr.s:26     .text:000000000000000c .L0 
     /tmp/ccGwqsQr.s:27     .text:000000000000000c .L0 
     /tmp/ccGwqsQr.s:30     .text:0000000000000014 .L0 
     /tmp/ccGwqsQr.s:31     .text:0000000000000014 .L0 
     /tmp/ccGwqsQr.s:34     .text:000000000000001c .L0 
     /tmp/ccGwqsQr.s:35     .text:000000000000001c .L0 
     /tmp/ccGwqsQr.s:38     .text:0000000000000024 .L0 
     /tmp/ccGwqsQr.s:39     .text:0000000000000024 .L0 
     /tmp/ccGwqsQr.s:43     .text:000000000000002c .L0 
     /tmp/ccGwqsQr.s:44     .text:000000000000002c .L0 
     /tmp/ccGwqsQr.s:47     .text:0000000000000030 .L0 
     /tmp/ccGwqsQr.s:48     .text:0000000000000030 .L0 
     /tmp/ccGwqsQr.s:51     .text:0000000000000034 .L0 
     /tmp/ccGwqsQr.s:52     .text:0000000000000034 .L0 
     /tmp/ccGwqsQr.s:55     .text:0000000000000038 .L0 
     /tmp/ccGwqsQr.s:56     .text:0000000000000038 .L0 
           src/abi.c:32     .text:000000000000003c .L0 
           src/abi.c:33     .text:0000000000000040 .L0 
           src/abi.c:34     .text:0000000000000044 .L0 
           src/abi.c:35     .text:0000000000000048 .L0 
     /tmp/ccGwqsQr.s:82     .text:0000000000000050 .L0 
     /tmp/ccGwqsQr.s:83     .text:0000000000000050 .L0 
           src/abi.c:11     .text:0000000000000054 .L0 
           src/abi.c:37     .text:0000000000000058 .L0 
           src/abi.c:38     .text:000000000000005c .L0 
     /tmp/ccGwqsQr.s:104    .text:0000000000000060 .L0 
           src/abi.c:41     .text:0000000000000060 .L0 
     /tmp/ccGwqsQr.s:110    .text:0000000000000064 .L0 
     /tmp/ccGwqsQr.s:112    .text:0000000000000064 .L0 
     /tmp/ccGwqsQr.s:113    .text:0000000000000068 .L0 
     /tmp/ccGwqsQr.s:114    .text:0000000000000068 .L0 
     /tmp/ccGwqsQr.s:115    .text:0000000000000068 .L0 
     /tmp/ccGwqsQr.s:117    .text:000000000000006c .L0 
     /tmp/ccGwqsQr.s:121    .text:0000000000000070 .L0 
     /tmp/ccGwqsQr.s:124    .text:0000000000000070 .L0 
     /tmp/ccGwqsQr.s:125    .text:0000000000000070 .L0 
     /tmp/ccGwqsQr.s:128    .text:0000000000000074 .L0 
     /tmp/ccGwqsQr.s:129    .text:0000000000000074 .L0 
           src/abi.c:16     .text:0000000000000078 .L0 
           src/abi.c:17     .text:000000000000007c .L0 
     /tmp/ccGwqsQr.s:147    .text:0000000000000084 .L0 
     /tmp/ccGwqsQr.s:148    .text:0000000000000084 .L0 
     /tmp/ccGwqsQr.s:151    .text:0000000000000088 .L0 
     /tmp/ccGwqsQr.s:152    .text:0000000000000088 .L0 
     /tmp/ccGwqsQr.s:155    .text:000000000000008c .L0 
     /tmp/ccGwqsQr.s:156    .text:000000000000008c .L0 
           src/abi.c:23     .text:0000000000000090 .L0 
GAS LISTING /tmp/ccGwqsQr.s 			page 7


           src/abi.c:24     .text:0000000000000094 .L0 
           src/abi.c:25     .text:0000000000000098 .L0 
     /tmp/ccGwqsQr.s:174    .text:00000000000000a0 .L0 
     /tmp/ccGwqsQr.s:179    .text:00000000000000a0 .L0 
                     .debug_frame:0000000000000000 .L0 
     /tmp/ccGwqsQr.s:78     .text:0000000000000050 .L7
     /tmp/ccGwqsQr.s:120    .text:0000000000000070 .L8
     /tmp/ccGwqsQr.s:144    .text:0000000000000084 .L9
     /tmp/ccGwqsQr.s:92     .text:0000000000000058 .L3
     /tmp/ccGwqsQr.s:460    .debug_abbrev:0000000000000000 .Ldebug_abbrev0
     /tmp/ccGwqsQr.s:933    .debug_str:000000000000015e .LASF25
     /tmp/ccGwqsQr.s:921    .debug_str:0000000000000124 .LASF26
     /tmp/ccGwqsQr.s:899    .debug_str:0000000000000066 .LASF27
     /tmp/ccGwqsQr.s:5      .text:0000000000000000 .Ltext0
     /tmp/ccGwqsQr.s:177    .text:00000000000000a0 .Letext0
     /tmp/ccGwqsQr.s:879    .debug_line:0000000000000000 .Ldebug_line0
     /tmp/ccGwqsQr.s:881    .debug_str:0000000000000000 .LASF0
     /tmp/ccGwqsQr.s:917    .debug_str:0000000000000101 .LASF1
     /tmp/ccGwqsQr.s:907    .debug_str:00000000000000af .LASF2
     /tmp/ccGwqsQr.s:903    .debug_str:000000000000009c .LASF4
     /tmp/ccGwqsQr.s:897    .debug_str:0000000000000054 .LASF3
     /tmp/ccGwqsQr.s:887    .debug_str:000000000000002a .LASF5
     /tmp/ccGwqsQr.s:901    .debug_str:0000000000000089 .LASF6
     /tmp/ccGwqsQr.s:915    .debug_str:00000000000000ee .LASF7
     /tmp/ccGwqsQr.s:929    .debug_str:0000000000000149 .LASF8
     /tmp/ccGwqsQr.s:883    .debug_str:000000000000000d .LASF9
     /tmp/ccGwqsQr.s:885    .debug_str:000000000000001b .LASF10
     /tmp/ccGwqsQr.s:925    .debug_str:0000000000000135 .LASF11
     /tmp/ccGwqsQr.s:891    .debug_str:0000000000000037 .LASF12
     /tmp/ccGwqsQr.s:919    .debug_str:0000000000000114 .LASF13
     /tmp/ccGwqsQr.s:905    .debug_str:00000000000000a3 .LASF14
     /tmp/ccGwqsQr.s:913    .debug_str:00000000000000d8 .LASF15
     /tmp/ccGwqsQr.s:909    .debug_str:00000000000000bd .LASF16
     /tmp/ccGwqsQr.s:937    .debug_str:0000000000000201 .LASF28
     /tmp/ccGwqsQr.s:11     .text:0000000000000000 .LFB0
     /tmp/ccGwqsQr.s:175    .text:00000000000000a0 .LFE0
     /tmp/ccGwqsQr.s:752    .debug_loc:0000000000000000 .LLST0
     /tmp/ccGwqsQr.s:935    .debug_str:00000000000001fc .LASF17
     /tmp/ccGwqsQr.s:923    .debug_str:000000000000012e .LASF18
     /tmp/ccGwqsQr.s:770    .debug_loc:000000000000004c .LLST1
     /tmp/ccGwqsQr.s:889    .debug_str:0000000000000031 .LASF19
     /tmp/ccGwqsQr.s:799    .debug_loc:00000000000000c1 .LLST2
     /tmp/ccGwqsQr.s:895    .debug_str:000000000000004c .LASF20
     /tmp/ccGwqsQr.s:810    .debug_loc:00000000000000f7 .LLST3
     /tmp/ccGwqsQr.s:80     .text:0000000000000050 .LBB3
     /tmp/ccGwqsQr.s:93     .text:0000000000000058 .LBE3
     /tmp/ccGwqsQr.s:927    .debug_str:0000000000000144 .LASF21
     /tmp/ccGwqsQr.s:817    .debug_loc:000000000000011a .LLST8
     /tmp/ccGwqsQr.s:122    .text:0000000000000070 .LBB4
     /tmp/ccGwqsQr.s:141    .text:0000000000000080 .LBE4
     /tmp/ccGwqsQr.s:824    .debug_loc:000000000000013d .LLST9
     /tmp/ccGwqsQr.s:893    .debug_str:0000000000000047 .LASF22
     /tmp/ccGwqsQr.s:831    .debug_loc:0000000000000160 .LLST10
     /tmp/ccGwqsQr.s:145    .text:0000000000000084 .LBB5
     /tmp/ccGwqsQr.s:172    .text:000000000000009c .LBE5
     /tmp/ccGwqsQr.s:931    .debug_str:0000000000000159 .LASF23
     /tmp/ccGwqsQr.s:41     .text:000000000000002c .LBB2
GAS LISTING /tmp/ccGwqsQr.s 			page 8


     /tmp/ccGwqsQr.s:79     .text:0000000000000050 .LBE2
     /tmp/ccGwqsQr.s:838    .debug_loc:0000000000000183 .LLST4
     /tmp/ccGwqsQr.s:845    .debug_loc:00000000000001a6 .LLST5
     /tmp/ccGwqsQr.s:852    .debug_loc:00000000000001c9 .LLST6
     /tmp/ccGwqsQr.s:911    .debug_str:00000000000000d3 .LASF24
     /tmp/ccGwqsQr.s:859    .debug_loc:00000000000001ec .LLST7
     /tmp/ccGwqsQr.s:15     .text:0000000000000000 .LVL0
     /tmp/ccGwqsQr.s:108    .text:0000000000000064 .LVL9
     /tmp/ccGwqsQr.s:119    .text:0000000000000070 .LVL10
     /tmp/ccGwqsQr.s:45     .text:0000000000000030 .LVL2
     /tmp/ccGwqsQr.s:77     .text:0000000000000050 .LVL6
     /tmp/ccGwqsQr.s:90     .text:0000000000000058 .LVL8
     /tmp/ccGwqsQr.s:23     .text:000000000000000c .LVL1
     /tmp/ccGwqsQr.s:84     .text:0000000000000054 .LVL7
     /tmp/ccGwqsQr.s:126    .text:0000000000000074 .LVL11
     /tmp/ccGwqsQr.s:143    .text:0000000000000084 .LVL13
     /tmp/ccGwqsQr.s:130    .text:0000000000000078 .LVL12
     /tmp/ccGwqsQr.s:49     .text:0000000000000034 .LVL3
     /tmp/ccGwqsQr.s:53     .text:0000000000000038 .LVL4
     /tmp/ccGwqsQr.s:57     .text:000000000000003c .LVL5
     /tmp/ccGwqsQr.s:180    .debug_info:0000000000000000 .Ldebug_info0

NO UNDEFINED SYMBOLS
