GAS LISTING /tmp/ccBJB5ww.s 			page 1


   1              		.file	"Cons.cpp"
   2              		.option pic
   3              		.option norelax
   4              		.text
   5              	.Ltext0:
   6              		.align	2
   7              		.globl	_ZN10CharBuffer3getEv
   9              	_ZN10CharBuffer3getEv:
  10              	.LFB10:
  11              		.file 1 "src/Cons.cpp"
   1:src/Cons.cpp  **** #include "../h/Cons.hpp"
   2:src/Cons.cpp  **** 
   3:src/Cons.cpp  **** 
   4:src/Cons.cpp  **** 
   5:src/Cons.cpp  **** char CharBuffer::get() {
  12              		.loc 1 5 24
  13              		.cfi_startproc
  14              	.LVL0:
  15 0000 130101FE 		addi	sp,sp,-32
  16              		.cfi_def_cfa_offset 32
  17 0004 233C1100 		sd	ra,24(sp)
  18 0008 23388100 		sd	s0,16(sp)
  19 000c 23349100 		sd	s1,8(sp)
  20 0010 23302101 		sd	s2,0(sp)
  21              		.cfi_offset 1, -8
  22              		.cfi_offset 8, -16
  23              		.cfi_offset 9, -24
  24              		.cfi_offset 18, -32
  25 0014 13040102 		addi	s0,sp,32
  26              		.cfi_def_cfa 8, 0
  27 0018 93040500 		mv	s1,a0
   6:src/Cons.cpp  ****    getSem->wait();
  28              		.loc 1 6 4
  29              		.loc 1 6 16 is_stmt 0
  30 001c 03350501 		ld	a0,16(a0)
  31              	.LVL1:
  32 0020 97000000 		call	_ZN3Sem4waitEv@plt
  32      E7800000 
  33              	.LVL2:
   7:src/Cons.cpp  ****    mutexGet->wait();
  34              		.loc 1 7 4 is_stmt 1
  35              		.loc 1 7 18 is_stmt 0
  36 0028 03B50400 		ld	a0,0(s1)
  37 002c 97000000 		call	_ZN3Sem4waitEv@plt
  37      E7800000 
  38              	.LVL3:
   8:src/Cons.cpp  ****     char c = buffer[head];
  39              		.loc 1 8 5 is_stmt 1
  40              		.loc 1 8 14 is_stmt 0
  41 0034 03B70403 		ld	a4,48(s1)
  42              		.loc 1 8 21
  43 0038 83A70402 		lw	a5,32(s1)
  44              		.loc 1 8 25
  45 003c 3307F700 		add	a4,a4,a5
  46              		.loc 1 8 10
  47 0040 03490700 		lbu	s2,0(a4)
  48              	.LVL4:
GAS LISTING /tmp/ccBJB5ww.s 			page 2


   9:src/Cons.cpp  ****     head = (head + 1)%size;
  49              		.loc 1 9 5 is_stmt 1
  50              		.loc 1 9 18 is_stmt 0
  51 0044 9B871700 		addiw	a5,a5,1
  52              		.loc 1 9 23
  53 0048 03A78402 		lw	a4,40(s1)
  54              		.loc 1 9 22
  55 004c BBE7E702 		remw	a5,a5,a4
  56              		.loc 1 9 10
  57 0050 23A0F402 		sw	a5,32(s1)
  10:src/Cons.cpp  ****     currSize--;
  58              		.loc 1 10 5 is_stmt 1
  59 0054 83A7C402 		lw	a5,44(s1)
  60              		.loc 1 10 13 is_stmt 0
  61 0058 9B87F7FF 		addiw	a5,a5,-1
  62 005c 23A6F402 		sw	a5,44(s1)
  11:src/Cons.cpp  ****     mutexGet->signal();
  63              		.loc 1 11 5 is_stmt 1
  64              		.loc 1 11 21 is_stmt 0
  65 0060 03B50400 		ld	a0,0(s1)
  66 0064 97000000 		call	_ZN3Sem6signalEv@plt
  66      E7800000 
  67              	.LVL5:
  12:src/Cons.cpp  ****    putSem->signal();
  68              		.loc 1 12 4 is_stmt 1
  69              		.loc 1 12 18 is_stmt 0
  70 006c 03B58401 		ld	a0,24(s1)
  71 0070 97000000 		call	_ZN3Sem6signalEv@plt
  71      E7800000 
  72              	.LVL6:
  13:src/Cons.cpp  ****     return c;
  73              		.loc 1 13 5 is_stmt 1
  14:src/Cons.cpp  **** }
  74              		.loc 1 14 1 is_stmt 0
  75 0078 13050900 		mv	a0,s2
  76 007c 83308101 		ld	ra,24(sp)
  77              		.cfi_restore 1
  78 0080 03340101 		ld	s0,16(sp)
  79              		.cfi_restore 8
  80              		.cfi_def_cfa 2, 32
  81 0084 83348100 		ld	s1,8(sp)
  82              		.cfi_restore 9
  83              	.LVL7:
  84 0088 03390100 		ld	s2,0(sp)
  85              		.cfi_restore 18
  86              	.LVL8:
  87 008c 13010102 		addi	sp,sp,32
  88              		.cfi_def_cfa_offset 0
  89 0090 67800000 		jr	ra
  90              		.cfi_endproc
  91              	.LFE10:
  93              		.align	2
  94              		.globl	_ZN10CharBuffer3putEc
  96              	_ZN10CharBuffer3putEc:
  97              	.LFB11:
  15:src/Cons.cpp  **** 
  16:src/Cons.cpp  **** void CharBuffer::put(char c) {
GAS LISTING /tmp/ccBJB5ww.s 			page 3


  98              		.loc 1 16 30 is_stmt 1
  99              		.cfi_startproc
 100              	.LVL9:
  17:src/Cons.cpp  ****     if(this->currSize >= this->size) return;
 101              		.loc 1 17 5
 102              		.loc 1 17 14 is_stmt 0
 103 0094 0327C502 		lw	a4,44(a0)
 104              		.loc 1 17 32
 105 0098 83278502 		lw	a5,40(a0)
 106              		.loc 1 17 5
 107 009c 6344F700 		blt	a4,a5,.L9
 108 00a0 67800000 		ret
 109              	.L9:
  16:src/Cons.cpp  ****     if(this->currSize >= this->size) return;
 110              		.loc 1 16 30
 111 00a4 130101FE 		addi	sp,sp,-32
 112              		.cfi_def_cfa_offset 32
 113 00a8 233C1100 		sd	ra,24(sp)
 114 00ac 23388100 		sd	s0,16(sp)
 115 00b0 23349100 		sd	s1,8(sp)
 116 00b4 23302101 		sd	s2,0(sp)
 117              		.cfi_offset 1, -8
 118              		.cfi_offset 8, -16
 119              		.cfi_offset 9, -24
 120              		.cfi_offset 18, -32
 121 00b8 13040102 		addi	s0,sp,32
 122              		.cfi_def_cfa 8, 0
 123 00bc 93040500 		mv	s1,a0
 124 00c0 13890500 		mv	s2,a1
  18:src/Cons.cpp  ****     putSem->wait();
 125              		.loc 1 18 5 is_stmt 1
 126              		.loc 1 18 17 is_stmt 0
 127 00c4 03358501 		ld	a0,24(a0)
 128              	.LVL10:
 129 00c8 97000000 		call	_ZN3Sem4waitEv@plt
 129      E7800000 
 130              	.LVL11:
  19:src/Cons.cpp  ****     mutexPut->wait();
 131              		.loc 1 19 5 is_stmt 1
 132              		.loc 1 19 19 is_stmt 0
 133 00d0 03B58400 		ld	a0,8(s1)
 134 00d4 97000000 		call	_ZN3Sem4waitEv@plt
 134      E7800000 
 135              	.LVL12:
  20:src/Cons.cpp  ****     buffer[tail] = c;
 136              		.loc 1 20 5 is_stmt 1
 137 00dc 83B70403 		ld	a5,48(s1)
 138              		.loc 1 20 12 is_stmt 0
 139 00e0 03A74402 		lw	a4,36(s1)
 140              		.loc 1 20 16
 141 00e4 B387E700 		add	a5,a5,a4
 142              		.loc 1 20 18
 143 00e8 23802701 		sb	s2,0(a5)
  21:src/Cons.cpp  ****     tail = (tail + 1)%size;
 144              		.loc 1 21 5 is_stmt 1
 145              		.loc 1 21 13 is_stmt 0
 146 00ec 83A74402 		lw	a5,36(s1)
GAS LISTING /tmp/ccBJB5ww.s 			page 4


 147              		.loc 1 21 18
 148 00f0 9B871700 		addiw	a5,a5,1
 149              		.loc 1 21 23
 150 00f4 03A78402 		lw	a4,40(s1)
 151              		.loc 1 21 22
 152 00f8 BBE7E702 		remw	a5,a5,a4
 153              		.loc 1 21 10
 154 00fc 23A2F402 		sw	a5,36(s1)
  22:src/Cons.cpp  ****     currSize++;
 155              		.loc 1 22 5 is_stmt 1
 156 0100 83A7C402 		lw	a5,44(s1)
 157              		.loc 1 22 13 is_stmt 0
 158 0104 9B871700 		addiw	a5,a5,1
 159 0108 23A6F402 		sw	a5,44(s1)
  23:src/Cons.cpp  ****     mutexPut->signal();
 160              		.loc 1 23 5 is_stmt 1
 161              		.loc 1 23 21 is_stmt 0
 162 010c 03B58400 		ld	a0,8(s1)
 163 0110 97000000 		call	_ZN3Sem6signalEv@plt
 163      E7800000 
 164              	.LVL13:
  24:src/Cons.cpp  ****     getSem->signal();
 165              		.loc 1 24 5 is_stmt 1
 166              		.loc 1 24 19 is_stmt 0
 167 0118 03B50401 		ld	a0,16(s1)
 168 011c 97000000 		call	_ZN3Sem6signalEv@plt
 168      E7800000 
 169              	.LVL14:
  25:src/Cons.cpp  **** 
  26:src/Cons.cpp  **** }
 170              		.loc 1 26 1
 171 0124 83308101 		ld	ra,24(sp)
 172              		.cfi_restore 1
 173 0128 03340101 		ld	s0,16(sp)
 174              		.cfi_restore 8
 175              		.cfi_def_cfa 2, 32
 176 012c 83348100 		ld	s1,8(sp)
 177              		.cfi_restore 9
 178              	.LVL15:
 179 0130 03390100 		ld	s2,0(sp)
 180              		.cfi_restore 18
 181 0134 13010102 		addi	sp,sp,32
 182              		.cfi_def_cfa_offset 0
 183 0138 67800000 		jr	ra
 184              		.cfi_endproc
 185              	.LFE11:
 187              		.align	2
 188              		.globl	_ZN10CharBuffer7getSizeEv
 190              	_ZN10CharBuffer7getSizeEv:
 191              	.LFB12:
  27:src/Cons.cpp  **** 
  28:src/Cons.cpp  **** int CharBuffer::getSize() {
 192              		.loc 1 28 27 is_stmt 1
 193              		.cfi_startproc
 194              	.LVL16:
 195 013c 130101FF 		addi	sp,sp,-16
 196              		.cfi_def_cfa_offset 16
GAS LISTING /tmp/ccBJB5ww.s 			page 5


 197 0140 23348100 		sd	s0,8(sp)
 198              		.cfi_offset 8, -8
 199 0144 13040101 		addi	s0,sp,16
 200              		.cfi_def_cfa 8, 0
  29:src/Cons.cpp  ****     return currSize;
 201              		.loc 1 29 5
  30:src/Cons.cpp  **** }
 202              		.loc 1 30 1 is_stmt 0
 203 0148 0325C502 		lw	a0,44(a0)
 204              	.LVL17:
 205 014c 03348100 		ld	s0,8(sp)
 206              		.cfi_restore 8
 207              		.cfi_def_cfa 2, 16
 208 0150 13010101 		addi	sp,sp,16
 209              		.cfi_def_cfa_offset 0
 210 0154 67800000 		jr	ra
 211              		.cfi_endproc
 212              	.LFE12:
 214              		.align	2
 215              		.globl	_ZN10CharBufferC2Ei
 217              	_ZN10CharBufferC2Ei:
 218              	.LFB14:
  31:src/Cons.cpp  **** 
  32:src/Cons.cpp  **** CharBuffer::CharBuffer(int size) {
 219              		.loc 1 32 1 is_stmt 1
 220              		.cfi_startproc
 221              		.cfi_personality 0x9b,DW.ref.__gxx_personality_v0
 222              		.cfi_lsda 0x1b,.LLSDA14
 223              	.LVL18:
 224 0158 130101FD 		addi	sp,sp,-48
 225              		.cfi_def_cfa_offset 48
 226 015c 23341102 		sd	ra,40(sp)
 227 0160 23308102 		sd	s0,32(sp)
 228 0164 233C9100 		sd	s1,24(sp)
 229 0168 23382101 		sd	s2,16(sp)
 230 016c 23343101 		sd	s3,8(sp)
 231              		.cfi_offset 1, -8
 232              		.cfi_offset 8, -16
 233              		.cfi_offset 9, -24
 234              		.cfi_offset 18, -32
 235              		.cfi_offset 19, -40
 236 0170 13040103 		addi	s0,sp,48
 237              		.cfi_def_cfa 8, 0
 238 0174 93040500 		mv	s1,a0
 239 0178 13890500 		mv	s2,a1
 240              	.LBB2:
  33:src/Cons.cpp  ****     mutexGet = new Sem(1);
 241              		.loc 1 33 5
 242              		.loc 1 33 25 is_stmt 0
 243 017c 13050001 		li	a0,16
 244              	.LVL19:
 245              	.LEHB0:
 246 0180 97000000 		call	_Znwm@plt
 246      E7800000 
 247              	.LVL20:
 248              	.LEHE0:
 249 0188 93090500 		mv	s3,a0
GAS LISTING /tmp/ccBJB5ww.s 			page 6


 250 018c 93051000 		li	a1,1
 251              	.LEHB1:
 252 0190 97000000 		call	_ZN3SemC1Ei@plt
 252      E7800000 
 253              	.LVL21:
 254              	.LEHE1:
 255              		.loc 1 33 14 discriminator 2
 256 0198 23B03401 		sd	s3,0(s1)
  34:src/Cons.cpp  ****     mutexPut = new Sem(1);
 257              		.loc 1 34 5 is_stmt 1 discriminator 2
 258              		.loc 1 34 25 is_stmt 0 discriminator 2
 259 019c 13050001 		li	a0,16
 260              	.LEHB2:
 261 01a0 97000000 		call	_Znwm@plt
 261      E7800000 
 262              	.LVL22:
 263              	.LEHE2:
 264 01a8 93090500 		mv	s3,a0
 265 01ac 93051000 		li	a1,1
 266              	.LEHB3:
 267 01b0 97000000 		call	_ZN3SemC1Ei@plt
 267      E7800000 
 268              	.LVL23:
 269              	.LEHE3:
 270              		.loc 1 34 14 discriminator 2
 271 01b8 23B43401 		sd	s3,8(s1)
  35:src/Cons.cpp  ****     getSem = new Sem(0);
 272              		.loc 1 35 5 is_stmt 1 discriminator 2
 273              		.loc 1 35 23 is_stmt 0 discriminator 2
 274 01bc 13050001 		li	a0,16
 275              	.LEHB4:
 276 01c0 97000000 		call	_Znwm@plt
 276      E7800000 
 277              	.LVL24:
 278              	.LEHE4:
 279 01c8 93090500 		mv	s3,a0
 280 01cc 93050000 		li	a1,0
 281              	.LEHB5:
 282 01d0 97000000 		call	_ZN3SemC1Ei@plt
 282      E7800000 
 283              	.LVL25:
 284              	.LEHE5:
 285              		.loc 1 35 12 discriminator 2
 286 01d8 23B83401 		sd	s3,16(s1)
  36:src/Cons.cpp  ****     putSem = new Sem(size);
 287              		.loc 1 36 5 is_stmt 1 discriminator 2
 288              		.loc 1 36 26 is_stmt 0 discriminator 2
 289 01dc 13050001 		li	a0,16
 290              	.LEHB6:
 291 01e0 97000000 		call	_Znwm@plt
 291      E7800000 
 292              	.LVL26:
 293              	.LEHE6:
 294 01e8 93090500 		mv	s3,a0
 295 01ec 93050900 		mv	a1,s2
 296              	.LEHB7:
 297 01f0 97000000 		call	_ZN3SemC1Ei@plt
GAS LISTING /tmp/ccBJB5ww.s 			page 7


 297      E7800000 
 298              	.LVL27:
 299              	.LEHE7:
 300              		.loc 1 36 12 discriminator 2
 301 01f8 23BC3401 		sd	s3,24(s1)
  37:src/Cons.cpp  ****     this->size = size;
 302              		.loc 1 37 5 is_stmt 1 discriminator 2
 303              		.loc 1 37 16 is_stmt 0 discriminator 2
 304 01fc 23A42403 		sw	s2,40(s1)
  38:src/Cons.cpp  ****     head = 0;
 305              		.loc 1 38 5 is_stmt 1 discriminator 2
 306              		.loc 1 38 10 is_stmt 0 discriminator 2
 307 0200 23A00402 		sw	zero,32(s1)
  39:src/Cons.cpp  ****     tail = 0;
 308              		.loc 1 39 5 is_stmt 1 discriminator 2
 309              		.loc 1 39 10 is_stmt 0 discriminator 2
 310 0204 23A20402 		sw	zero,36(s1)
  40:src/Cons.cpp  ****     currSize = 0;
 311              		.loc 1 40 5 is_stmt 1 discriminator 2
 312              		.loc 1 40 14 is_stmt 0 discriminator 2
 313 0208 23A60402 		sw	zero,44(s1)
  41:src/Cons.cpp  ****     buffer = new char[size];
 314              		.loc 1 41 5 is_stmt 1 discriminator 2
 315              		.loc 1 41 27 is_stmt 0 discriminator 2
 316 020c 13050900 		mv	a0,s2
 317              	.LEHB8:
 318 0210 97000000 		call	_Znam@plt
 318      E7800000 
 319              	.LVL28:
 320              		.loc 1 41 12 discriminator 2
 321 0218 23B8A402 		sd	a0,48(s1)
 322              	.LBE2:
  42:src/Cons.cpp  **** }
 323              		.loc 1 42 1 discriminator 2
 324 021c 83308102 		ld	ra,40(sp)
 325              		.cfi_remember_state
 326              		.cfi_restore 1
 327 0220 03340102 		ld	s0,32(sp)
 328              		.cfi_restore 8
 329              		.cfi_def_cfa 2, 48
 330 0224 83348101 		ld	s1,24(sp)
 331              		.cfi_restore 9
 332              	.LVL29:
 333 0228 03390101 		ld	s2,16(sp)
 334              		.cfi_restore 18
 335 022c 83398100 		ld	s3,8(sp)
 336              		.cfi_restore 19
 337 0230 13010103 		addi	sp,sp,48
 338              		.cfi_def_cfa_offset 0
 339 0234 67800000 		jr	ra
 340              	.LVL30:
 341              	.L17:
 342              		.cfi_restore_state
 343 0238 93040500 		mv	s1,a0
 344              	.LVL31:
 345              	.LBB3:
  33:src/Cons.cpp  ****     mutexPut = new Sem(1);
GAS LISTING /tmp/ccBJB5ww.s 			page 8


 346              		.loc 1 33 25
 347 023c 13850900 		mv	a0,s3
 348 0240 97000000 		call	_ZdlPv@plt
 348      E7800000 
 349              	.LVL32:
 350 0248 13850400 		mv	a0,s1
 351 024c 97000000 		call	_Unwind_Resume@plt
 351      E7800000 
 352              	.LVL33:
 353              	.L18:
 354 0254 93040500 		mv	s1,a0
 355              	.LVL34:
  34:src/Cons.cpp  ****     getSem = new Sem(0);
 356              		.loc 1 34 25
 357 0258 13850900 		mv	a0,s3
 358 025c 97000000 		call	_ZdlPv@plt
 358      E7800000 
 359              	.LVL35:
 360 0264 13850400 		mv	a0,s1
 361 0268 97000000 		call	_Unwind_Resume@plt
 361      E7800000 
 362              	.LVL36:
 363              	.L19:
 364 0270 93040500 		mv	s1,a0
 365              	.LVL37:
  35:src/Cons.cpp  ****     putSem = new Sem(size);
 366              		.loc 1 35 23
 367 0274 13850900 		mv	a0,s3
 368 0278 97000000 		call	_ZdlPv@plt
 368      E7800000 
 369              	.LVL38:
 370 0280 13850400 		mv	a0,s1
 371 0284 97000000 		call	_Unwind_Resume@plt
 371      E7800000 
 372              	.LVL39:
 373              	.L20:
 374 028c 93040500 		mv	s1,a0
 375              	.LVL40:
  36:src/Cons.cpp  ****     this->size = size;
 376              		.loc 1 36 26
 377 0290 13850900 		mv	a0,s3
 378 0294 97000000 		call	_ZdlPv@plt
 378      E7800000 
 379              	.LVL41:
 380 029c 13850400 		mv	a0,s1
 381 02a0 97000000 		call	_Unwind_Resume@plt
 381      E7800000 
 382              	.LVL42:
 383              	.LEHE8:
 384              	.LBE3:
 385              		.cfi_endproc
 386              	.LFE14:
 387              		.globl	__gxx_personality_v0
 388              		.section	.gcc_except_table,"a",@progbits
 389              	.LLSDA14:
 390 0000 FF       		.byte	0xff
 391 0001 FF       		.byte	0xff
GAS LISTING /tmp/ccBJB5ww.s 			page 9


 392 0002 03       		.byte	0x3
 393 0003 75       		.byte	0x75
 394 0004 00000000 		.4byte	.LEHB0-.LFB14
 395 0008 00000000 		.4byte	.LEHE0-.LEHB0
 396 000c 00000000 		.4byte	0
 397 0010 00       		.byte	0
 398 0011 00000000 		.4byte	.LEHB1-.LFB14
 399 0015 00000000 		.4byte	.LEHE1-.LEHB1
 400 0019 00000000 		.4byte	.L17-.LFB14
 401 001d 00       		.byte	0
 402 001e 00000000 		.4byte	.LEHB2-.LFB14
 403 0022 00000000 		.4byte	.LEHE2-.LEHB2
 404 0026 00000000 		.4byte	0
 405 002a 00       		.byte	0
 406 002b 00000000 		.4byte	.LEHB3-.LFB14
 407 002f 00000000 		.4byte	.LEHE3-.LEHB3
 408 0033 00000000 		.4byte	.L18-.LFB14
 409 0037 00       		.byte	0
 410 0038 00000000 		.4byte	.LEHB4-.LFB14
 411 003c 00000000 		.4byte	.LEHE4-.LEHB4
 412 0040 00000000 		.4byte	0
 413 0044 00       		.byte	0
 414 0045 00000000 		.4byte	.LEHB5-.LFB14
 415 0049 00000000 		.4byte	.LEHE5-.LEHB5
 416 004d 00000000 		.4byte	.L19-.LFB14
 417 0051 00       		.byte	0
 418 0052 00000000 		.4byte	.LEHB6-.LFB14
 419 0056 00000000 		.4byte	.LEHE6-.LEHB6
 420 005a 00000000 		.4byte	0
 421 005e 00       		.byte	0
 422 005f 00000000 		.4byte	.LEHB7-.LFB14
 423 0063 00000000 		.4byte	.LEHE7-.LEHB7
 424 0067 00000000 		.4byte	.L20-.LFB14
 425 006b 00       		.byte	0
 426 006c 00000000 		.4byte	.LEHB8-.LFB14
 427 0070 00000000 		.4byte	.LEHE8-.LEHB8
 428 0074 00000000 		.4byte	0
 429 0078 00       		.byte	0
 430              		.text
 432              		.globl	_ZN10CharBufferC1Ei
 433              		.set	_ZN10CharBufferC1Ei,_ZN10CharBufferC2Ei
 434              		.align	2
 435              		.globl	_ZN10CharBufferD2Ev
 437              	_ZN10CharBufferD2Ev:
 438              	.LFB17:
  43:src/Cons.cpp  **** 
  44:src/Cons.cpp  **** CharBuffer::~CharBuffer() {
 439              		.loc 1 44 1 is_stmt 1
 440              		.cfi_startproc
 441              	.LVL43:
 442 02a8 130101FE 		addi	sp,sp,-32
 443              		.cfi_def_cfa_offset 32
 444 02ac 233C1100 		sd	ra,24(sp)
 445 02b0 23388100 		sd	s0,16(sp)
 446 02b4 23349100 		sd	s1,8(sp)
 447              		.cfi_offset 1, -8
 448              		.cfi_offset 8, -16
GAS LISTING /tmp/ccBJB5ww.s 			page 10


 449              		.cfi_offset 9, -24
 450 02b8 13040102 		addi	s0,sp,32
 451              		.cfi_def_cfa 8, 0
 452 02bc 93040500 		mv	s1,a0
 453              	.LBB4:
  45:src/Cons.cpp  ****     delete mutexGet;
 454              		.loc 1 45 5
 455              		.loc 1 45 12 is_stmt 0
 456 02c0 03350500 		ld	a0,0(a0)
 457              	.LVL44:
 458              		.loc 1 45 20
 459 02c4 63060500 		beqz	a0,.L24
 460              		.loc 1 45 12 discriminator 1
 461 02c8 97000000 		call	_ZdlPv@plt
 461      E7800000 
 462              	.LVL45:
 463              	.L24:
  46:src/Cons.cpp  ****     delete mutexPut;
 464              		.loc 1 46 5 is_stmt 1
 465              		.loc 1 46 12 is_stmt 0
 466 02d0 03B58400 		ld	a0,8(s1)
 467              		.loc 1 46 20
 468 02d4 63060500 		beqz	a0,.L25
 469              		.loc 1 46 12 discriminator 1
 470 02d8 97000000 		call	_ZdlPv@plt
 470      E7800000 
 471              	.LVL46:
 472              	.L25:
  47:src/Cons.cpp  ****     delete getSem;
 473              		.loc 1 47 5 is_stmt 1
 474              		.loc 1 47 12 is_stmt 0
 475 02e0 03B50401 		ld	a0,16(s1)
 476              		.loc 1 47 18
 477 02e4 63060500 		beqz	a0,.L26
 478              		.loc 1 47 12 discriminator 1
 479 02e8 97000000 		call	_ZdlPv@plt
 479      E7800000 
 480              	.LVL47:
 481              	.L26:
  48:src/Cons.cpp  ****     delete putSem;
 482              		.loc 1 48 5 is_stmt 1
 483              		.loc 1 48 12 is_stmt 0
 484 02f0 03B58401 		ld	a0,24(s1)
 485              		.loc 1 48 18
 486 02f4 63060500 		beqz	a0,.L27
 487              		.loc 1 48 12 discriminator 1
 488 02f8 97000000 		call	_ZdlPv@plt
 488      E7800000 
 489              	.LVL48:
 490              	.L27:
  49:src/Cons.cpp  ****     delete buffer;
 491              		.loc 1 49 5 is_stmt 1
 492              		.loc 1 49 12 is_stmt 0
 493 0300 03B50403 		ld	a0,48(s1)
 494              		.loc 1 49 18
 495 0304 63060500 		beqz	a0,.L23
 496              		.loc 1 49 12 discriminator 1
GAS LISTING /tmp/ccBJB5ww.s 			page 11


 497 0308 97000000 		call	_ZdlPv@plt
 497      E7800000 
 498              	.LVL49:
  50:src/Cons.cpp  ****     size = head = tail = 0;
 499              		.loc 1 50 5 is_stmt 1 discriminator 1
 500              	.L23:
 501              	.LBE4:
  51:src/Cons.cpp  **** }
 502              		.loc 1 51 1 is_stmt 0
 503 0310 83308101 		ld	ra,24(sp)
 504              		.cfi_restore 1
 505 0314 03340101 		ld	s0,16(sp)
 506              		.cfi_restore 8
 507              		.cfi_def_cfa 2, 32
 508 0318 83348100 		ld	s1,8(sp)
 509              		.cfi_restore 9
 510              	.LVL50:
 511 031c 13010102 		addi	sp,sp,32
 512              		.cfi_def_cfa_offset 0
 513 0320 67800000 		jr	ra
 514              		.cfi_endproc
 515              	.LFE17:
 517              		.globl	_ZN10CharBufferD1Ev
 518              		.set	_ZN10CharBufferD1Ev,_ZN10CharBufferD2Ev
 519              		.align	2
 520              		.globl	_ZN10CharBuffer10getMaxSizeEv
 522              	_ZN10CharBuffer10getMaxSizeEv:
 523              	.LFB19:
  52:src/Cons.cpp  **** 
  53:src/Cons.cpp  **** int CharBuffer::getMaxSize() {
 524              		.loc 1 53 30 is_stmt 1
 525              		.cfi_startproc
 526              	.LVL51:
 527 0324 130101FF 		addi	sp,sp,-16
 528              		.cfi_def_cfa_offset 16
 529 0328 23348100 		sd	s0,8(sp)
 530              		.cfi_offset 8, -8
 531 032c 13040101 		addi	s0,sp,16
 532              		.cfi_def_cfa 8, 0
  54:src/Cons.cpp  ****     return size;
 533              		.loc 1 54 5
  55:src/Cons.cpp  **** }
 534              		.loc 1 55 1 is_stmt 0
 535 0330 03258502 		lw	a0,40(a0)
 536              	.LVL52:
 537 0334 03348100 		ld	s0,8(sp)
 538              		.cfi_restore 8
 539              		.cfi_def_cfa 2, 16
 540 0338 13010101 		addi	sp,sp,16
 541              		.cfi_def_cfa_offset 0
 542 033c 67800000 		jr	ra
 543              		.cfi_endproc
 544              	.LFE19:
 546              		.align	2
 547              		.globl	_ZN4ConsC2Ev
 549              	_ZN4ConsC2Ev:
 550              	.LFB21:
GAS LISTING /tmp/ccBJB5ww.s 			page 12


  56:src/Cons.cpp  **** 
  57:src/Cons.cpp  **** CharBuffer* Cons::inputBuffer;
  58:src/Cons.cpp  **** CharBuffer* Cons::outputBuffer;
  59:src/Cons.cpp  **** Cons::Cons() {
 551              		.loc 1 59 1 is_stmt 1
 552              		.cfi_startproc
 553              	.LVL53:
 554 0340 130101FF 		addi	sp,sp,-16
 555              		.cfi_def_cfa_offset 16
 556 0344 23348100 		sd	s0,8(sp)
 557              		.cfi_offset 8, -8
 558 0348 13040101 		addi	s0,sp,16
 559              		.cfi_def_cfa 8, 0
  60:src/Cons.cpp  **** 
  61:src/Cons.cpp  **** }
 560              		.loc 1 61 1 is_stmt 0
 561 034c 03348100 		ld	s0,8(sp)
 562              		.cfi_restore 8
 563              		.cfi_def_cfa 2, 16
 564 0350 13010101 		addi	sp,sp,16
 565              		.cfi_def_cfa_offset 0
 566 0354 67800000 		jr	ra
 567              		.cfi_endproc
 568              	.LFE21:
 570              		.globl	_ZN4ConsC1Ev
 571              		.set	_ZN4ConsC1Ev,_ZN4ConsC2Ev
 572              		.globl	_ZN4Cons12outputBufferE
 573              		.globl	_ZN4Cons11inputBufferE
 574              		.bss
 575              		.align	3
 578              	_ZN4Cons12outputBufferE:
 579 0000 00000000 		.zero	8
 579      00000000 
 582              	_ZN4Cons11inputBufferE:
 583 0008 00000000 		.zero	8
 583      00000000 
 584              		.text
 585              	.Letext0:
 586              		.file 2 "src/../h/../h/../h/../lib/hw.h"
 587              		.file 3 "src/../h/../h/../h/../h/syscall_c.h"
 588              		.file 4 "src/../h/../h/../h/PCB_List.h"
 589              		.file 5 "src/../h/../h/./PCB.h"
 590              		.file 6 "src/../h/../h/Sem.h"
 591              		.file 7 "src/../h/Cons.hpp"
 3612              		.align	3
 3615              	DW.ref.__gxx_personality_v0:
 3616 0000 00000000 		.dword	__gxx_personality_v0
 3616      00000000 
 3617              		.ident	"GCC: (Ubuntu 9.4.0-1ubuntu1~20.04) 9.4.0"
 3618              		.section	.note.GNU-stack,"",@progbits
GAS LISTING /tmp/ccBJB5ww.s 			page 13

