GAS LISTING /tmp/ccCs0PLf.s 			page 1


   1              		.file	"Interrupt.cpp"
   2              		.option pic
   3              		.option norelax
   4              		.text
   5              	.Ltext0:
   6              		.align	2
   7              		.globl	_ZN9Interrupt7callSysEmmmmm
   9              	_ZN9Interrupt7callSysEmmmmm:
  10              	.LFB11:
  11              		.file 1 "src/Interrupt.cpp"
   1:src/Interrupt.cpp **** //
   2:src/Interrupt.cpp **** // Created by os on 4/23/22.
   3:src/Interrupt.cpp **** //
   4:src/Interrupt.cpp **** #include "../h/Interrupt.h"
   5:src/Interrupt.cpp **** #include "../h/Cons.hpp"
   6:src/Interrupt.cpp **** 
   7:src/Interrupt.cpp **** uint64 Interrupt::prevSstatus = 2;
   8:src/Interrupt.cpp **** int Interrupt::lock_var = 1;
   9:src/Interrupt.cpp **** bool Interrupt::enableSystemStack = false;
  10:src/Interrupt.cpp **** void Interrupt::handleSysCall() {
  11:src/Interrupt.cpp **** 
  12:src/Interrupt.cpp **** 
  13:src/Interrupt.cpp ****     uint64 scause = r_scausei();
  14:src/Interrupt.cpp ****     if(scause == 0x0000000000000009UL || scause == 0x0000000000000008UL) {
  15:src/Interrupt.cpp **** 
  16:src/Interrupt.cpp ****         uint64 sepc = r_sepci() + 4;
  17:src/Interrupt.cpp ****         uint64 sscause = r_scausei();
  18:src/Interrupt.cpp ****         uint64 opCode,arg1,arg2,arg3,arg4;
  19:src/Interrupt.cpp ****         __asm__ volatile("ld %0,80(s0)" : "=r"(opCode));
  20:src/Interrupt.cpp ****         __asm__ volatile("ld %0,88(s0)" : "=r"(arg1));
  21:src/Interrupt.cpp ****         __asm__ volatile("ld %0,96(s0)" : "=r"(arg2));
  22:src/Interrupt.cpp ****         __asm__ volatile("ld %0,104(s0)" : "=r"(arg3));
  23:src/Interrupt.cpp ****         __asm__ volatile("ld %0,112(s0)" : "=r"(arg4));
  24:src/Interrupt.cpp ****         callSys(opCode,arg1,arg2,arg3,arg4);
  25:src/Interrupt.cpp ****         w_scausei(sscause);
  26:src/Interrupt.cpp ****         w_sepci(sepc);
  27:src/Interrupt.cpp **** 
  28:src/Interrupt.cpp **** 
  29:src/Interrupt.cpp **** 
  30:src/Interrupt.cpp ****     }
  31:src/Interrupt.cpp ****     else if(scause == 0x8000000000000001UL){
  32:src/Interrupt.cpp ****         uint64 sie = r_siei();
  33:src/Interrupt.cpp ****         if((sie & 2) == 0){
  34:src/Interrupt.cpp ****             mc_sip(SIP_SSIP);
  35:src/Interrupt.cpp ****             return;
  36:src/Interrupt.cpp ****         }
  37:src/Interrupt.cpp ****         PCB::sleeping_list->decTime();
  38:src/Interrupt.cpp ****         while (PCB::sleeping_list->getTimeLeft() == 0){
  39:src/Interrupt.cpp ****             PCB* pcb = PCB::sleeping_list->get();
  40:src/Interrupt.cpp ****             if(pcb->isPeriodic && PCB::isPeriodicBlocked){
  41:src/Interrupt.cpp ****                 PCB::sleeping_list->putTime(pcb,1);
  42:src/Interrupt.cpp ****             }
  43:src/Interrupt.cpp ****             else{
  44:src/Interrupt.cpp ****                 pcb->setSleeping(false);
  45:src/Interrupt.cpp ****                 Scheduler::put(pcb);
  46:src/Interrupt.cpp ****             }
  47:src/Interrupt.cpp **** 
GAS LISTING /tmp/ccCs0PLf.s 			page 2


  48:src/Interrupt.cpp ****         }
  49:src/Interrupt.cpp ****         PCB::timeLeft++;
  50:src/Interrupt.cpp ****         if(PCB::timeLeft >= PCB::running->getTimeSlice()){
  51:src/Interrupt.cpp ****           uint64 sepc = r_sepc();
  52:src/Interrupt.cpp ****           uint64 sscause = r_scausei();
  53:src/Interrupt.cpp ****           PCB::timeLeft = 0;
  54:src/Interrupt.cpp ****           PCB::dispatch();
  55:src/Interrupt.cpp ****           w_scausei(sscause);
  56:src/Interrupt.cpp ****          w_sepc(sepc);
  57:src/Interrupt.cpp ****         }
  58:src/Interrupt.cpp ****            mc_sip(SIP_SSIP);
  59:src/Interrupt.cpp ****     }
  60:src/Interrupt.cpp ****     else if(scause == 0x8000000000000009UL){
  61:src/Interrupt.cpp ****         int irq = plic_claim();
  62:src/Interrupt.cpp ****         if(irq == CONSOLE_IRQ){
  63:src/Interrupt.cpp ****             volatile char status = *((char *)CONSOLE_STATUS);
  64:src/Interrupt.cpp ****             while (status & CONSOLE_RX_STATUS_BIT){
  65:src/Interrupt.cpp ****                 char c = (*(char *) CONSOLE_RX_DATA);
  66:src/Interrupt.cpp ****                 Cons::inputBuffer->put(c);
  67:src/Interrupt.cpp ****                 status = *((char *)CONSOLE_STATUS);
  68:src/Interrupt.cpp ****             }
  69:src/Interrupt.cpp ****         }
  70:src/Interrupt.cpp ****         plic_complete(irq);
  71:src/Interrupt.cpp ****     }
  72:src/Interrupt.cpp **** 
  73:src/Interrupt.cpp **** }
  74:src/Interrupt.cpp **** 
  75:src/Interrupt.cpp **** void Interrupt::callSys(uint64 opCode, uint64 arg1,uint64 arg2 , uint64 arg3 , uint64 arg4) {
  12              		.loc 1 75 93
  13              		.cfi_startproc
  14              	.LVL0:
  15 0000 130101F5 		addi	sp,sp,-176
  16              		.cfi_def_cfa_offset 176
  17 0004 2334110A 		sd	ra,168(sp)
  18 0008 2330810A 		sd	s0,160(sp)
  19 000c 233C9108 		sd	s1,152(sp)
  20 0010 23382109 		sd	s2,144(sp)
  21 0014 23343109 		sd	s3,136(sp)
  22 0018 23304109 		sd	s4,128(sp)
  23 001c 233C5107 		sd	s5,120(sp)
  24              		.cfi_offset 1, -8
  25              		.cfi_offset 8, -16
  26              		.cfi_offset 9, -24
  27              		.cfi_offset 18, -32
  28              		.cfi_offset 19, -40
  29              		.cfi_offset 20, -48
  30              		.cfi_offset 21, -56
  31 0020 1304010B 		addi	s0,sp,176
  32              		.cfi_def_cfa 8, 0
  33 0024 93840500 		mv	s1,a1
  76:src/Interrupt.cpp ****     //switchToSystemStack();
  77:src/Interrupt.cpp ****     if(opCode == 0x1){
  34              		.loc 1 77 5
  35              	.LBB98:
  36 0028 93071000 		li	a5,1
  37 002c 630AF50A 		beq	a0,a5,.L32
  38 0030 13090600 		mv	s2,a2
GAS LISTING /tmp/ccCs0PLf.s 			page 3


  39 0034 93890600 		mv	s3,a3
  40 0038 130A0700 		mv	s4,a4
  41              	.LBE98:
  78:src/Interrupt.cpp ****         uint64 size = arg1;
  79:src/Interrupt.cpp ****         size*=MEM_BLOCK_SIZE;
  80:src/Interrupt.cpp ****         void* retAdr = MemoryAllocator::mem_alloc((size_t) size);
  81:src/Interrupt.cpp ****         long* header = (long*) retAdr;
  82:src/Interrupt.cpp ****         size/=MEM_BLOCK_SIZE;
  83:src/Interrupt.cpp ****         *header = size;
  84:src/Interrupt.cpp ****         header++;
  85:src/Interrupt.cpp ****         __asm__ volatile("mv a0,%0" : : "r"((uint64)header));
  86:src/Interrupt.cpp **** 
  87:src/Interrupt.cpp **** 
  88:src/Interrupt.cpp ****     }
  89:src/Interrupt.cpp ****     else if(opCode == 0x2){
  42              		.loc 1 89 10
  43              	.LBB259:
  44              	.LBB99:
  45 003c 93072000 		li	a5,2
  46 0040 6304F50E 		beq	a0,a5,.L33
  47              	.LBE99:
  48              	.LBE259:
  90:src/Interrupt.cpp ****         uint64 adr = arg1;
  91:src/Interrupt.cpp ****         int res = MemoryAllocator::mem_free((void*) adr);
  92:src/Interrupt.cpp ****         __asm__ volatile("mv a0,%0" : : "r"((uint64)res));
  93:src/Interrupt.cpp **** 
  94:src/Interrupt.cpp ****     }
  95:src/Interrupt.cpp ****     else if(opCode == 0x10){
  49              		.loc 1 95 10
  50              	.LBB260:
  51              	.LBB242:
  52              	.LBB100:
  53 0044 93070001 		li	a5,16
  54 0048 630AF50E 		beq	a0,a5,.L34
  55              	.LBE100:
  56              	.LBE242:
  57              	.LBE260:
  96:src/Interrupt.cpp ****         uint64 handle = arg1,body = arg2,args = arg3,stac = arg4,res;
  97:src/Interrupt.cpp ****         (*(thread_t*)handle)->PCB = PCB::allocatePCB();
  98:src/Interrupt.cpp ****         if((*(thread_t*)handle)->PCB == 0){
  99:src/Interrupt.cpp ****             res = -1;
 100:src/Interrupt.cpp ****             __asm__ volatile("mv a0,%0" : : "r"(res));
 101:src/Interrupt.cpp **** 
 102:src/Interrupt.cpp ****         }
 103:src/Interrupt.cpp ****         else {
 104:src/Interrupt.cpp ****             *(PCB *) (*(thread_t *) handle)->PCB = PCB((PCB::Body) body, (void *) args, (uint64 *) 
 105:src/Interrupt.cpp ****                                                        DEFAULT_TIME_SLICE);
 106:src/Interrupt.cpp ****             res = 0;
 107:src/Interrupt.cpp ****             __asm__ volatile("mv a0,%0" : : "r"(res));
 108:src/Interrupt.cpp ****         }
 109:src/Interrupt.cpp ****     }
 110:src/Interrupt.cpp ****     else if(opCode == 0x11) {
  58              		.loc 1 110 10
  59              	.LBB261:
  60              	.LBB243:
  61              	.LBB226:
  62              	.LBB101:
GAS LISTING /tmp/ccCs0PLf.s 			page 4


  63 004c 93071001 		li	a5,17
  64 0050 630EF518 		beq	a0,a5,.L35
  65              	.LBE101:
  66              	.LBE226:
  67              	.LBE243:
  68              	.LBE261:
 111:src/Interrupt.cpp ****         uint64 handle = arg1, body = arg2, args = arg3, stac = arg4, res;
 112:src/Interrupt.cpp ****         (*(thread_t *) handle)->PCB = PCB::allocatePCB();
 113:src/Interrupt.cpp ****         if ((*(thread_t *) handle)->PCB == 0) {
 114:src/Interrupt.cpp ****             res = -1;
 115:src/Interrupt.cpp ****             __asm__ volatile("mv a0,%0" : : "r"(res));
 116:src/Interrupt.cpp **** 
 117:src/Interrupt.cpp ****         } else {
 118:src/Interrupt.cpp ****             *(PCB *) (*(thread_t *) handle)->PCB = PCB((PCB::Body) body, (void *) args, (uint64 *) 
 119:src/Interrupt.cpp ****                                                        DEFAULT_TIME_SLICE);
 120:src/Interrupt.cpp ****             if (PCB::running == nullptr) {
 121:src/Interrupt.cpp ****                 PCB::running = (PCB *) (*(thread_t *) handle)->PCB;
 122:src/Interrupt.cpp ****             } else {
 123:src/Interrupt.cpp ****                 Scheduler::put((PCB *) (*(thread_t *) handle)->PCB);
 124:src/Interrupt.cpp ****             }
 125:src/Interrupt.cpp ****             res = 0;
 126:src/Interrupt.cpp ****             __asm__ volatile("mv a0,%0" : : "r"(res));
 127:src/Interrupt.cpp ****         }
 128:src/Interrupt.cpp ****     }
 129:src/Interrupt.cpp ****     else if(opCode == 0x12){
  69              		.loc 1 129 10
  70              	.LBB262:
  71              	.LBB244:
  72              	.LBB227:
  73              	.LBB211:
  74              	.LBB102:
  75 0054 93072001 		li	a5,18
  76 0058 630EF526 		beq	a0,a5,.L36
  77              	.LBE102:
  78              	.LBE211:
  79              	.LBE227:
  80              	.LBE244:
  81              	.LBE262:
 130:src/Interrupt.cpp ****         if(PCB::running!= nullptr) {
 131:src/Interrupt.cpp ****             PCB::running->setFinished(true);
 132:src/Interrupt.cpp ****             uint64 res = 0;
 133:src/Interrupt.cpp ****             __asm__ volatile("mv a0,%0" : : "r"(res));
 134:src/Interrupt.cpp ****         } else {
 135:src/Interrupt.cpp ****             uint64 res = -1;
 136:src/Interrupt.cpp ****             __asm__ volatile("mv a0,%0" : : "r"(res));
 137:src/Interrupt.cpp ****         }
 138:src/Interrupt.cpp **** 
 139:src/Interrupt.cpp ****     }
 140:src/Interrupt.cpp ****     else if(opCode == 0x13){
  82              		.loc 1 140 10
  83              	.LBB263:
  84              	.LBB245:
  85              	.LBB228:
  86              	.LBB212:
  87              	.LBB198:
  88              	.LBB103:
  89 005c 93073001 		li	a5,19
GAS LISTING /tmp/ccCs0PLf.s 			page 5


  90 0060 6304F52A 		beq	a0,a5,.L37
  91              	.LBE103:
  92              	.LBE198:
  93              	.LBE212:
  94              	.LBE228:
  95              	.LBE245:
  96              	.LBE263:
 141:src/Interrupt.cpp ****         PCB::timeLeft = 0;
 142:src/Interrupt.cpp ****         PCB::dispatch();
 143:src/Interrupt.cpp ****     }
 144:src/Interrupt.cpp ****     else if(opCode == 0x21){
  97              		.loc 1 144 10
  98              	.LBB264:
  99              	.LBB246:
 100              	.LBB229:
 101              	.LBB213:
 102              	.LBB199:
 103              	.LBB184:
 104              	.LBB104:
 105 0064 93071002 		li	a5,33
 106 0068 630CF52A 		beq	a0,a5,.L38
 107              	.LBE104:
 108              	.LBE184:
 109              	.LBE199:
 110              	.LBE213:
 111              	.LBE229:
 112              	.LBE246:
 113              	.LBE264:
 145:src/Interrupt.cpp ****         uint64 handle = arg1,init = arg2,res;
 146:src/Interrupt.cpp ****         (*(sem_t *)handle)->Sem = Sem::allocateSem();
 147:src/Interrupt.cpp ****         if((*(sem_t *)handle)->Sem == 0){
 148:src/Interrupt.cpp ****             res = -1;
 149:src/Interrupt.cpp ****             __asm__ volatile("mv a0,%0" : : "r"(res));
 150:src/Interrupt.cpp **** 
 151:src/Interrupt.cpp ****         } else {
 152:src/Interrupt.cpp ****             *(Sem *) (*(sem_t *) handle)->Sem = Sem((int) init);
 153:src/Interrupt.cpp ****             res = 0;
 154:src/Interrupt.cpp ****             __asm__ volatile("mv a0,%0" : : "r"(res));
 155:src/Interrupt.cpp ****         }
 156:src/Interrupt.cpp **** 
 157:src/Interrupt.cpp ****     }
 158:src/Interrupt.cpp ****     else if(opCode == 0x22){
 114              		.loc 1 158 10
 115              	.LBB265:
 116              	.LBB247:
 117              	.LBB230:
 118              	.LBB214:
 119              	.LBB200:
 120              	.LBB185:
 121              	.LBB174:
 122              	.LBB105:
 123 006c 93072002 		li	a5,34
 124 0070 6306F530 		beq	a0,a5,.L39
 125              	.LBE105:
 126              	.LBE174:
 127              	.LBE185:
 128              	.LBE200:
GAS LISTING /tmp/ccCs0PLf.s 			page 6


 129              	.LBE214:
 130              	.LBE230:
 131              	.LBE247:
 132              	.LBE265:
 159:src/Interrupt.cpp ****         uint64 handle = arg1,res;
 160:src/Interrupt.cpp ****         if((Sem*)((sem_t)handle)->Sem!= nullptr) {
 161:src/Interrupt.cpp ****             ((Sem *) ((sem_t ) handle)->Sem)->deblockAll();
 162:src/Interrupt.cpp ****             res = 0;
 163:src/Interrupt.cpp ****             __asm__ volatile("mv a0,%0" : : "r"(res));
 164:src/Interrupt.cpp **** 
 165:src/Interrupt.cpp ****         }
 166:src/Interrupt.cpp ****         else {
 167:src/Interrupt.cpp ****             res = -1;
 168:src/Interrupt.cpp ****             __asm__ volatile("mv a0,%0" : : "r"(res));
 169:src/Interrupt.cpp ****         }
 170:src/Interrupt.cpp ****     }
 171:src/Interrupt.cpp ****     else if(opCode == 0x23){
 133              		.loc 1 171 10
 134              	.LBB266:
 135              	.LBB248:
 136              	.LBB231:
 137              	.LBB215:
 138              	.LBB201:
 139              	.LBB186:
 140              	.LBB175:
 141              	.LBB164:
 142              	.LBB106:
 143 0074 93073002 		li	a5,35
 144 0078 6306F532 		beq	a0,a5,.L40
 145              	.LBE106:
 146              	.LBE164:
 147              	.LBE175:
 148              	.LBE186:
 149              	.LBE201:
 150              	.LBE215:
 151              	.LBE231:
 152              	.LBE248:
 153              	.LBE266:
 172:src/Interrupt.cpp ****         uint64 handle = arg1,res;
 173:src/Interrupt.cpp ****         if((Sem*)((sem_t)handle)->Sem!= nullptr) {
 174:src/Interrupt.cpp ****             ((Sem *) ((sem_t ) handle)->Sem)->wait();
 175:src/Interrupt.cpp ****             if(!PCB::running->unblockError) {
 176:src/Interrupt.cpp ****                 res = 0;
 177:src/Interrupt.cpp ****                 __asm__ volatile("mv a0,%0" : : "r"(res));
 178:src/Interrupt.cpp **** 
 179:src/Interrupt.cpp ****             } else{
 180:src/Interrupt.cpp ****                 res = -2;
 181:src/Interrupt.cpp ****                 __asm__ volatile("mv a0,%0" : : "r"(res));
 182:src/Interrupt.cpp **** 
 183:src/Interrupt.cpp ****             }
 184:src/Interrupt.cpp ****         } else {
 185:src/Interrupt.cpp ****             res = -1;
 186:src/Interrupt.cpp ****             __asm__ volatile("mv a0,%0" : : "r"(res));
 187:src/Interrupt.cpp ****         }
 188:src/Interrupt.cpp ****     }
 189:src/Interrupt.cpp ****     else if(opCode == 0x24){
 154              		.loc 1 189 10
GAS LISTING /tmp/ccCs0PLf.s 			page 7


 155              	.LBB267:
 156              	.LBB249:
 157              	.LBB232:
 158              	.LBB216:
 159              	.LBB202:
 160              	.LBB187:
 161              	.LBB176:
 162              	.LBB165:
 163              	.LBB155:
 164              	.LBB107:
 165 007c 93074002 		li	a5,36
 166 0080 6304F536 		beq	a0,a5,.L41
 167              	.LBE107:
 168              	.LBE155:
 169              	.LBE165:
 170              	.LBE176:
 171              	.LBE187:
 172              	.LBE202:
 173              	.LBE216:
 174              	.LBE232:
 175              	.LBE249:
 176              	.LBE267:
 190:src/Interrupt.cpp ****         uint64 handle = arg1,res;
 191:src/Interrupt.cpp ****         if((Sem*)((sem_t)handle)->Sem!= nullptr) {
 192:src/Interrupt.cpp ****             ((Sem *) ((sem_t ) handle)->Sem)->signal();
 193:src/Interrupt.cpp ****             res = 0;
 194:src/Interrupt.cpp ****             __asm__ volatile("mv a0,%0" : : "r"(res));
 195:src/Interrupt.cpp ****         }
 196:src/Interrupt.cpp ****         else {
 197:src/Interrupt.cpp ****             res = -1;
 198:src/Interrupt.cpp ****             __asm__ volatile("mv a0,%0" : : "r"(res));
 199:src/Interrupt.cpp ****         }
 200:src/Interrupt.cpp **** 
 201:src/Interrupt.cpp **** 
 202:src/Interrupt.cpp ****     } else if(opCode == 0x31){
 177              		.loc 1 202 12
 178              	.LBB268:
 179              	.LBB250:
 180              	.LBB233:
 181              	.LBB217:
 182              	.LBB203:
 183              	.LBB188:
 184              	.LBB177:
 185              	.LBB166:
 186              	.LBB156:
 187              	.LBB147:
 188              	.LBB108:
 189 0084 93071003 		li	a5,49
 190 0088 6304F538 		beq	a0,a5,.L42
 191              	.LBE108:
 192              	.LBE147:
 193              	.LBE156:
 194              	.LBE166:
 195              	.LBE177:
 196              	.LBE188:
 197              	.LBE203:
 198              	.LBE217:
GAS LISTING /tmp/ccCs0PLf.s 			page 8


 199              	.LBE233:
 200              	.LBE250:
 201              	.LBE268:
 203:src/Interrupt.cpp ****         uint64 time = arg1,res;
 204:src/Interrupt.cpp ****         PCB::sleep((time_t) time);
 205:src/Interrupt.cpp ****         PCB::timeLeft = 0;
 206:src/Interrupt.cpp ****         PCB::dispatch();
 207:src/Interrupt.cpp ****         res = 0;
 208:src/Interrupt.cpp ****         __asm__ volatile("mv a0,%0" : : "r"(res));
 209:src/Interrupt.cpp **** 
 210:src/Interrupt.cpp ****     }
 211:src/Interrupt.cpp ****     else if(opCode == 0x41){
 202              		.loc 1 211 10
 203              	.LBB269:
 204              	.LBB251:
 205              	.LBB234:
 206              	.LBB218:
 207              	.LBB204:
 208              	.LBB189:
 209              	.LBB178:
 210              	.LBB167:
 211              	.LBB157:
 212              	.LBB148:
 213              	.LBB140:
 214              	.LBB109:
 215 008c 93071004 		li	a5,65
 216 0090 6306F53A 		beq	a0,a5,.L43
 217              	.LBE109:
 218              	.LBE140:
 219              	.LBE148:
 220              	.LBE157:
 221              	.LBE167:
 222              	.LBE178:
 223              	.LBE189:
 224              	.LBE204:
 225              	.LBE218:
 226              	.LBE234:
 227              	.LBE251:
 228              	.LBE269:
 212:src/Interrupt.cpp ****         uint64 chr;
 213:src/Interrupt.cpp ****         char c = Cons::inputBuffer->get();
 214:src/Interrupt.cpp ****         chr = (uint64)c;
 215:src/Interrupt.cpp ****         __asm__ volatile("mv a0,%0" : : "r"(chr));
 216:src/Interrupt.cpp ****     }
 217:src/Interrupt.cpp ****     else if(opCode == 0x42){
 229              		.loc 1 217 10
 230              	.LBB270:
 231              	.LBB252:
 232              	.LBB235:
 233              	.LBB219:
 234              	.LBB205:
 235              	.LBB190:
 236              	.LBB179:
 237              	.LBB168:
 238              	.LBB158:
 239              	.LBB149:
 240              	.LBB141:
GAS LISTING /tmp/ccCs0PLf.s 			page 9


 241              	.LBB134:
 242              	.LBB110:
 243 0094 93072004 		li	a5,66
 244 0098 6300F53C 		beq	a0,a5,.L44
 245              	.LBE110:
 246              	.LBE134:
 247              	.LBE141:
 248              	.LBE149:
 249              	.LBE158:
 250              	.LBE168:
 251              	.LBE179:
 252              	.LBE190:
 253              	.LBE205:
 254              	.LBE219:
 255              	.LBE235:
 256              	.LBE252:
 257              	.LBE270:
 218:src/Interrupt.cpp ****         uint64 chr = arg1;
 219:src/Interrupt.cpp ****         Cons::outputBuffer->put((char)chr);
 220:src/Interrupt.cpp **** 
 221:src/Interrupt.cpp ****     }
 222:src/Interrupt.cpp ****     else if(opCode == 0x50){
 258              		.loc 1 222 10
 259              	.LBB271:
 260              	.LBB253:
 261              	.LBB236:
 262              	.LBB220:
 263              	.LBB206:
 264              	.LBB191:
 265              	.LBB180:
 266              	.LBB169:
 267              	.LBB159:
 268              	.LBB150:
 269              	.LBB142:
 270              	.LBB135:
 271              	.LBB129:
 272              	.LBB111:
 273 009c 93070005 		li	a5,80
 274 00a0 630AF53C 		beq	a0,a5,.L45
 275              	.LBE111:
 276              	.LBE129:
 277              	.LBE135:
 278              	.LBE142:
 279              	.LBE150:
 280              	.LBE159:
 281              	.LBE169:
 282              	.LBE180:
 283              	.LBE191:
 284              	.LBE206:
 285              	.LBE220:
 286              	.LBE236:
 287              	.LBE253:
 288              	.LBE271:
 223:src/Interrupt.cpp ****         mc_status(SSTATUS_SPP);
 224:src/Interrupt.cpp ****     }
 225:src/Interrupt.cpp ****     else if(opCode == 0x55){
 289              		.loc 1 225 10
GAS LISTING /tmp/ccCs0PLf.s 			page 10


 290              	.LBB272:
 291              	.LBB254:
 292              	.LBB237:
 293              	.LBB221:
 294              	.LBB207:
 295              	.LBB192:
 296              	.LBB181:
 297              	.LBB170:
 298              	.LBB160:
 299              	.LBB151:
 300              	.LBB143:
 301              	.LBB136:
 302              	.LBB130:
 303              	.LBB125:
 304              	.LBB112:
 305 00a4 93075005 		li	a5,85
 306 00a8 630CF53C 		beq	a0,a5,.L46
 307              	.LBE112:
 308              	.LBE125:
 309              	.LBE130:
 310              	.LBE136:
 311              	.LBE143:
 312              	.LBE151:
 313              	.LBE160:
 314              	.LBE170:
 315              	.LBE181:
 316              	.LBE192:
 317              	.LBE207:
 318              	.LBE221:
 319              	.LBE237:
 320              	.LBE254:
 321              	.LBE272:
 226:src/Interrupt.cpp ****         uint64 handle = arg1;
 227:src/Interrupt.cpp ****         ((PCB *) (*(thread_t *) handle)->PCB)->isPeriodic = true;
 228:src/Interrupt.cpp **** 
 229:src/Interrupt.cpp ****     }
 230:src/Interrupt.cpp ****     else if(opCode == 0x56){
 322              		.loc 1 230 10
 323              	.LBB273:
 324              	.LBB255:
 325              	.LBB238:
 326              	.LBB222:
 327              	.LBB208:
 328              	.LBB193:
 329              	.LBB182:
 330              	.LBB171:
 331              	.LBB161:
 332              	.LBB152:
 333              	.LBB144:
 334              	.LBB137:
 335              	.LBB131:
 336              	.LBB126:
 337              	.LBB121:
 338              	.LBB113:
 339 00ac 93076005 		li	a5,86
 340 00b0 631AF504 		bne	a0,a5,.L1
 341              	.LBB114:
GAS LISTING /tmp/ccCs0PLf.s 			page 11


 231:src/Interrupt.cpp ****         if(PCB::isPeriodicBlocked) {
 342              		.loc 1 231 9
 343              	.LBB115:
 344 00b4 97070000 		la	a5,_ZN3PCB17isPeriodicBlockedE
 344      83B70700 
 345 00bc 83C70700 		lbu	a5,0(a5)
 346 00c0 639A073C 		bnez	a5,.L47
 232:src/Interrupt.cpp ****             PCB::isPeriodicBlocked = false;
 233:src/Interrupt.cpp ****             PCB* periodicThread = PCB::perioThreads->get();
 234:src/Interrupt.cpp ****             while (periodicThread != nullptr) {
 235:src/Interrupt.cpp ****                 Scheduler::put(periodicThread);
 236:src/Interrupt.cpp ****                 periodicThread = PCB::perioThreads->get();
 237:src/Interrupt.cpp ****             }
 238:src/Interrupt.cpp ****         }
 239:src/Interrupt.cpp ****         else PCB::isPeriodicBlocked = true;
 347              		.loc 1 239 14
 348              		.loc 1 239 37 is_stmt 0
 349 00c4 97070000 		la	a5,_ZN3PCB17isPeriodicBlockedE
 349      83B70700 
 350 00cc 13071000 		li	a4,1
 351              	.LVL1:
 352 00d0 2380E700 		sb	a4,0(a5)
 353              	.LVL2:
 354              	.L29:
 355              	.LBE115:
 240:src/Interrupt.cpp ****         PCB::dispatch();
 356              		.loc 1 240 9 is_stmt 1
 357              		.loc 1 240 22 is_stmt 0
 358 00d4 97000000 		call	_ZN3PCB8dispatchEv@plt
 358      E7800000 
 359              	.LVL3:
 360              	.LBE114:
 361              	.LBE113:
 362              	.LBE121:
 363              	.LBE126:
 364              	.LBE131:
 365              	.LBE137:
 366              	.LBE144:
 367              	.LBE152:
 368              	.LBE161:
 369              	.LBE171:
 370              	.LBE182:
 371              	.LBE193:
 372              	.LBE208:
 373              	.LBE222:
 374              	.LBE238:
 375              	.LBE255:
 376              	.LBE273:
 241:src/Interrupt.cpp ****     }
 242:src/Interrupt.cpp ****     //switchToUserStack();
 243:src/Interrupt.cpp **** }
 377              		.loc 1 243 1
 378 00dc 6F008002 		j	.L1
 379              	.LVL4:
 380              	.L32:
 381              	.LBB274:
 382              	.LBB256:
GAS LISTING /tmp/ccCs0PLf.s 			page 12


  78:src/Interrupt.cpp ****         size*=MEM_BLOCK_SIZE;
 383              		.loc 1 78 9 is_stmt 1
  79:src/Interrupt.cpp ****         void* retAdr = MemoryAllocator::mem_alloc((size_t) size);
 384              		.loc 1 79 9
  80:src/Interrupt.cpp ****         long* header = (long*) retAdr;
 385              		.loc 1 80 9
  80:src/Interrupt.cpp ****         long* header = (long*) retAdr;
 386              		.loc 1 80 50 is_stmt 0
 387 00e0 13956500 		slli	a0,a1,6
 388              	.LVL5:
 389 00e4 97000000 		call	_ZN15MemoryAllocator9mem_allocEm@plt
 389      E7800000 
 390              	.LVL6:
  81:src/Interrupt.cpp ****         size/=MEM_BLOCK_SIZE;
 391              		.loc 1 81 9 is_stmt 1
  82:src/Interrupt.cpp ****         *header = size;
 392              		.loc 1 82 9
  82:src/Interrupt.cpp ****         *header = size;
 393              		.loc 1 82 13 is_stmt 0
 394 00ec 9305F0FF 		li	a1,-1
 395 00f0 93D56500 		srli	a1,a1,6
 396 00f4 B3F5B400 		and	a1,s1,a1
 397              	.LVL7:
  83:src/Interrupt.cpp ****         header++;
 398              		.loc 1 83 9 is_stmt 1
  83:src/Interrupt.cpp ****         header++;
 399              		.loc 1 83 17 is_stmt 0
 400 00f8 2330B500 		sd	a1,0(a0)
  84:src/Interrupt.cpp ****         __asm__ volatile("mv a0,%0" : : "r"((uint64)header));
 401              		.loc 1 84 9 is_stmt 1
  84:src/Interrupt.cpp ****         __asm__ volatile("mv a0,%0" : : "r"((uint64)header));
 402              		.loc 1 84 15 is_stmt 0
 403 00fc 13058500 		addi	a0,a0,8
 404              	.LVL8:
  85:src/Interrupt.cpp **** 
 405              		.loc 1 85 9 is_stmt 1
  85:src/Interrupt.cpp **** 
 406              		.loc 1 85 61 is_stmt 0
 407              	#APP
 408              	# 85 "src/Interrupt.cpp" 1
 409              		mv a0,a0
 410              	# 0 "" 2
 411              	.LVL9:
 412              	#NO_APP
 413              	.L1:
 414              	.LBE256:
 415              	.LBE274:
 416              		.loc 1 243 1
 417 0104 8330810A 		ld	ra,168(sp)
 418              		.cfi_remember_state
 419              		.cfi_restore 1
 420 0108 0334010A 		ld	s0,160(sp)
 421              		.cfi_restore 8
 422              		.cfi_def_cfa 2, 176
 423 010c 83348109 		ld	s1,152(sp)
 424              		.cfi_restore 9
 425              	.LVL10:
GAS LISTING /tmp/ccCs0PLf.s 			page 13


 426 0110 03390109 		ld	s2,144(sp)
 427              		.cfi_restore 18
 428 0114 83398108 		ld	s3,136(sp)
 429              		.cfi_restore 19
 430 0118 033A0108 		ld	s4,128(sp)
 431              		.cfi_restore 20
 432 011c 833A8107 		ld	s5,120(sp)
 433              		.cfi_restore 21
 434 0120 1301010B 		addi	sp,sp,176
 435              		.cfi_def_cfa_offset 0
 436 0124 67800000 		jr	ra
 437              	.LVL11:
 438              	.L33:
 439              		.cfi_restore_state
 440              	.LBB275:
 441              	.LBB257:
 442              	.LBB239:
  90:src/Interrupt.cpp ****         int res = MemoryAllocator::mem_free((void*) adr);
 443              		.loc 1 90 9 is_stmt 1
  91:src/Interrupt.cpp ****         __asm__ volatile("mv a0,%0" : : "r"((uint64)res));
 444              		.loc 1 91 9
  91:src/Interrupt.cpp ****         __asm__ volatile("mv a0,%0" : : "r"((uint64)res));
 445              		.loc 1 91 44 is_stmt 0
 446 0128 13850500 		mv	a0,a1
 447              	.LVL12:
 448 012c 97000000 		call	_ZN15MemoryAllocator8mem_freeEPv@plt
 448      E7800000 
 449              	.LVL13:
  92:src/Interrupt.cpp **** 
 450              		.loc 1 92 9 is_stmt 1
  92:src/Interrupt.cpp **** 
 451              		.loc 1 92 58 is_stmt 0
 452              	#APP
 453              	# 92 "src/Interrupt.cpp" 1
 454              		mv a0,a0
 455              	# 0 "" 2
 456              	#NO_APP
 457              	.LBE239:
 458 0138 6FF0DFFC 		j	.L1
 459              	.LVL14:
 460              	.L34:
 461              	.LBB240:
 462              	.LBB223:
  96:src/Interrupt.cpp ****         (*(thread_t*)handle)->PCB = PCB::allocatePCB();
 463              		.loc 1 96 9 is_stmt 1
  97:src/Interrupt.cpp ****         if((*(thread_t*)handle)->PCB == 0){
 464              		.loc 1 97 9
  97:src/Interrupt.cpp ****         if((*(thread_t*)handle)->PCB == 0){
 465              		.loc 1 97 10 is_stmt 0
 466 013c 83BA0500 		ld	s5,0(a1)
  97:src/Interrupt.cpp ****         if((*(thread_t*)handle)->PCB == 0){
 467              		.loc 1 97 53
 468 0140 97000000 		call	_ZN3PCB11allocatePCBEv@plt
 468      E7800000 
 469              	.LVL15:
  97:src/Interrupt.cpp ****         if((*(thread_t*)handle)->PCB == 0){
 470              		.loc 1 97 35
GAS LISTING /tmp/ccCs0PLf.s 			page 14


 471 0148 23B0AA00 		sd	a0,0(s5)
  98:src/Interrupt.cpp ****             res = -1;
 472              		.loc 1 98 9 is_stmt 1
  98:src/Interrupt.cpp ****             res = -1;
 473              		.loc 1 98 13 is_stmt 0
 474 014c 83B70400 		ld	a5,0(s1)
  98:src/Interrupt.cpp ****             res = -1;
 475              		.loc 1 98 34
 476 0150 83B70700 		ld	a5,0(a5)
  98:src/Interrupt.cpp ****             res = -1;
 477              		.loc 1 98 9
 478 0154 63860708 		beqz	a5,.L48
 104:src/Interrupt.cpp ****                                                        DEFAULT_TIME_SLICE);
 479              		.loc 1 104 13 is_stmt 1
 104:src/Interrupt.cpp ****                                                        DEFAULT_TIME_SLICE);
 480              		.loc 1 104 52 is_stmt 0
 481 0158 13072000 		li	a4,2
 482 015c 93060A00 		mv	a3,s4
 483 0160 13860900 		mv	a2,s3
 484 0164 93050900 		mv	a1,s2
 485 0168 130584F5 		addi	a0,s0,-168
 486 016c 97000000 		call	_ZN3PCBC1EPFvPvES0_Pmm@plt
 486      E7800000 
 487              	.LVL16:
 104:src/Interrupt.cpp ****                                                        DEFAULT_TIME_SLICE);
 488              		.loc 1 104 23
 489 0174 83B70400 		ld	a5,0(s1)
 104:src/Interrupt.cpp ****                                                        DEFAULT_TIME_SLICE);
 490              		.loc 1 104 46
 491 0178 83B70700 		ld	a5,0(a5)
 104:src/Interrupt.cpp ****                                                        DEFAULT_TIME_SLICE);
 492              		.loc 1 104 50
 493 017c 833E04F6 		ld	t4,-160(s0)
 494 0180 033E84F6 		ld	t3,-152(s0)
 495 0184 033304F7 		ld	t1,-144(s0)
 496 0188 833884F7 		ld	a7,-136(s0)
 497 018c 033804F8 		ld	a6,-128(s0)
 498 0190 033584F8 		ld	a0,-120(s0)
 499 0194 833504F9 		ld	a1,-112(s0)
 500 0198 033684F9 		ld	a2,-104(s0)
 501 019c 833604FA 		ld	a3,-96(s0)
 502 01a0 033784FA 		ld	a4,-88(s0)
 503 01a4 033F84F5 		ld	t5,-168(s0)
 504 01a8 23B0E701 		sd	t5,0(a5)
 505 01ac 23B4D701 		sd	t4,8(a5)
 506 01b0 23B8C701 		sd	t3,16(a5)
 507 01b4 23BC6700 		sd	t1,24(a5)
 508 01b8 23B01703 		sd	a7,32(a5)
 509 01bc 23B40703 		sd	a6,40(a5)
 510 01c0 23B8A702 		sd	a0,48(a5)
 511 01c4 23BCB702 		sd	a1,56(a5)
 512 01c8 23B0C704 		sd	a2,64(a5)
 513 01cc 23B4D704 		sd	a3,72(a5)
 514 01d0 23B8E704 		sd	a4,80(a5)
 106:src/Interrupt.cpp ****             __asm__ volatile("mv a0,%0" : : "r"(res));
 515              		.loc 1 106 13 is_stmt 1
 516              	.LVL17:
GAS LISTING /tmp/ccCs0PLf.s 			page 15


 107:src/Interrupt.cpp ****         }
 517              		.loc 1 107 13
 107:src/Interrupt.cpp ****         }
 518              		.loc 1 107 54 is_stmt 0
 519 01d4 93070000 		li	a5,0
 520              	#APP
 521              	# 107 "src/Interrupt.cpp" 1
 522              		mv a0,a5
 523              	# 0 "" 2
 524              	#NO_APP
 525 01dc 6FF09FF2 		j	.L1
 526              	.LVL18:
 527              	.L48:
  99:src/Interrupt.cpp ****             __asm__ volatile("mv a0,%0" : : "r"(res));
 528              		.loc 1 99 13 is_stmt 1
 100:src/Interrupt.cpp **** 
 529              		.loc 1 100 13
 100:src/Interrupt.cpp **** 
 530              		.loc 1 100 54 is_stmt 0
 531 01e0 9307F0FF 		li	a5,-1
 532              	#APP
 533              	# 100 "src/Interrupt.cpp" 1
 534              		mv a0,a5
 535              	# 0 "" 2
 536              	#NO_APP
 537 01e8 6FF0DFF1 		j	.L1
 538              	.LVL19:
 539              	.L35:
 540              	.LBE223:
 541              	.LBB224:
 542              	.LBB209:
 111:src/Interrupt.cpp ****         (*(thread_t *) handle)->PCB = PCB::allocatePCB();
 543              		.loc 1 111 9 is_stmt 1
 112:src/Interrupt.cpp ****         if ((*(thread_t *) handle)->PCB == 0) {
 544              		.loc 1 112 9
 112:src/Interrupt.cpp ****         if ((*(thread_t *) handle)->PCB == 0) {
 545              		.loc 1 112 10 is_stmt 0
 546 01ec 83BA0500 		ld	s5,0(a1)
 112:src/Interrupt.cpp ****         if ((*(thread_t *) handle)->PCB == 0) {
 547              		.loc 1 112 55
 548 01f0 97000000 		call	_ZN3PCB11allocatePCBEv@plt
 548      E7800000 
 549              	.LVL20:
 112:src/Interrupt.cpp ****         if ((*(thread_t *) handle)->PCB == 0) {
 550              		.loc 1 112 37
 551 01f8 23B0AA00 		sd	a0,0(s5)
 113:src/Interrupt.cpp ****             res = -1;
 552              		.loc 1 113 9 is_stmt 1
 113:src/Interrupt.cpp ****             res = -1;
 553              		.loc 1 113 14 is_stmt 0
 554 01fc 83B70400 		ld	a5,0(s1)
 113:src/Interrupt.cpp ****             res = -1;
 555              		.loc 1 113 37
 556 0200 83B70700 		ld	a5,0(a5)
 113:src/Interrupt.cpp ****             res = -1;
 557              		.loc 1 113 9
 558 0204 6386070A 		beqz	a5,.L49
GAS LISTING /tmp/ccCs0PLf.s 			page 16


 118:src/Interrupt.cpp ****                                                        DEFAULT_TIME_SLICE);
 559              		.loc 1 118 13 is_stmt 1
 118:src/Interrupt.cpp ****                                                        DEFAULT_TIME_SLICE);
 560              		.loc 1 118 52 is_stmt 0
 561 0208 13072000 		li	a4,2
 562 020c 93060A00 		mv	a3,s4
 563 0210 13860900 		mv	a2,s3
 564 0214 93050900 		mv	a1,s2
 565 0218 130584F5 		addi	a0,s0,-168
 566 021c 97000000 		call	_ZN3PCBC1EPFvPvES0_Pmm@plt
 566      E7800000 
 567              	.LVL21:
 118:src/Interrupt.cpp ****                                                        DEFAULT_TIME_SLICE);
 568              		.loc 1 118 23
 569 0224 83B70400 		ld	a5,0(s1)
 118:src/Interrupt.cpp ****                                                        DEFAULT_TIME_SLICE);
 570              		.loc 1 118 46
 571 0228 83B70700 		ld	a5,0(a5)
 118:src/Interrupt.cpp ****                                                        DEFAULT_TIME_SLICE);
 572              		.loc 1 118 50
 573 022c 833E04F6 		ld	t4,-160(s0)
 574 0230 033E84F6 		ld	t3,-152(s0)
 575 0234 033304F7 		ld	t1,-144(s0)
 576 0238 833884F7 		ld	a7,-136(s0)
 577 023c 033804F8 		ld	a6,-128(s0)
 578 0240 033584F8 		ld	a0,-120(s0)
 579 0244 833504F9 		ld	a1,-112(s0)
 580 0248 033684F9 		ld	a2,-104(s0)
 581 024c 833604FA 		ld	a3,-96(s0)
 582 0250 033784FA 		ld	a4,-88(s0)
 583 0254 033F84F5 		ld	t5,-168(s0)
 584 0258 23B0E701 		sd	t5,0(a5)
 585 025c 23B4D701 		sd	t4,8(a5)
 586 0260 23B8C701 		sd	t3,16(a5)
 587 0264 23BC6700 		sd	t1,24(a5)
 588 0268 23B01703 		sd	a7,32(a5)
 589 026c 23B40703 		sd	a6,40(a5)
 590 0270 23B8A702 		sd	a0,48(a5)
 591 0274 23BCB702 		sd	a1,56(a5)
 592 0278 23B0C704 		sd	a2,64(a5)
 593 027c 23B4D704 		sd	a3,72(a5)
 594 0280 23B8E704 		sd	a4,80(a5)
 120:src/Interrupt.cpp ****                 PCB::running = (PCB *) (*(thread_t *) handle)->PCB;
 595              		.loc 1 120 13 is_stmt 1
 120:src/Interrupt.cpp ****                 PCB::running = (PCB *) (*(thread_t *) handle)->PCB;
 596              		.loc 1 120 30 is_stmt 0
 597 0284 97070000 		la	a5,_ZN3PCB7runningE
 597      83B70700 
 598 028c 83B70700 		ld	a5,0(a5)
 120:src/Interrupt.cpp ****                 PCB::running = (PCB *) (*(thread_t *) handle)->PCB;
 599              		.loc 1 120 13
 600 0290 63860702 		beqz	a5,.L50
 123:src/Interrupt.cpp ****             }
 601              		.loc 1 123 17 is_stmt 1
 123:src/Interrupt.cpp ****             }
 602              		.loc 1 123 41 is_stmt 0
 603 0294 83B70400 		ld	a5,0(s1)
GAS LISTING /tmp/ccCs0PLf.s 			page 17


 123:src/Interrupt.cpp ****             }
 604              		.loc 1 123 31
 605 0298 03B50700 		ld	a0,0(a5)
 606 029c 97000000 		call	_ZN9Scheduler3putEP3PCB@plt
 606      E7800000 
 607              	.LVL22:
 608              	.L10:
 125:src/Interrupt.cpp ****             __asm__ volatile("mv a0,%0" : : "r"(res));
 609              		.loc 1 125 13 is_stmt 1
 126:src/Interrupt.cpp ****         }
 610              		.loc 1 126 13
 126:src/Interrupt.cpp ****         }
 611              		.loc 1 126 54 is_stmt 0
 612 02a4 93070000 		li	a5,0
 613              	#APP
 614              	# 126 "src/Interrupt.cpp" 1
 615              		mv a0,a5
 616              	# 0 "" 2
 617              	#NO_APP
 618 02ac 6FF09FE5 		j	.L1
 619              	.LVL23:
 620              	.L49:
 114:src/Interrupt.cpp ****             __asm__ volatile("mv a0,%0" : : "r"(res));
 621              		.loc 1 114 13 is_stmt 1
 115:src/Interrupt.cpp **** 
 622              		.loc 1 115 13
 115:src/Interrupt.cpp **** 
 623              		.loc 1 115 54 is_stmt 0
 624 02b0 9307F0FF 		li	a5,-1
 625              	#APP
 626              	# 115 "src/Interrupt.cpp" 1
 627              		mv a0,a5
 628              	# 0 "" 2
 629              	#NO_APP
 630 02b8 6FF0DFE4 		j	.L1
 631              	.LVL24:
 632              	.L50:
 121:src/Interrupt.cpp ****             } else {
 633              		.loc 1 121 17 is_stmt 1
 121:src/Interrupt.cpp ****             } else {
 634              		.loc 1 121 41 is_stmt 0
 635 02bc 83B70400 		ld	a5,0(s1)
 121:src/Interrupt.cpp ****             } else {
 636              		.loc 1 121 64
 637 02c0 03B70700 		ld	a4,0(a5)
 121:src/Interrupt.cpp ****             } else {
 638              		.loc 1 121 30
 639 02c4 97070000 		la	a5,_ZN3PCB7runningE
 639      83B70700 
 640 02cc 23B0E700 		sd	a4,0(a5)
 641 02d0 6FF05FFD 		j	.L10
 642              	.LVL25:
 643              	.L36:
 644              	.LBE209:
 645              	.LBE224:
 646              	.LBE240:
 647              	.LBE257:
GAS LISTING /tmp/ccCs0PLf.s 			page 18


 648              	.LBE275:
 130:src/Interrupt.cpp ****             PCB::running->setFinished(true);
 649              		.loc 1 130 9 is_stmt 1
 650              	.LBB276:
 651              	.LBB258:
 652              	.LBB241:
 653              	.LBB225:
 654              	.LBB210:
 655              	.LBB194:
 130:src/Interrupt.cpp ****             PCB::running->setFinished(true);
 656              		.loc 1 130 24 is_stmt 0
 657 02d4 97070000 		la	a5,_ZN3PCB7runningE
 657      83B70700 
 658 02dc 03B50700 		ld	a0,0(a5)
 659              	.LVL26:
 130:src/Interrupt.cpp ****             PCB::running->setFinished(true);
 660              		.loc 1 130 9
 661 02e0 630E0500 		beqz	a0,.L12
 662              	.LBB195:
 131:src/Interrupt.cpp ****             uint64 res = 0;
 663              		.loc 1 131 13 is_stmt 1
 131:src/Interrupt.cpp ****             uint64 res = 0;
 664              		.loc 1 131 38 is_stmt 0
 665 02e4 93051000 		li	a1,1
 666 02e8 97000000 		call	_ZN3PCB11setFinishedEb@plt
 666      E7800000 
 667              	.LVL27:
 132:src/Interrupt.cpp ****             __asm__ volatile("mv a0,%0" : : "r"(res));
 668              		.loc 1 132 13 is_stmt 1
 133:src/Interrupt.cpp ****         } else {
 669              		.loc 1 133 13
 133:src/Interrupt.cpp ****         } else {
 670              		.loc 1 133 54 is_stmt 0
 671 02f0 93070000 		li	a5,0
 672              	#APP
 673              	# 133 "src/Interrupt.cpp" 1
 674              		mv a0,a5
 675              	# 0 "" 2
 676              	#NO_APP
 677              	.LBE195:
 678 02f8 6FF0DFE0 		j	.L1
 679              	.LVL28:
 680              	.L12:
 681              	.LBB196:
 135:src/Interrupt.cpp ****             __asm__ volatile("mv a0,%0" : : "r"(res));
 682              		.loc 1 135 13 is_stmt 1
 136:src/Interrupt.cpp ****         }
 683              		.loc 1 136 13
 136:src/Interrupt.cpp ****         }
 684              		.loc 1 136 54 is_stmt 0
 685 02fc 9307F0FF 		li	a5,-1
 686              	#APP
 687              	# 136 "src/Interrupt.cpp" 1
 688              		mv a0,a5
 689              	# 0 "" 2
 690              	#NO_APP
 691 0304 6FF01FE0 		j	.L1
GAS LISTING /tmp/ccCs0PLf.s 			page 19


 692              	.LVL29:
 693              	.L37:
 694              	.LBE196:
 695              	.LBE194:
 696              	.LBB197:
 141:src/Interrupt.cpp ****         PCB::dispatch();
 697              		.loc 1 141 9 is_stmt 1
 141:src/Interrupt.cpp ****         PCB::dispatch();
 698              		.loc 1 141 23 is_stmt 0
 699 0308 97070000 		la	a5,_ZN3PCB8timeLeftE
 699      83B70700 
 700 0310 23B00700 		sd	zero,0(a5)
 142:src/Interrupt.cpp ****     }
 701              		.loc 1 142 9 is_stmt 1
 142:src/Interrupt.cpp ****     }
 702              		.loc 1 142 22 is_stmt 0
 703 0314 97000000 		call	_ZN3PCB8dispatchEv@plt
 703      E7800000 
 704              	.LVL30:
 705 031c 6FF09FDE 		j	.L1
 706              	.LVL31:
 707              	.L38:
 708              	.LBB183:
 709              	.LBB172:
 145:src/Interrupt.cpp ****         (*(sem_t *)handle)->Sem = Sem::allocateSem();
 710              		.loc 1 145 9 is_stmt 1
 146:src/Interrupt.cpp ****         if((*(sem_t *)handle)->Sem == 0){
 711              		.loc 1 146 9
 146:src/Interrupt.cpp ****         if((*(sem_t *)handle)->Sem == 0){
 712              		.loc 1 146 10 is_stmt 0
 713 0320 83B90500 		ld	s3,0(a1)
 146:src/Interrupt.cpp ****         if((*(sem_t *)handle)->Sem == 0){
 714              		.loc 1 146 51
 715 0324 97000000 		call	_ZN3Sem11allocateSemEv@plt
 715      E7800000 
 716              	.LVL32:
 146:src/Interrupt.cpp ****         if((*(sem_t *)handle)->Sem == 0){
 717              		.loc 1 146 33
 718 032c 23B0A900 		sd	a0,0(s3)
 147:src/Interrupt.cpp ****             res = -1;
 719              		.loc 1 147 9 is_stmt 1
 147:src/Interrupt.cpp ****             res = -1;
 720              		.loc 1 147 13 is_stmt 0
 721 0330 83B70400 		ld	a5,0(s1)
 147:src/Interrupt.cpp ****             res = -1;
 722              		.loc 1 147 32
 723 0334 83B70700 		ld	a5,0(a5)
 147:src/Interrupt.cpp ****             res = -1;
 724              		.loc 1 147 9
 725 0338 638C0702 		beqz	a5,.L51
 152:src/Interrupt.cpp ****             res = 0;
 726              		.loc 1 152 13 is_stmt 1
 152:src/Interrupt.cpp ****             res = 0;
 727              		.loc 1 152 49 is_stmt 0
 728 033c 9B050900 		sext.w	a1,s2
 729 0340 130504FB 		addi	a0,s0,-80
 730 0344 97000000 		call	_ZN3SemC1Ei@plt
GAS LISTING /tmp/ccCs0PLf.s 			page 20


 730      E7800000 
 731              	.LVL33:
 152:src/Interrupt.cpp ****             res = 0;
 732              		.loc 1 152 23
 733 034c 83B70400 		ld	a5,0(s1)
 152:src/Interrupt.cpp ****             res = 0;
 734              		.loc 1 152 43
 735 0350 83B70700 		ld	a5,0(a5)
 152:src/Interrupt.cpp ****             res = 0;
 736              		.loc 1 152 47
 737 0354 033704FB 		ld	a4,-80(s0)
 738 0358 23B0E700 		sd	a4,0(a5)
 739 035c 033784FB 		ld	a4,-72(s0)
 740 0360 23B4E700 		sd	a4,8(a5)
 153:src/Interrupt.cpp ****             __asm__ volatile("mv a0,%0" : : "r"(res));
 741              		.loc 1 153 13 is_stmt 1
 742              	.LVL34:
 154:src/Interrupt.cpp ****         }
 743              		.loc 1 154 13
 154:src/Interrupt.cpp ****         }
 744              		.loc 1 154 54 is_stmt 0
 745 0364 93070000 		li	a5,0
 746              	#APP
 747              	# 154 "src/Interrupt.cpp" 1
 748              		mv a0,a5
 749              	# 0 "" 2
 750              	#NO_APP
 751 036c 6FF09FD9 		j	.L1
 752              	.LVL35:
 753              	.L51:
 148:src/Interrupt.cpp ****             __asm__ volatile("mv a0,%0" : : "r"(res));
 754              		.loc 1 148 13 is_stmt 1
 149:src/Interrupt.cpp **** 
 755              		.loc 1 149 13
 149:src/Interrupt.cpp **** 
 756              		.loc 1 149 54 is_stmt 0
 757 0370 9307F0FF 		li	a5,-1
 758              	#APP
 759              	# 149 "src/Interrupt.cpp" 1
 760              		mv a0,a5
 761              	# 0 "" 2
 762              	#NO_APP
 763 0378 6FF0DFD8 		j	.L1
 764              	.LVL36:
 765              	.L39:
 766              	.LBE172:
 767              	.LBB173:
 768              	.LBB162:
 159:src/Interrupt.cpp ****         if((Sem*)((sem_t)handle)->Sem!= nullptr) {
 769              		.loc 1 159 9 is_stmt 1
 160:src/Interrupt.cpp ****             ((Sem *) ((sem_t ) handle)->Sem)->deblockAll();
 770              		.loc 1 160 9
 160:src/Interrupt.cpp ****             ((Sem *) ((sem_t ) handle)->Sem)->deblockAll();
 771              		.loc 1 160 35 is_stmt 0
 772 037c 03B50500 		ld	a0,0(a1)
 773              	.LVL37:
 160:src/Interrupt.cpp ****             ((Sem *) ((sem_t ) handle)->Sem)->deblockAll();
GAS LISTING /tmp/ccCs0PLf.s 			page 21


 774              		.loc 1 160 9
 775 0380 630C0500 		beqz	a0,.L17
 161:src/Interrupt.cpp ****             res = 0;
 776              		.loc 1 161 13 is_stmt 1
 161:src/Interrupt.cpp ****             res = 0;
 777              		.loc 1 161 57 is_stmt 0
 778 0384 97000000 		call	_ZN3Sem10deblockAllEv@plt
 778      E7800000 
 779              	.LVL38:
 162:src/Interrupt.cpp ****             __asm__ volatile("mv a0,%0" : : "r"(res));
 780              		.loc 1 162 13 is_stmt 1
 163:src/Interrupt.cpp **** 
 781              		.loc 1 163 13
 163:src/Interrupt.cpp **** 
 782              		.loc 1 163 54 is_stmt 0
 783 038c 93070000 		li	a5,0
 784              	#APP
 785              	# 163 "src/Interrupt.cpp" 1
 786              		mv a0,a5
 787              	# 0 "" 2
 788              	#NO_APP
 789 0394 6FF01FD7 		j	.L1
 790              	.LVL39:
 791              	.L17:
 167:src/Interrupt.cpp ****             __asm__ volatile("mv a0,%0" : : "r"(res));
 792              		.loc 1 167 13 is_stmt 1
 168:src/Interrupt.cpp ****         }
 793              		.loc 1 168 13
 168:src/Interrupt.cpp ****         }
 794              		.loc 1 168 54 is_stmt 0
 795 0398 9307F0FF 		li	a5,-1
 796              	#APP
 797              	# 168 "src/Interrupt.cpp" 1
 798              		mv a0,a5
 799              	# 0 "" 2
 800              	#NO_APP
 801 03a0 6FF05FD6 		j	.L1
 802              	.LVL40:
 803              	.L40:
 804              	.LBE162:
 805              	.LBB163:
 806              	.LBB153:
 172:src/Interrupt.cpp ****         if((Sem*)((sem_t)handle)->Sem!= nullptr) {
 807              		.loc 1 172 9 is_stmt 1
 173:src/Interrupt.cpp ****             ((Sem *) ((sem_t ) handle)->Sem)->wait();
 808              		.loc 1 173 9
 173:src/Interrupt.cpp ****             ((Sem *) ((sem_t ) handle)->Sem)->wait();
 809              		.loc 1 173 35 is_stmt 0
 810 03a4 03B50500 		ld	a0,0(a1)
 811              	.LVL41:
 173:src/Interrupt.cpp ****             ((Sem *) ((sem_t ) handle)->Sem)->wait();
 812              		.loc 1 173 9
 813 03a8 630A0502 		beqz	a0,.L19
 174:src/Interrupt.cpp ****             if(!PCB::running->unblockError) {
 814              		.loc 1 174 13 is_stmt 1
 174:src/Interrupt.cpp ****             if(!PCB::running->unblockError) {
 815              		.loc 1 174 51 is_stmt 0
GAS LISTING /tmp/ccCs0PLf.s 			page 22


 816 03ac 97000000 		call	_ZN3Sem4waitEv@plt
 816      E7800000 
 817              	.LVL42:
 175:src/Interrupt.cpp ****                 res = 0;
 818              		.loc 1 175 13 is_stmt 1
 175:src/Interrupt.cpp ****                 res = 0;
 819              		.loc 1 175 31 is_stmt 0
 820 03b4 97070000 		la	a5,_ZN3PCB7runningE
 820      83B70700 
 821 03bc 83B70700 		ld	a5,0(a5)
 822 03c0 83C70700 		lbu	a5,0(a5)
 175:src/Interrupt.cpp ****                 res = 0;
 823              		.loc 1 175 13
 824 03c4 63960700 		bnez	a5,.L20
 176:src/Interrupt.cpp ****                 __asm__ volatile("mv a0,%0" : : "r"(res));
 825              		.loc 1 176 17 is_stmt 1
 826              	.LVL43:
 177:src/Interrupt.cpp **** 
 827              		.loc 1 177 17
 177:src/Interrupt.cpp **** 
 828              		.loc 1 177 58 is_stmt 0
 829              	#APP
 830              	# 177 "src/Interrupt.cpp" 1
 831              		mv a0,a5
 832              	# 0 "" 2
 833              	#NO_APP
 834 03cc 6FF09FD3 		j	.L1
 835              	.LVL44:
 836              	.L20:
 180:src/Interrupt.cpp ****                 __asm__ volatile("mv a0,%0" : : "r"(res));
 837              		.loc 1 180 17 is_stmt 1
 181:src/Interrupt.cpp **** 
 838              		.loc 1 181 17
 181:src/Interrupt.cpp **** 
 839              		.loc 1 181 58 is_stmt 0
 840 03d0 9307E0FF 		li	a5,-2
 841              	#APP
 842              	# 181 "src/Interrupt.cpp" 1
 843              		mv a0,a5
 844              	# 0 "" 2
 845              	#NO_APP
 846 03d8 6FF0DFD2 		j	.L1
 847              	.LVL45:
 848              	.L19:
 185:src/Interrupt.cpp ****             __asm__ volatile("mv a0,%0" : : "r"(res));
 849              		.loc 1 185 13 is_stmt 1
 186:src/Interrupt.cpp ****         }
 850              		.loc 1 186 13
 186:src/Interrupt.cpp ****         }
 851              		.loc 1 186 54 is_stmt 0
 852 03dc 9307F0FF 		li	a5,-1
 853              	#APP
 854              	# 186 "src/Interrupt.cpp" 1
 855              		mv a0,a5
 856              	# 0 "" 2
 857              	#NO_APP
 858 03e4 6FF01FD2 		j	.L1
GAS LISTING /tmp/ccCs0PLf.s 			page 23


 859              	.LVL46:
 860              	.L41:
 861              	.LBE153:
 862              	.LBB154:
 863              	.LBB145:
 190:src/Interrupt.cpp ****         if((Sem*)((sem_t)handle)->Sem!= nullptr) {
 864              		.loc 1 190 9 is_stmt 1
 191:src/Interrupt.cpp ****             ((Sem *) ((sem_t ) handle)->Sem)->signal();
 865              		.loc 1 191 9
 191:src/Interrupt.cpp ****             ((Sem *) ((sem_t ) handle)->Sem)->signal();
 866              		.loc 1 191 35 is_stmt 0
 867 03e8 03B50500 		ld	a0,0(a1)
 868              	.LVL47:
 191:src/Interrupt.cpp ****             ((Sem *) ((sem_t ) handle)->Sem)->signal();
 869              		.loc 1 191 9
 870 03ec 630C0500 		beqz	a0,.L22
 192:src/Interrupt.cpp ****             res = 0;
 871              		.loc 1 192 13 is_stmt 1
 192:src/Interrupt.cpp ****             res = 0;
 872              		.loc 1 192 53 is_stmt 0
 873 03f0 97000000 		call	_ZN3Sem6signalEv@plt
 873      E7800000 
 874              	.LVL48:
 193:src/Interrupt.cpp ****             __asm__ volatile("mv a0,%0" : : "r"(res));
 875              		.loc 1 193 13 is_stmt 1
 194:src/Interrupt.cpp ****         }
 876              		.loc 1 194 13
 194:src/Interrupt.cpp ****         }
 877              		.loc 1 194 54 is_stmt 0
 878 03f8 93070000 		li	a5,0
 879              	#APP
 880              	# 194 "src/Interrupt.cpp" 1
 881              		mv a0,a5
 882              	# 0 "" 2
 883              	#NO_APP
 884 0400 6FF05FD0 		j	.L1
 885              	.LVL49:
 886              	.L22:
 197:src/Interrupt.cpp ****             __asm__ volatile("mv a0,%0" : : "r"(res));
 887              		.loc 1 197 13 is_stmt 1
 198:src/Interrupt.cpp ****         }
 888              		.loc 1 198 13
 198:src/Interrupt.cpp ****         }
 889              		.loc 1 198 54 is_stmt 0
 890 0404 9307F0FF 		li	a5,-1
 891              	#APP
 892              	# 198 "src/Interrupt.cpp" 1
 893              		mv a0,a5
 894              	# 0 "" 2
 895              	#NO_APP
 896 040c 6FF09FCF 		j	.L1
 897              	.LVL50:
 898              	.L42:
 899              	.LBE145:
 900              	.LBB146:
 901              	.LBB138:
 203:src/Interrupt.cpp ****         PCB::sleep((time_t) time);
GAS LISTING /tmp/ccCs0PLf.s 			page 24


 902              		.loc 1 203 9 is_stmt 1
 204:src/Interrupt.cpp ****         PCB::timeLeft = 0;
 903              		.loc 1 204 9
 204:src/Interrupt.cpp ****         PCB::timeLeft = 0;
 904              		.loc 1 204 19 is_stmt 0
 905 0410 13850500 		mv	a0,a1
 906              	.LVL51:
 907 0414 97000000 		call	_ZN3PCB5sleepEm@plt
 907      E7800000 
 908              	.LVL52:
 205:src/Interrupt.cpp ****         PCB::dispatch();
 909              		.loc 1 205 9 is_stmt 1
 205:src/Interrupt.cpp ****         PCB::dispatch();
 910              		.loc 1 205 23 is_stmt 0
 911 041c 97070000 		la	a5,_ZN3PCB8timeLeftE
 911      83B70700 
 912 0424 23B00700 		sd	zero,0(a5)
 206:src/Interrupt.cpp ****         res = 0;
 913              		.loc 1 206 9 is_stmt 1
 206:src/Interrupt.cpp ****         res = 0;
 914              		.loc 1 206 22 is_stmt 0
 915 0428 97000000 		call	_ZN3PCB8dispatchEv@plt
 915      E7800000 
 916              	.LVL53:
 207:src/Interrupt.cpp ****         __asm__ volatile("mv a0,%0" : : "r"(res));
 917              		.loc 1 207 9 is_stmt 1
 208:src/Interrupt.cpp **** 
 918              		.loc 1 208 9
 208:src/Interrupt.cpp **** 
 919              		.loc 1 208 50 is_stmt 0
 920 0430 93070000 		li	a5,0
 921              	#APP
 922              	# 208 "src/Interrupt.cpp" 1
 923              		mv a0,a5
 924              	# 0 "" 2
 925              	#NO_APP
 926              	.LBE138:
 927 0438 6FF0DFCC 		j	.L1
 928              	.LVL54:
 929              	.L43:
 930              	.LBB139:
 931              	.LBB132:
 212:src/Interrupt.cpp ****         char c = Cons::inputBuffer->get();
 932              		.loc 1 212 9 is_stmt 1
 213:src/Interrupt.cpp ****         chr = (uint64)c;
 933              		.loc 1 213 9
 213:src/Interrupt.cpp ****         chr = (uint64)c;
 934              		.loc 1 213 40 is_stmt 0
 935 043c 97070000 		la	a5,_ZN4Cons11inputBufferE
 935      83B70700 
 936 0444 03B50700 		ld	a0,0(a5)
 937              	.LVL55:
 938 0448 97000000 		call	_ZN10CharBuffer3getEv@plt
 938      E7800000 
 939              	.LVL56:
 214:src/Interrupt.cpp ****         __asm__ volatile("mv a0,%0" : : "r"(chr));
 940              		.loc 1 214 9 is_stmt 1
GAS LISTING /tmp/ccCs0PLf.s 			page 25


 215:src/Interrupt.cpp ****     }
 941              		.loc 1 215 9
 215:src/Interrupt.cpp ****     }
 942              		.loc 1 215 50 is_stmt 0
 943              	#APP
 944              	# 215 "src/Interrupt.cpp" 1
 945              		mv a0,a0
 946              	# 0 "" 2
 947              	#NO_APP
 948              	.LBE132:
 949 0454 6FF01FCB 		j	.L1
 950              	.LVL57:
 951              	.L44:
 952              	.LBB133:
 953              	.LBB127:
 218:src/Interrupt.cpp ****         Cons::outputBuffer->put((char)chr);
 954              		.loc 1 218 9 is_stmt 1
 219:src/Interrupt.cpp **** 
 955              		.loc 1 219 9
 219:src/Interrupt.cpp **** 
 956              		.loc 1 219 32 is_stmt 0
 957 0458 93F5F50F 		andi	a1,a1,0xff
 958 045c 97070000 		la	a5,_ZN4Cons12outputBufferE
 958      83B70700 
 959 0464 03B50700 		ld	a0,0(a5)
 960              	.LVL58:
 961 0468 97000000 		call	_ZN10CharBuffer3putEc@plt
 961      E7800000 
 962              	.LVL59:
 963              	.LBE127:
 964 0470 6FF05FC9 		j	.L1
 965              	.LVL60:
 966              	.L45:
 967              	.LBB128:
 223:src/Interrupt.cpp ****     }
 968              		.loc 1 223 9 is_stmt 1
 969              	.LBB122:
 970              	.LBB123:
 244:src/Interrupt.cpp **** 
 245:src/Interrupt.cpp **** inline void Interrupt::ms_status(uint64 mask) {
 246:src/Interrupt.cpp ****     __asm__ volatile("csrs sstatus, %[mask]" : : [mask]"r"(mask));
 247:src/Interrupt.cpp **** }
 248:src/Interrupt.cpp **** inline void Interrupt::mc_status(uint64 mask) {
 249:src/Interrupt.cpp ****     __asm__ volatile("csrc sstatus, %[mask]" : : [mask]"r"(mask));
 971              		.loc 1 249 5
 972              		.loc 1 249 66 is_stmt 0
 973 0474 93070010 		li	a5,256
 974              	#APP
 975              	# 249 "src/Interrupt.cpp" 1
 250              	}
 976              		csrc sstatus, a5
 977              	# 0 "" 2
 978              		.loc 1 250 1
 979              	#NO_APP
 980 047c 6FF09FC8 		j	.L1
 981              	.LVL61:
 982              	.L46:
GAS LISTING /tmp/ccCs0PLf.s 			page 26


 983              	.LBE123:
 984              	.LBE122:
 985              	.LBB124:
 986              	.LBB119:
 226:src/Interrupt.cpp ****         ((PCB *) (*(thread_t *) handle)->PCB)->isPeriodic = true;
 987              		.loc 1 226 9 is_stmt 1
 227:src/Interrupt.cpp **** 
 988              		.loc 1 227 9
 227:src/Interrupt.cpp **** 
 989              		.loc 1 227 19 is_stmt 0
 990 0480 83B70500 		ld	a5,0(a1)
 227:src/Interrupt.cpp **** 
 991              		.loc 1 227 42
 992 0484 83B70700 		ld	a5,0(a5)
 227:src/Interrupt.cpp **** 
 993              		.loc 1 227 59
 994 0488 13071000 		li	a4,1
 995              	.LVL62:
 996 048c A380E700 		sb	a4,1(a5)
 997              	.LBE119:
 998 0490 6FF05FC7 		j	.L1
 999              	.LVL63:
 1000              	.L47:
 1001              	.LBB120:
 1002              	.LBB118:
 1003              	.LBB117:
 1004              	.LBB116:
 232:src/Interrupt.cpp ****             PCB* periodicThread = PCB::perioThreads->get();
 1005              		.loc 1 232 13 is_stmt 1
 232:src/Interrupt.cpp ****             PCB* periodicThread = PCB::perioThreads->get();
 1006              		.loc 1 232 36 is_stmt 0
 1007 0494 97070000 		la	a5,_ZN3PCB17isPeriodicBlockedE
 1007      83B70700 
 1008 049c 23800700 		sb	zero,0(a5)
 233:src/Interrupt.cpp ****             while (periodicThread != nullptr) {
 1009              		.loc 1 233 13 is_stmt 1
 233:src/Interrupt.cpp ****             while (periodicThread != nullptr) {
 1010              		.loc 1 233 57 is_stmt 0
 1011 04a0 97070000 		la	a5,_ZN3PCB12perioThreadsE
 1011      83B70700 
 1012 04a8 03B50700 		ld	a0,0(a5)
 1013              	.LVL64:
 1014 04ac 97000000 		call	_ZN8PCB_List3getEv@plt
 1014      E7800000 
 1015              	.LVL65:
 1016              	.L30:
 234:src/Interrupt.cpp ****                 Scheduler::put(periodicThread);
 1017              		.loc 1 234 13 is_stmt 1
 234:src/Interrupt.cpp ****                 Scheduler::put(periodicThread);
 1018              		.loc 1 234 35
 1019 04b4 E30005C2 		beqz	a0,.L29
 235:src/Interrupt.cpp ****                 periodicThread = PCB::perioThreads->get();
 1020              		.loc 1 235 17
 235:src/Interrupt.cpp ****                 periodicThread = PCB::perioThreads->get();
 1021              		.loc 1 235 31 is_stmt 0
 1022 04b8 97000000 		call	_ZN9Scheduler3putEP3PCB@plt
 1022      E7800000 
GAS LISTING /tmp/ccCs0PLf.s 			page 27


 1023              	.LVL66:
 236:src/Interrupt.cpp ****             }
 1024              		.loc 1 236 17 is_stmt 1
 236:src/Interrupt.cpp ****             }
 1025              		.loc 1 236 56 is_stmt 0
 1026 04c0 97070000 		la	a5,_ZN3PCB12perioThreadsE
 1026      83B70700 
 1027 04c8 03B50700 		ld	a0,0(a5)
 1028 04cc 97000000 		call	_ZN8PCB_List3getEv@plt
 1028      E7800000 
 1029              	.LVL67:
 234:src/Interrupt.cpp ****                 Scheduler::put(periodicThread);
 1030              		.loc 1 234 13
 1031 04d4 6FF01FFE 		j	.L30
 1032              	.LBE116:
 1033              	.LBE117:
 1034              	.LBE118:
 1035              	.LBE120:
 1036              	.LBE124:
 1037              	.LBE128:
 1038              	.LBE133:
 1039              	.LBE139:
 1040              	.LBE146:
 1041              	.LBE154:
 1042              	.LBE163:
 1043              	.LBE173:
 1044              	.LBE183:
 1045              	.LBE197:
 1046              	.LBE210:
 1047              	.LBE225:
 1048              	.LBE241:
 1049              	.LBE258:
 1050              	.LBE276:
 1051              		.cfi_endproc
 1052              	.LFE11:
 1054              		.align	2
 1055              		.globl	_ZN9Interrupt8r_statusEv
 1057              	_ZN9Interrupt8r_statusEv:
 1058              	.LFB14:
 251:src/Interrupt.cpp **** 
 252:src/Interrupt.cpp **** uint64 Interrupt::r_status() {
 1059              		.loc 1 252 30 is_stmt 1
 1060              		.cfi_startproc
 1061 04d8 130101FF 		addi	sp,sp,-16
 1062              		.cfi_def_cfa_offset 16
 1063 04dc 23348100 		sd	s0,8(sp)
 1064              		.cfi_offset 8, -8
 1065 04e0 13040101 		addi	s0,sp,16
 1066              		.cfi_def_cfa 8, 0
 253:src/Interrupt.cpp ****     uint64 sstatus = r_statusi();
 1067              		.loc 1 253 5
 1068              	.LBB277:
 1069              	.LBB278:
 254:src/Interrupt.cpp ****     return sstatus;
 255:src/Interrupt.cpp **** }
 256:src/Interrupt.cpp **** inline uint64 Interrupt::r_statusi(){
 257:src/Interrupt.cpp ****     uint64 sstatus;
GAS LISTING /tmp/ccCs0PLf.s 			page 28


 1070              		.loc 1 257 5
 258:src/Interrupt.cpp ****     __asm__ volatile ("csrr %[sstatus],sstatus":  [sstatus]"=r"(sstatus));
 1071              		.loc 1 258 5
 1072              		.loc 1 258 74 is_stmt 0
 1073              	#APP
 1074              	# 258 "src/Interrupt.cpp" 1
 259              	    return sstatus;
 1075              		csrr a0,sstatus
 1076              	# 0 "" 2
 1077              	.LVL68:
 1078              		.loc 1 259 5 is_stmt 1
 1079              	#NO_APP
 1080              	.LBE278:
 1081              	.LBE277:
 254:src/Interrupt.cpp ****     return sstatus;
 1082              		.loc 1 254 5
 255:src/Interrupt.cpp **** inline uint64 Interrupt::r_statusi(){
 1083              		.loc 1 255 1 is_stmt 0
 1084 04e8 03348100 		ld	s0,8(sp)
 1085              		.cfi_restore 8
 1086              		.cfi_def_cfa 2, 16
 1087 04ec 13010101 		addi	sp,sp,16
 1088              		.cfi_def_cfa_offset 0
 1089 04f0 67800000 		jr	ra
 1090              		.cfi_endproc
 1091              	.LFE14:
 1093              		.align	2
 1094              		.globl	_ZN9Interrupt8w_statusEm
 1096              	_ZN9Interrupt8w_statusEm:
 1097              	.LFB16:
 260:src/Interrupt.cpp **** }
 261:src/Interrupt.cpp **** 
 262:src/Interrupt.cpp ****  void Interrupt::w_status(uint64 sstatus){
 1098              		.loc 1 262 42 is_stmt 1
 1099              		.cfi_startproc
 1100              	.LVL69:
 1101 04f4 130101FF 		addi	sp,sp,-16
 1102              		.cfi_def_cfa_offset 16
 1103 04f8 23348100 		sd	s0,8(sp)
 1104              		.cfi_offset 8, -8
 1105 04fc 13040101 		addi	s0,sp,16
 1106              		.cfi_def_cfa 8, 0
 263:src/Interrupt.cpp **** 
 264:src/Interrupt.cpp ****      w_statusi(sstatus);
 1107              		.loc 1 264 6
 1108              	.LVL70:
 1109              	.LBB279:
 1110              	.LBB280:
 265:src/Interrupt.cpp **** 
 266:src/Interrupt.cpp **** }
 267:src/Interrupt.cpp **** inline void Interrupt::w_statusi(uint64 sstatus){
 268:src/Interrupt.cpp **** 
 269:src/Interrupt.cpp ****     __asm__ volatile ("csrw sstatus,%[sstatus]": : [sstatus]"r"(sstatus));
 1111              		.loc 1 269 5
 1112              		.loc 1 269 74 is_stmt 0
 1113              	#APP
 1114              	# 269 "src/Interrupt.cpp" 1
GAS LISTING /tmp/ccCs0PLf.s 			page 29


 270              	
 1115              		csrw sstatus,a0
 1116              	# 0 "" 2
 1117              	.LVL71:
 1118              	#NO_APP
 1119              	.LBE280:
 1120              	.LBE279:
 266:src/Interrupt.cpp **** inline void Interrupt::w_statusi(uint64 sstatus){
 1121              		.loc 1 266 1
 1122 0504 03348100 		ld	s0,8(sp)
 1123              		.cfi_restore 8
 1124              		.cfi_def_cfa 2, 16
 1125 0508 13010101 		addi	sp,sp,16
 1126              		.cfi_def_cfa_offset 0
 1127 050c 67800000 		jr	ra
 1128              		.cfi_endproc
 1129              	.LFE16:
 1131              		.align	2
 1132              		.globl	_ZN9Interrupt7r_stvecEv
 1134              	_ZN9Interrupt7r_stvecEv:
 1135              	.LFB18:
 271:src/Interrupt.cpp **** }
 272:src/Interrupt.cpp **** uint64 Interrupt::r_stvec(){
 1136              		.loc 1 272 28 is_stmt 1
 1137              		.cfi_startproc
 1138 0510 130101FF 		addi	sp,sp,-16
 1139              		.cfi_def_cfa_offset 16
 1140 0514 23348100 		sd	s0,8(sp)
 1141              		.cfi_offset 8, -8
 1142 0518 13040101 		addi	s0,sp,16
 1143              		.cfi_def_cfa 8, 0
 273:src/Interrupt.cpp ****     uint64 stvec = r_stveci();
 1144              		.loc 1 273 5
 1145              	.LBB281:
 1146              	.LBB282:
 274:src/Interrupt.cpp ****     return stvec;
 275:src/Interrupt.cpp **** }
 276:src/Interrupt.cpp **** inline uint64 Interrupt::r_stveci(){
 277:src/Interrupt.cpp ****     uint64 stvec;
 1147              		.loc 1 277 5
 278:src/Interrupt.cpp ****     __asm__ volatile ("csrr %[stvec],stvec":  [stvec]"=r"(stvec));
 1148              		.loc 1 278 5
 1149              		.loc 1 278 66 is_stmt 0
 1150              	#APP
 1151              	# 278 "src/Interrupt.cpp" 1
 279              	    return stvec;
 1152              		csrr a0,stvec
 1153              	# 0 "" 2
 1154              	.LVL72:
 1155              		.loc 1 279 5 is_stmt 1
 1156              	#NO_APP
 1157              	.LBE282:
 1158              	.LBE281:
 274:src/Interrupt.cpp ****     return stvec;
 1159              		.loc 1 274 5
 275:src/Interrupt.cpp **** inline uint64 Interrupt::r_stveci(){
 1160              		.loc 1 275 1 is_stmt 0
GAS LISTING /tmp/ccCs0PLf.s 			page 30


 1161 0520 03348100 		ld	s0,8(sp)
 1162              		.cfi_restore 8
 1163              		.cfi_def_cfa 2, 16
 1164 0524 13010101 		addi	sp,sp,16
 1165              		.cfi_def_cfa_offset 0
 1166 0528 67800000 		jr	ra
 1167              		.cfi_endproc
 1168              	.LFE18:
 1170              		.align	2
 1171              		.globl	_ZN9Interrupt7w_stvecEm
 1173              	_ZN9Interrupt7w_stvecEm:
 1174              	.LFB20:
 280:src/Interrupt.cpp **** }
 281:src/Interrupt.cpp **** 
 282:src/Interrupt.cpp **** void Interrupt::w_stvec(uint64 stvec) {
 1175              		.loc 1 282 39 is_stmt 1
 1176              		.cfi_startproc
 1177              	.LVL73:
 1178 052c 130101FF 		addi	sp,sp,-16
 1179              		.cfi_def_cfa_offset 16
 1180 0530 23348100 		sd	s0,8(sp)
 1181              		.cfi_offset 8, -8
 1182 0534 13040101 		addi	s0,sp,16
 1183              		.cfi_def_cfa 8, 0
 283:src/Interrupt.cpp ****     w_stveci(stvec);
 1184              		.loc 1 283 5
 1185              	.LVL74:
 1186              	.LBB283:
 1187              	.LBB284:
 284:src/Interrupt.cpp **** }
 285:src/Interrupt.cpp **** inline void Interrupt::w_stveci(uint64 stvec) {
 286:src/Interrupt.cpp ****     __asm__ volatile ("csrw stvec,%[stvec]": : [stvec]"r"(stvec));
 1188              		.loc 1 286 5
 1189              		.loc 1 286 66 is_stmt 0
 1190              	#APP
 1191              	# 286 "src/Interrupt.cpp" 1
 287              	
 1192              		csrw stvec,a0
 1193              	# 0 "" 2
 1194              	.LVL75:
 1195              	#NO_APP
 1196              	.LBE284:
 1197              	.LBE283:
 284:src/Interrupt.cpp **** }
 1198              		.loc 1 284 1
 1199 053c 03348100 		ld	s0,8(sp)
 1200              		.cfi_restore 8
 1201              		.cfi_def_cfa 2, 16
 1202 0540 13010101 		addi	sp,sp,16
 1203              		.cfi_def_cfa_offset 0
 1204 0544 67800000 		jr	ra
 1205              		.cfi_endproc
 1206              	.LFE20:
 1208              		.align	2
 1209              		.globl	_ZN9Interrupt8r_scauseEv
 1211              	_ZN9Interrupt8r_scauseEv:
 1212              	.LFB22:
GAS LISTING /tmp/ccCs0PLf.s 			page 31


 288:src/Interrupt.cpp **** }
 289:src/Interrupt.cpp **** 
 290:src/Interrupt.cpp ****  uint64 Interrupt::r_scause() {
 1213              		.loc 1 290 31 is_stmt 1
 1214              		.cfi_startproc
 1215 0548 130101FF 		addi	sp,sp,-16
 1216              		.cfi_def_cfa_offset 16
 1217 054c 23348100 		sd	s0,8(sp)
 1218              		.cfi_offset 8, -8
 1219 0550 13040101 		addi	s0,sp,16
 1220              		.cfi_def_cfa 8, 0
 291:src/Interrupt.cpp ****     uint64 scause = r_scausei();
 1221              		.loc 1 291 5
 1222              	.LBB285:
 1223              	.LBB286:
 292:src/Interrupt.cpp ****     return scause;
 293:src/Interrupt.cpp **** }
 294:src/Interrupt.cpp **** 
 295:src/Interrupt.cpp **** inline uint64 Interrupt::r_scausei() {
 296:src/Interrupt.cpp ****     uint64 scause;
 1224              		.loc 1 296 5
 297:src/Interrupt.cpp ****     __asm__ volatile ("csrr %[scause],scause":  [scause]"=r"(scause));
 1225              		.loc 1 297 5
 1226              		.loc 1 297 70 is_stmt 0
 1227              	#APP
 1228              	# 297 "src/Interrupt.cpp" 1
 298              	    return scause;
 1229              		csrr a0,scause
 1230              	# 0 "" 2
 1231              	.LVL76:
 1232              		.loc 1 298 5 is_stmt 1
 1233              	#NO_APP
 1234              	.LBE286:
 1235              	.LBE285:
 292:src/Interrupt.cpp ****     return scause;
 1236              		.loc 1 292 5
 293:src/Interrupt.cpp **** 
 1237              		.loc 1 293 1 is_stmt 0
 1238 0558 03348100 		ld	s0,8(sp)
 1239              		.cfi_restore 8
 1240              		.cfi_def_cfa 2, 16
 1241 055c 13010101 		addi	sp,sp,16
 1242              		.cfi_def_cfa_offset 0
 1243 0560 67800000 		jr	ra
 1244              		.cfi_endproc
 1245              	.LFE22:
 1247              		.align	2
 1248              		.globl	_ZN9Interrupt8w_scauseEm
 1250              	_ZN9Interrupt8w_scauseEm:
 1251              	.LFB24:
 299:src/Interrupt.cpp **** }
 300:src/Interrupt.cpp **** 
 301:src/Interrupt.cpp ****  void Interrupt::w_scause(uint64 scause) {
 1252              		.loc 1 301 42 is_stmt 1
 1253              		.cfi_startproc
 1254              	.LVL77:
 1255 0564 130101FF 		addi	sp,sp,-16
GAS LISTING /tmp/ccCs0PLf.s 			page 32


 1256              		.cfi_def_cfa_offset 16
 1257 0568 23348100 		sd	s0,8(sp)
 1258              		.cfi_offset 8, -8
 1259 056c 13040101 		addi	s0,sp,16
 1260              		.cfi_def_cfa 8, 0
 302:src/Interrupt.cpp ****      w_scausei(scause);
 1261              		.loc 1 302 6
 1262              	.LVL78:
 1263              	.LBB287:
 1264              	.LBB288:
 303:src/Interrupt.cpp **** }
 304:src/Interrupt.cpp **** inline void Interrupt::w_scausei(uint64 scause) {
 305:src/Interrupt.cpp ****     __asm__ volatile ("csrw scause,%[scause]": : [scause]"r"(scause));
 1265              		.loc 1 305 5
 1266              		.loc 1 305 70 is_stmt 0
 1267              	#APP
 1268              	# 305 "src/Interrupt.cpp" 1
 306              	
 1269              		csrw scause,a0
 1270              	# 0 "" 2
 1271              	.LVL79:
 1272              	#NO_APP
 1273              	.LBE288:
 1274              	.LBE287:
 303:src/Interrupt.cpp **** }
 1275              		.loc 1 303 1
 1276 0574 03348100 		ld	s0,8(sp)
 1277              		.cfi_restore 8
 1278              		.cfi_def_cfa 2, 16
 1279 0578 13010101 		addi	sp,sp,16
 1280              		.cfi_def_cfa_offset 0
 1281 057c 67800000 		jr	ra
 1282              		.cfi_endproc
 1283              	.LFE24:
 1285              		.align	2
 1286              		.globl	_ZN9Interrupt6w_sepcEm
 1288              	_ZN9Interrupt6w_sepcEm:
 1289              	.LFB26:
 307:src/Interrupt.cpp **** }
 308:src/Interrupt.cpp **** 
 309:src/Interrupt.cpp **** void Interrupt::w_sepc(uint64 sepc) {
 1290              		.loc 1 309 37 is_stmt 1
 1291              		.cfi_startproc
 1292              	.LVL80:
 1293 0580 130101FF 		addi	sp,sp,-16
 1294              		.cfi_def_cfa_offset 16
 1295 0584 23348100 		sd	s0,8(sp)
 1296              		.cfi_offset 8, -8
 1297 0588 13040101 		addi	s0,sp,16
 1298              		.cfi_def_cfa 8, 0
 310:src/Interrupt.cpp ****     w_sepci(sepc);
 1299              		.loc 1 310 5
 1300              	.LVL81:
 1301              	.LBB289:
 1302              	.LBB290:
 311:src/Interrupt.cpp **** }
 312:src/Interrupt.cpp **** 
GAS LISTING /tmp/ccCs0PLf.s 			page 33


 313:src/Interrupt.cpp **** inline void Interrupt::w_sepci(uint64 sepc) {
 314:src/Interrupt.cpp ****     __asm__ volatile ("csrw sepc,%[sepc]": : [sepc]"r"(sepc));
 1303              		.loc 1 314 5
 1304              		.loc 1 314 62 is_stmt 0
 1305              	#APP
 1306              	# 314 "src/Interrupt.cpp" 1
 315              	
 1307              		csrw sepc,a0
 1308              	# 0 "" 2
 1309              	.LVL82:
 1310              	#NO_APP
 1311              	.LBE290:
 1312              	.LBE289:
 311:src/Interrupt.cpp **** }
 1313              		.loc 1 311 1
 1314 0590 03348100 		ld	s0,8(sp)
 1315              		.cfi_restore 8
 1316              		.cfi_def_cfa 2, 16
 1317 0594 13010101 		addi	sp,sp,16
 1318              		.cfi_def_cfa_offset 0
 1319 0598 67800000 		jr	ra
 1320              		.cfi_endproc
 1321              	.LFE26:
 1323              		.align	2
 1324              		.globl	_ZN9Interrupt6r_sepcEv
 1326              	_ZN9Interrupt6r_sepcEv:
 1327              	.LFB28:
 316:src/Interrupt.cpp **** }
 317:src/Interrupt.cpp **** 
 318:src/Interrupt.cpp ****  uint64 Interrupt::r_sepc() {
 1328              		.loc 1 318 29 is_stmt 1
 1329              		.cfi_startproc
 1330 059c 130101FF 		addi	sp,sp,-16
 1331              		.cfi_def_cfa_offset 16
 1332 05a0 23348100 		sd	s0,8(sp)
 1333              		.cfi_offset 8, -8
 1334 05a4 13040101 		addi	s0,sp,16
 1335              		.cfi_def_cfa 8, 0
 319:src/Interrupt.cpp ****     uint64 sepc = r_sepci();
 1336              		.loc 1 319 5
 1337              	.LBB291:
 1338              	.LBB292:
 320:src/Interrupt.cpp ****     return sepc;
 321:src/Interrupt.cpp **** }
 322:src/Interrupt.cpp **** 
 323:src/Interrupt.cpp **** inline uint64 Interrupt::r_sepci() {
 324:src/Interrupt.cpp ****     uint64 sepc;
 1339              		.loc 1 324 5
 325:src/Interrupt.cpp ****     __asm__ volatile ("csrr %[sepc],sepc":  [sepc]"=r"(sepc));
 1340              		.loc 1 325 5
 1341              		.loc 1 325 62 is_stmt 0
 1342              	#APP
 1343              	# 325 "src/Interrupt.cpp" 1
 326              	    return sepc;
 1344              		csrr a0,sepc
 1345              	# 0 "" 2
 1346              	.LVL83:
GAS LISTING /tmp/ccCs0PLf.s 			page 34


 1347              		.loc 1 326 5 is_stmt 1
 1348              	#NO_APP
 1349              	.LBE292:
 1350              	.LBE291:
 320:src/Interrupt.cpp ****     return sepc;
 1351              		.loc 1 320 5
 321:src/Interrupt.cpp **** 
 1352              		.loc 1 321 1 is_stmt 0
 1353 05ac 03348100 		ld	s0,8(sp)
 1354              		.cfi_restore 8
 1355              		.cfi_def_cfa 2, 16
 1356 05b0 13010101 		addi	sp,sp,16
 1357              		.cfi_def_cfa_offset 0
 1358 05b4 67800000 		jr	ra
 1359              		.cfi_endproc
 1360              	.LFE28:
 1362              		.align	2
 1363              		.globl	_ZN9Interrupt13handleSysCallEv
 1365              	_ZN9Interrupt13handleSysCallEv:
 1366              	.LFB10:
  10:src/Interrupt.cpp **** 
 1367              		.loc 1 10 33 is_stmt 1
 1368              		.cfi_startproc
 1369 05b8 130101FD 		addi	sp,sp,-48
 1370              		.cfi_def_cfa_offset 48
 1371 05bc 23341102 		sd	ra,40(sp)
 1372 05c0 23308102 		sd	s0,32(sp)
 1373 05c4 233C9100 		sd	s1,24(sp)
 1374 05c8 23382101 		sd	s2,16(sp)
 1375              		.cfi_offset 1, -8
 1376              		.cfi_offset 8, -16
 1377              		.cfi_offset 9, -24
 1378              		.cfi_offset 18, -32
 1379 05cc 13040103 		addi	s0,sp,48
 1380              		.cfi_def_cfa 8, 0
  13:src/Interrupt.cpp ****     if(scause == 0x0000000000000009UL || scause == 0x0000000000000008UL) {
 1381              		.loc 1 13 5
 1382              	.LBB293:
 1383              	.LBB294:
 296:src/Interrupt.cpp ****     __asm__ volatile ("csrr %[scause],scause":  [scause]"=r"(scause));
 1384              		.loc 1 296 5
 297:src/Interrupt.cpp ****     return scause;
 1385              		.loc 1 297 5
 297:src/Interrupt.cpp ****     return scause;
 1386              		.loc 1 297 70 is_stmt 0
 1387              	#APP
 1388              	# 297 "src/Interrupt.cpp" 1
 1389              		csrr a4,scause
 1390              	# 0 "" 2
 1391              	.LVL84:
 298:src/Interrupt.cpp **** }
 1392              		.loc 1 298 5 is_stmt 1
 1393              	#NO_APP
 1394              	.LBE294:
 1395              	.LBE293:
  14:src/Interrupt.cpp **** 
 1396              		.loc 1 14 5
GAS LISTING /tmp/ccCs0PLf.s 			page 35


 1397              	.LBB295:
  14:src/Interrupt.cpp **** 
 1398              		.loc 1 14 39 is_stmt 0
 1399 05d4 930687FF 		addi	a3,a4,-8
  14:src/Interrupt.cpp **** 
 1400              		.loc 1 14 5
 1401 05d8 93071000 		li	a5,1
 1402 05dc 63FED702 		bleu	a3,a5,.L81
 1403              	.LBE295:
  31:src/Interrupt.cpp ****         uint64 sie = r_siei();
 1404              		.loc 1 31 10 is_stmt 1
 1405              	.LBB332:
 1406              	.LBB296:
 1407 05e0 9307F0FF 		li	a5,-1
 1408 05e4 9397F703 		slli	a5,a5,63
 1409 05e8 93871700 		addi	a5,a5,1
 1410 05ec 6300F706 		beq	a4,a5,.L82
 1411              	.LBE296:
 1412              	.LBE332:
  60:src/Interrupt.cpp ****         int irq = plic_claim();
 1413              		.loc 1 60 10
 1414              	.LBB333:
 1415              	.LBB321:
 1416              	.LBB297:
 1417 05f0 9307F0FF 		li	a5,-1
 1418 05f4 9397F703 		slli	a5,a5,63
 1419 05f8 93879700 		addi	a5,a5,9
 1420 05fc 630CF716 		beq	a4,a5,.L83
 1421              	.LVL85:
 1422              	.L68:
 1423              	.LBE297:
 1424              	.LBE321:
 1425              	.LBE333:
  73:src/Interrupt.cpp **** 
 1426              		.loc 1 73 1 is_stmt 0
 1427 0600 83308102 		ld	ra,40(sp)
 1428              		.cfi_remember_state
 1429              		.cfi_restore 1
 1430 0604 03340102 		ld	s0,32(sp)
 1431              		.cfi_restore 8
 1432              		.cfi_def_cfa 2, 48
 1433 0608 83348101 		ld	s1,24(sp)
 1434              		.cfi_restore 9
 1435 060c 03390101 		ld	s2,16(sp)
 1436              		.cfi_restore 18
 1437 0610 13010103 		addi	sp,sp,48
 1438              		.cfi_def_cfa_offset 0
 1439 0614 67800000 		jr	ra
 1440              	.LVL86:
 1441              	.L81:
 1442              		.cfi_restore_state
 1443              	.LBB334:
 1444              	.LBB322:
  16:src/Interrupt.cpp ****         uint64 sscause = r_scausei();
 1445              		.loc 1 16 9 is_stmt 1
 1446              	.LBB323:
 1447              	.LBB324:
GAS LISTING /tmp/ccCs0PLf.s 			page 36


 324:src/Interrupt.cpp ****     __asm__ volatile ("csrr %[sepc],sepc":  [sepc]"=r"(sepc));
 1448              		.loc 1 324 5
 325:src/Interrupt.cpp ****     return sepc;
 1449              		.loc 1 325 5
 325:src/Interrupt.cpp ****     return sepc;
 1450              		.loc 1 325 62 is_stmt 0
 1451              	#APP
 1452              	# 325 "src/Interrupt.cpp" 1
 1453              		csrr s1,sepc
 1454              	# 0 "" 2
 1455              	.LVL87:
 1456              		.loc 1 326 5 is_stmt 1
 1457              	#NO_APP
 1458              	.LBE324:
 1459              	.LBE323:
  16:src/Interrupt.cpp ****         uint64 sscause = r_scausei();
 1460              		.loc 1 16 35 is_stmt 0
 1461 061c 93844400 		addi	s1,s1,4
 1462              	.LVL88:
  17:src/Interrupt.cpp ****         uint64 opCode,arg1,arg2,arg3,arg4;
 1463              		.loc 1 17 9 is_stmt 1
 1464              	.LBB325:
 1465              	.LBB326:
 296:src/Interrupt.cpp ****     __asm__ volatile ("csrr %[scause],scause":  [scause]"=r"(scause));
 1466              		.loc 1 296 5
 297:src/Interrupt.cpp ****     return scause;
 1467              		.loc 1 297 5
 297:src/Interrupt.cpp ****     return scause;
 1468              		.loc 1 297 70 is_stmt 0
 1469              	#APP
 1470              	# 297 "src/Interrupt.cpp" 1
 1471              		csrr s2,scause
 1472              	# 0 "" 2
 1473              	.LVL89:
 298:src/Interrupt.cpp **** }
 1474              		.loc 1 298 5 is_stmt 1
 1475              	#NO_APP
 1476              	.LBE326:
 1477              	.LBE325:
  18:src/Interrupt.cpp ****         __asm__ volatile("ld %0,80(s0)" : "=r"(opCode));
 1478              		.loc 1 18 9
  19:src/Interrupt.cpp ****         __asm__ volatile("ld %0,88(s0)" : "=r"(arg1));
 1479              		.loc 1 19 9
  19:src/Interrupt.cpp ****         __asm__ volatile("ld %0,88(s0)" : "=r"(arg1));
 1480              		.loc 1 19 56 is_stmt 0
 1481              	#APP
 1482              	# 19 "src/Interrupt.cpp" 1
 1483              		ld a0,80(s0)
 1484              	# 0 "" 2
 1485              	.LVL90:
  20:src/Interrupt.cpp ****         __asm__ volatile("ld %0,96(s0)" : "=r"(arg2));
 1486              		.loc 1 20 9 is_stmt 1
  20:src/Interrupt.cpp ****         __asm__ volatile("ld %0,96(s0)" : "=r"(arg2));
 1487              		.loc 1 20 54 is_stmt 0
 1488              	# 20 "src/Interrupt.cpp" 1
 1489              		ld a1,88(s0)
 1490              	# 0 "" 2
GAS LISTING /tmp/ccCs0PLf.s 			page 37


 1491              	.LVL91:
  21:src/Interrupt.cpp ****         __asm__ volatile("ld %0,104(s0)" : "=r"(arg3));
 1492              		.loc 1 21 9 is_stmt 1
  21:src/Interrupt.cpp ****         __asm__ volatile("ld %0,104(s0)" : "=r"(arg3));
 1493              		.loc 1 21 54 is_stmt 0
 1494              	# 21 "src/Interrupt.cpp" 1
 1495              		ld a2,96(s0)
 1496              	# 0 "" 2
 1497              	.LVL92:
  22:src/Interrupt.cpp ****         __asm__ volatile("ld %0,112(s0)" : "=r"(arg4));
 1498              		.loc 1 22 9 is_stmt 1
  22:src/Interrupt.cpp ****         __asm__ volatile("ld %0,112(s0)" : "=r"(arg4));
 1499              		.loc 1 22 55 is_stmt 0
 1500              	# 22 "src/Interrupt.cpp" 1
 1501              		ld a3,104(s0)
 1502              	# 0 "" 2
 1503              	.LVL93:
  23:src/Interrupt.cpp ****         callSys(opCode,arg1,arg2,arg3,arg4);
 1504              		.loc 1 23 9 is_stmt 1
  23:src/Interrupt.cpp ****         callSys(opCode,arg1,arg2,arg3,arg4);
 1505              		.loc 1 23 55 is_stmt 0
 1506              	# 23 "src/Interrupt.cpp" 1
 1507              		ld a4,112(s0)
 1508              	# 0 "" 2
 1509              	.LVL94:
  24:src/Interrupt.cpp ****         w_scausei(sscause);
 1510              		.loc 1 24 9 is_stmt 1
  24:src/Interrupt.cpp ****         w_scausei(sscause);
 1511              		.loc 1 24 16 is_stmt 0
 1512              	#NO_APP
 1513 0638 97000000 		call	_ZN9Interrupt7callSysEmmmmm
 1513      E7800000 
 1514              	.LVL95:
  25:src/Interrupt.cpp ****         w_sepci(sepc);
 1515              		.loc 1 25 9 is_stmt 1
 1516              	.LBB327:
 1517              	.LBB328:
 305:src/Interrupt.cpp **** 
 1518              		.loc 1 305 5
 305:src/Interrupt.cpp **** 
 1519              		.loc 1 305 70 is_stmt 0
 1520              	#APP
 1521              	# 305 "src/Interrupt.cpp" 1
 1522              		csrw scause,s2
 1523              	# 0 "" 2
 1524              	.LVL96:
 1525              	#NO_APP
 1526              	.LBE328:
 1527              	.LBE327:
  26:src/Interrupt.cpp **** 
 1528              		.loc 1 26 9 is_stmt 1
 1529              	.LBB329:
 1530              	.LBB330:
 314:src/Interrupt.cpp **** 
 1531              		.loc 1 314 5
 314:src/Interrupt.cpp **** 
 1532              		.loc 1 314 62 is_stmt 0
GAS LISTING /tmp/ccCs0PLf.s 			page 38


 1533              	#APP
 1534              	# 314 "src/Interrupt.cpp" 1
 316:src/Interrupt.cpp **** 
 1535              		csrw sepc,s1
 1536              	# 0 "" 2
 1537              		.loc 1 316 1
 1538              	#NO_APP
 1539 0648 6FF09FFB 		j	.L68
 1540              	.LVL97:
 1541              	.L82:
 1542              	.LBE330:
 1543              	.LBE329:
 1544              	.LBE322:
 1545              	.LBB331:
 1546              	.LBB304:
  32:src/Interrupt.cpp ****         if((sie & 2) == 0){
 1547              		.loc 1 32 9 is_stmt 1
 1548              	.LBB305:
 1549              	.LBB306:
 327:src/Interrupt.cpp **** }
 328:src/Interrupt.cpp **** 
 329:src/Interrupt.cpp **** void Interrupt::us_status(uint64 mask) {
 330:src/Interrupt.cpp ****     uint64 stat = r_statusi();
 331:src/Interrupt.cpp ****     stat= ~stat;
 332:src/Interrupt.cpp ****     stat|=mask;
 333:src/Interrupt.cpp ****     w_statusi(stat);
 334:src/Interrupt.cpp **** }
 335:src/Interrupt.cpp **** 
 336:src/Interrupt.cpp **** 
 337:src/Interrupt.cpp **** 
 338:src/Interrupt.cpp **** void Interrupt::popSppSpie() {
 339:src/Interrupt.cpp ****     __asm__ volatile("csrw sepc,ra");
 340:src/Interrupt.cpp ****     __asm__ volatile("sret");
 341:src/Interrupt.cpp **** }
 342:src/Interrupt.cpp **** 
 343:src/Interrupt.cpp **** void Interrupt::lock() {
 344:src/Interrupt.cpp ****     if(lock_var++ == 0){
 345:src/Interrupt.cpp ****         prevSstatus = r_status();
 346:src/Interrupt.cpp ****         mc_status(SSTATUS_SIE);
 347:src/Interrupt.cpp ****     }
 348:src/Interrupt.cpp **** }
 349:src/Interrupt.cpp **** 
 350:src/Interrupt.cpp **** void Interrupt::unlock() {
 351:src/Interrupt.cpp ****     if(--lock_var == 0){
 352:src/Interrupt.cpp ****             ms_status(prevSstatus&SSTATUS_SIE?SSTATUS_SIE:0);
 353:src/Interrupt.cpp **** //        ms_status(2);
 354:src/Interrupt.cpp **** //        ms_status(0b1000000000);
 355:src/Interrupt.cpp ****     }
 356:src/Interrupt.cpp **** }
 357:src/Interrupt.cpp **** 
 358:src/Interrupt.cpp **** void Interrupt::disable_sintr() {
 359:src/Interrupt.cpp ****         mc_status(SSTATUS_SIE);
 360:src/Interrupt.cpp **** }
 361:src/Interrupt.cpp **** 
 362:src/Interrupt.cpp **** void Interrupt::enable_sintr() {
 363:src/Interrupt.cpp ****     ms_status(SSTATUS_SIE);
 364:src/Interrupt.cpp **** }
GAS LISTING /tmp/ccCs0PLf.s 			page 39


 365:src/Interrupt.cpp **** 
 366:src/Interrupt.cpp **** inline void Interrupt::mc_sip(uint64 mask) {
 367:src/Interrupt.cpp ****     __asm__ volatile("csrc sip, %[mask]" : : [mask]"r"(mask));
 368:src/Interrupt.cpp **** }
 369:src/Interrupt.cpp **** 
 370:src/Interrupt.cpp ****  void Interrupt::userMaskSoft(){
 371:src/Interrupt.cpp ****     uint64 mask = 2;
 372:src/Interrupt.cpp ****     __asm__ volatile("csrc sie, %[mask]" : : [mask]"r"(mask));
 373:src/Interrupt.cpp **** }
 374:src/Interrupt.cpp ****  void Interrupt::userMaskHard(){
 375:src/Interrupt.cpp ****     uint64 mask = 512;
 376:src/Interrupt.cpp ****     __asm__ volatile("csrc sie, %[mask]" : : [mask]"r"(mask));
 377:src/Interrupt.cpp **** }
 378:src/Interrupt.cpp ****  void Interrupt::userUnmaskSoft(){
 379:src/Interrupt.cpp ****     uint64 mask = 2;
 380:src/Interrupt.cpp ****     __asm__ volatile("csrs sie, %[mask]" : : [mask]"r"(mask));
 381:src/Interrupt.cpp **** }
 382:src/Interrupt.cpp **** void Interrupt::userUnmaskHard(){
 383:src/Interrupt.cpp ****     uint64 mask = 512;
 384:src/Interrupt.cpp ****     __asm__ volatile("csrs sie, %[mask]" : : [mask]"r"(mask));
 385:src/Interrupt.cpp **** }
 386:src/Interrupt.cpp **** 
 387:src/Interrupt.cpp **** void Interrupt::switchToSystemStack() {
 388:src/Interrupt.cpp ****     if(PCB::running != nullptr && enableSystemStack)
 389:src/Interrupt.cpp ****     {
 390:src/Interrupt.cpp ****         uint64 sp, ssp = PCB::running->getSSP();
 391:src/Interrupt.cpp ****         __asm__ volatile("mv %[sp],sp" :  [sp]"=r"(sp));
 392:src/Interrupt.cpp ****         PCB::running->setSP(sp);
 393:src/Interrupt.cpp ****         __asm__ volatile("mv sp, %[ssp]" : : [ssp]"r"(ssp));
 394:src/Interrupt.cpp ****     }
 395:src/Interrupt.cpp **** 
 396:src/Interrupt.cpp **** }
 397:src/Interrupt.cpp **** 
 398:src/Interrupt.cpp **** void Interrupt::switchToUserStack() {
 399:src/Interrupt.cpp ****     if(PCB::running != nullptr && enableSystemStack)
 400:src/Interrupt.cpp ****     {
 401:src/Interrupt.cpp ****         uint64 sp = PCB::running->getSP();
 402:src/Interrupt.cpp ****         uint64 ssp;
 403:src/Interrupt.cpp ****         __asm__ volatile("mv %[ssp] , sp" : [ssp]"=r"(ssp));
 404:src/Interrupt.cpp ****         PCB::running->setSSP(ssp);
 405:src/Interrupt.cpp ****         __asm__ volatile("mv sp, %[sp]" : : [sp]"r"(sp));
 406:src/Interrupt.cpp ****     }
 407:src/Interrupt.cpp **** }
 408:src/Interrupt.cpp **** 
 409:src/Interrupt.cpp **** inline uint64 Interrupt::r_siei() {
 410:src/Interrupt.cpp ****     uint64 sie;
 1550              		.loc 1 410 5
 411:src/Interrupt.cpp ****     __asm__ volatile ("csrr %[sie],sie":  [sie]"=r"(sie));
 1551              		.loc 1 411 5
 1552              		.loc 1 411 58 is_stmt 0
 1553              	#APP
 1554              	# 411 "src/Interrupt.cpp" 1
 412              	    return sie;
 1555              		csrr a5,sie
 1556              	# 0 "" 2
 1557              	.LVL98:
 1558              		.loc 1 412 5 is_stmt 1
GAS LISTING /tmp/ccCs0PLf.s 			page 40


 1559              	#NO_APP
 1560              	.LBE306:
 1561              	.LBE305:
  33:src/Interrupt.cpp ****             mc_sip(SIP_SSIP);
 1562              		.loc 1 33 9
  33:src/Interrupt.cpp ****             mc_sip(SIP_SSIP);
 1563              		.loc 1 33 17 is_stmt 0
 1564 0650 93F72700 		andi	a5,a5,2
 1565              	.LVL99:
  33:src/Interrupt.cpp ****             mc_sip(SIP_SSIP);
 1566              		.loc 1 33 9
 1567 0654 63980700 		bnez	a5,.L72
  34:src/Interrupt.cpp ****             return;
 1568              		.loc 1 34 13 is_stmt 1
 1569              	.LVL100:
 1570              	.LBB307:
 1571              	.LBB308:
 367:src/Interrupt.cpp **** }
 1572              		.loc 1 367 5
 367:src/Interrupt.cpp **** }
 1573              		.loc 1 367 62 is_stmt 0
 1574 0658 93072000 		li	a5,2
 1575              	#APP
 1576              	# 367 "src/Interrupt.cpp" 1
 1577              		csrc sip, a5
 1578              	# 0 "" 2
 1579              	.LVL101:
 1580              	#NO_APP
 1581              	.LBE308:
 1582              	.LBE307:
  35:src/Interrupt.cpp ****         }
 1583              		.loc 1 35 13 is_stmt 1
 1584 0660 6FF01FFA 		j	.L68
 1585              	.L72:
  37:src/Interrupt.cpp ****         while (PCB::sleeping_list->getTimeLeft() == 0){
 1586              		.loc 1 37 9
  37:src/Interrupt.cpp ****         while (PCB::sleeping_list->getTimeLeft() == 0){
 1587              		.loc 1 37 36 is_stmt 0
 1588 0664 97070000 		la	a5,_ZN3PCB13sleeping_listE
 1588      83B70700 
 1589 066c 03B50700 		ld	a0,0(a5)
 1590 0670 97000000 		call	_ZN8PCB_List7decTimeEv@plt
 1590      E7800000 
 1591              	.LVL102:
 1592 0678 6F000002 		j	.L73
 1593              	.LVL103:
 1594              	.L75:
 1595              	.LBB309:
  44:src/Interrupt.cpp ****                 Scheduler::put(pcb);
 1596              		.loc 1 44 17 is_stmt 1
  44:src/Interrupt.cpp ****                 Scheduler::put(pcb);
 1597              		.loc 1 44 33 is_stmt 0
 1598 067c 93050000 		li	a1,0
 1599 0680 13850400 		mv	a0,s1
 1600 0684 97000000 		call	_ZN3PCB11setSleepingEb@plt
 1600      E7800000 
 1601              	.LVL104:
GAS LISTING /tmp/ccCs0PLf.s 			page 41


  45:src/Interrupt.cpp ****             }
 1602              		.loc 1 45 17 is_stmt 1
  45:src/Interrupt.cpp ****             }
 1603              		.loc 1 45 31 is_stmt 0
 1604 068c 13850400 		mv	a0,s1
 1605 0690 97000000 		call	_ZN9Scheduler3putEP3PCB@plt
 1605      E7800000 
 1606              	.LVL105:
 1607              	.L73:
 1608              	.LBE309:
  38:src/Interrupt.cpp ****             PCB* pcb = PCB::sleeping_list->get();
 1609              		.loc 1 38 9 is_stmt 1
  38:src/Interrupt.cpp ****             PCB* pcb = PCB::sleeping_list->get();
 1610              		.loc 1 38 50
  38:src/Interrupt.cpp ****             PCB* pcb = PCB::sleeping_list->get();
 1611              		.loc 1 38 47 is_stmt 0
 1612 0698 97070000 		la	a5,_ZN3PCB13sleeping_listE
 1612      83B70700 
 1613 06a0 03B50700 		ld	a0,0(a5)
 1614 06a4 97000000 		call	_ZN8PCB_List11getTimeLeftEv@plt
 1614      E7800000 
 1615              	.LVL106:
  38:src/Interrupt.cpp ****             PCB* pcb = PCB::sleeping_list->get();
 1616              		.loc 1 38 50
 1617 06ac 631A0504 		bnez	a0,.L74
 1618              	.LBB310:
  39:src/Interrupt.cpp ****             if(pcb->isPeriodic && PCB::isPeriodicBlocked){
 1619              		.loc 1 39 13 is_stmt 1
  39:src/Interrupt.cpp ****             if(pcb->isPeriodic && PCB::isPeriodicBlocked){
 1620              		.loc 1 39 47 is_stmt 0
 1621 06b0 97070000 		la	a5,_ZN3PCB13sleeping_listE
 1621      83B70700 
 1622 06b8 03B50700 		ld	a0,0(a5)
 1623 06bc 97000000 		call	_ZN8PCB_List3getEv@plt
 1623      E7800000 
 1624              	.LVL107:
 1625 06c4 93040500 		mv	s1,a0
 1626              	.LVL108:
  40:src/Interrupt.cpp ****                 PCB::sleeping_list->putTime(pcb,1);
 1627              		.loc 1 40 13 is_stmt 1
  40:src/Interrupt.cpp ****                 PCB::sleeping_list->putTime(pcb,1);
 1628              		.loc 1 40 21 is_stmt 0
 1629 06c8 83471500 		lbu	a5,1(a0)
  40:src/Interrupt.cpp ****                 PCB::sleeping_list->putTime(pcb,1);
 1630              		.loc 1 40 13
 1631 06cc E38807FA 		beqz	a5,.L75
  40:src/Interrupt.cpp ****                 PCB::sleeping_list->putTime(pcb,1);
 1632              		.loc 1 40 32 discriminator 1
 1633 06d0 97070000 		la	a5,_ZN3PCB17isPeriodicBlockedE
 1633      83B70700 
 1634 06d8 83C70700 		lbu	a5,0(a5)
 1635 06dc E38007FA 		beqz	a5,.L75
  41:src/Interrupt.cpp ****             }
 1636              		.loc 1 41 17 is_stmt 1
  41:src/Interrupt.cpp ****             }
 1637              		.loc 1 41 44 is_stmt 0
 1638 06e0 13061000 		li	a2,1
GAS LISTING /tmp/ccCs0PLf.s 			page 42


 1639 06e4 93050500 		mv	a1,a0
 1640 06e8 97070000 		la	a5,_ZN3PCB13sleeping_listE
 1640      83B70700 
 1641 06f0 03B50700 		ld	a0,0(a5)
 1642 06f4 97000000 		call	_ZN8PCB_List7putTimeEP3PCBm@plt
 1642      E7800000 
 1643              	.LVL109:
 1644 06fc 6FF0DFF9 		j	.L73
 1645              	.LVL110:
 1646              	.L74:
 1647              	.LBE310:
  49:src/Interrupt.cpp ****         if(PCB::timeLeft >= PCB::running->getTimeSlice()){
 1648              		.loc 1 49 9 is_stmt 1
  49:src/Interrupt.cpp ****         if(PCB::timeLeft >= PCB::running->getTimeSlice()){
 1649              		.loc 1 49 22 is_stmt 0
 1650 0700 97040000 		la	s1,_ZN3PCB8timeLeftE
 1650      83B40400 
 1651 0708 83B70400 		ld	a5,0(s1)
 1652 070c 93871700 		addi	a5,a5,1
 1653 0710 23B0F400 		sd	a5,0(s1)
  50:src/Interrupt.cpp ****           uint64 sepc = r_sepc();
 1654              		.loc 1 50 9 is_stmt 1
 1655              	.LBB311:
  50:src/Interrupt.cpp ****           uint64 sepc = r_sepc();
 1656              		.loc 1 50 55 is_stmt 0
 1657 0714 97070000 		la	a5,_ZN3PCB7runningE
 1657      83B70700 
 1658 071c 03B50700 		ld	a0,0(a5)
 1659 0720 97000000 		call	_ZNK3PCB12getTimeSliceEv@plt
 1659      E7800000 
 1660              	.LVL111:
  50:src/Interrupt.cpp ****           uint64 sepc = r_sepc();
 1661              		.loc 1 50 26
 1662 0728 83B70400 		ld	a5,0(s1)
  50:src/Interrupt.cpp ****           uint64 sepc = r_sepc();
 1663              		.loc 1 50 9
 1664 072c 63F8A700 		bgeu	a5,a0,.L84
 1665              	.L77:
 1666              	.LBE311:
  58:src/Interrupt.cpp ****     }
 1667              		.loc 1 58 12 is_stmt 1
 1668              	.LVL112:
 1669              	.LBB317:
 1670              	.LBB318:
 367:src/Interrupt.cpp **** }
 1671              		.loc 1 367 5
 367:src/Interrupt.cpp **** }
 1672              		.loc 1 367 62 is_stmt 0
 1673 0730 93072000 		li	a5,2
 1674              	#APP
 1675              	# 367 "src/Interrupt.cpp" 1
 368:src/Interrupt.cpp **** 
 1676              		csrc sip, a5
 1677              	# 0 "" 2
 1678              		.loc 1 368 1
 1679              	#NO_APP
 1680 0738 6FF09FEC 		j	.L68
GAS LISTING /tmp/ccCs0PLf.s 			page 43


 1681              	.LVL113:
 1682              	.L84:
 1683              	.LBE318:
 1684              	.LBE317:
 1685              	.LBB319:
 1686              	.LBB312:
  51:src/Interrupt.cpp ****           uint64 sscause = r_scausei();
 1687              		.loc 1 51 11 is_stmt 1
  51:src/Interrupt.cpp ****           uint64 sscause = r_scausei();
 1688              		.loc 1 51 31 is_stmt 0
 1689 073c 97000000 		call	_ZN9Interrupt6r_sepcEv
 1689      E7800000 
 1690              	.LVL114:
 1691 0744 93040500 		mv	s1,a0
 1692              	.LVL115:
  52:src/Interrupt.cpp ****           PCB::timeLeft = 0;
 1693              		.loc 1 52 11 is_stmt 1
 1694              	.LBB313:
 1695              	.LBB314:
 296:src/Interrupt.cpp ****     __asm__ volatile ("csrr %[scause],scause":  [scause]"=r"(scause));
 1696              		.loc 1 296 5
 297:src/Interrupt.cpp ****     return scause;
 1697              		.loc 1 297 5
 297:src/Interrupt.cpp ****     return scause;
 1698              		.loc 1 297 70 is_stmt 0
 1699              	#APP
 1700              	# 297 "src/Interrupt.cpp" 1
 1701              		csrr s2,scause
 1702              	# 0 "" 2
 1703              	.LVL116:
 298:src/Interrupt.cpp **** }
 1704              		.loc 1 298 5 is_stmt 1
 1705              	#NO_APP
 1706              	.LBE314:
 1707              	.LBE313:
  53:src/Interrupt.cpp ****           PCB::dispatch();
 1708              		.loc 1 53 11
  53:src/Interrupt.cpp ****           PCB::dispatch();
 1709              		.loc 1 53 25 is_stmt 0
 1710 074c 97070000 		la	a5,_ZN3PCB8timeLeftE
 1710      83B70700 
 1711 0754 23B00700 		sd	zero,0(a5)
  54:src/Interrupt.cpp ****           w_scausei(sscause);
 1712              		.loc 1 54 11 is_stmt 1
  54:src/Interrupt.cpp ****           w_scausei(sscause);
 1713              		.loc 1 54 24 is_stmt 0
 1714 0758 97000000 		call	_ZN3PCB8dispatchEv@plt
 1714      E7800000 
 1715              	.LVL117:
  55:src/Interrupt.cpp ****          w_sepc(sepc);
 1716              		.loc 1 55 11 is_stmt 1
 1717              	.LBB315:
 1718              	.LBB316:
 305:src/Interrupt.cpp **** 
 1719              		.loc 1 305 5
 305:src/Interrupt.cpp **** 
 1720              		.loc 1 305 70 is_stmt 0
GAS LISTING /tmp/ccCs0PLf.s 			page 44


 1721              	#APP
 1722              	# 305 "src/Interrupt.cpp" 1
 1723              		csrw scause,s2
 1724              	# 0 "" 2
 1725              	.LVL118:
 1726              	#NO_APP
 1727              	.LBE316:
 1728              	.LBE315:
  56:src/Interrupt.cpp ****         }
 1729              		.loc 1 56 10 is_stmt 1
  56:src/Interrupt.cpp ****         }
 1730              		.loc 1 56 16 is_stmt 0
 1731 0764 13850400 		mv	a0,s1
 1732 0768 97000000 		call	_ZN9Interrupt6w_sepcEm
 1732      E7800000 
 1733              	.LVL119:
 1734              	.LBE312:
 1735 0770 6FF01FFC 		j	.L77
 1736              	.LVL120:
 1737              	.L83:
 1738              	.LBE319:
 1739              	.LBE304:
 1740              	.LBB320:
 1741              	.LBB298:
  61:src/Interrupt.cpp ****         if(irq == CONSOLE_IRQ){
 1742              		.loc 1 61 9 is_stmt 1
  61:src/Interrupt.cpp ****         if(irq == CONSOLE_IRQ){
 1743              		.loc 1 61 29 is_stmt 0
 1744 0774 97000000 		call	plic_claim@plt
 1744      E7800000 
 1745              	.LVL121:
 1746 077c 93040500 		mv	s1,a0
 1747              	.LVL122:
  62:src/Interrupt.cpp ****             volatile char status = *((char *)CONSOLE_STATUS);
 1748              		.loc 1 62 9 is_stmt 1
 1749              	.LBB299:
 1750 0780 9307A000 		li	a5,10
 1751 0784 630AF500 		beq	a0,a5,.L85
 1752              	.LVL123:
 1753              	.L78:
 1754              	.LBE299:
  70:src/Interrupt.cpp ****     }
 1755              		.loc 1 70 9
  70:src/Interrupt.cpp ****     }
 1756              		.loc 1 70 22 is_stmt 0
 1757 0788 13850400 		mv	a0,s1
 1758 078c 97000000 		call	plic_complete@plt
 1758      E7800000 
 1759              	.LVL124:
 1760              	.LBE298:
 1761 0794 6FF0DFE6 		j	.L68
 1762              	.LVL125:
 1763              	.L85:
 1764              	.LBB303:
 1765              	.LBB302:
 1766              	.LBB300:
  63:src/Interrupt.cpp ****             while (status & CONSOLE_RX_STATUS_BIT){
GAS LISTING /tmp/ccCs0PLf.s 			page 45


 1767              		.loc 1 63 13 is_stmt 1
  63:src/Interrupt.cpp ****             while (status & CONSOLE_RX_STATUS_BIT){
 1768              		.loc 1 63 36 is_stmt 0
 1769 0798 97070000 		la	a5,CONSOLE_STATUS
 1769      83B70700 
 1770 07a0 03B90700 		ld	s2,0(a5)
 1771 07a4 83470900 		lbu	a5,0(s2)
  63:src/Interrupt.cpp ****             while (status & CONSOLE_RX_STATUS_BIT){
 1772              		.loc 1 63 27
 1773 07a8 A30FF4FC 		sb	a5,-33(s0)
 1774              	.LVL126:
 1775              	.L79:
  64:src/Interrupt.cpp ****                 char c = (*(char *) CONSOLE_RX_DATA);
 1776              		.loc 1 64 13 is_stmt 1
  64:src/Interrupt.cpp ****                 char c = (*(char *) CONSOLE_RX_DATA);
 1777              		.loc 1 64 29
  64:src/Interrupt.cpp ****                 char c = (*(char *) CONSOLE_RX_DATA);
 1778              		.loc 1 64 20 is_stmt 0
 1779 07ac 8347F4FD 		lbu	a5,-33(s0)
  64:src/Interrupt.cpp ****                 char c = (*(char *) CONSOLE_RX_DATA);
 1780              		.loc 1 64 29
 1781 07b0 93F71700 		andi	a5,a5,1
 1782 07b4 E38A07FC 		beqz	a5,.L78
 1783              	.LBB301:
  65:src/Interrupt.cpp ****                 Cons::inputBuffer->put(c);
 1784              		.loc 1 65 17 is_stmt 1
  65:src/Interrupt.cpp ****                 Cons::inputBuffer->put(c);
 1785              		.loc 1 65 27 is_stmt 0
 1786 07b8 97070000 		la	a5,CONSOLE_RX_DATA
 1786      83B70700 
 1787 07c0 83B70700 		ld	a5,0(a5)
 1788              	.LVL127:
  66:src/Interrupt.cpp ****                 status = *((char *)CONSOLE_STATUS);
 1789              		.loc 1 66 17 is_stmt 1
  66:src/Interrupt.cpp ****                 status = *((char *)CONSOLE_STATUS);
 1790              		.loc 1 66 39 is_stmt 0
 1791 07c4 83C50700 		lbu	a1,0(a5)
 1792 07c8 97070000 		la	a5,_ZN4Cons11inputBufferE
 1792      83B70700 
 1793              	.LVL128:
 1794 07d0 03B50700 		ld	a0,0(a5)
 1795 07d4 97000000 		call	_ZN10CharBuffer3putEc@plt
 1795      E7800000 
 1796              	.LVL129:
  67:src/Interrupt.cpp ****             }
 1797              		.loc 1 67 17 is_stmt 1
  67:src/Interrupt.cpp ****             }
 1798              		.loc 1 67 26 is_stmt 0
 1799 07dc 83470900 		lbu	a5,0(s2)
  67:src/Interrupt.cpp ****             }
 1800              		.loc 1 67 24
 1801 07e0 A30FF4FC 		sb	a5,-33(s0)
 1802              	.LBE301:
  64:src/Interrupt.cpp ****                 char c = (*(char *) CONSOLE_RX_DATA);
 1803              		.loc 1 64 13
 1804 07e4 6FF09FFC 		j	.L79
 1805              	.LBE300:
GAS LISTING /tmp/ccCs0PLf.s 			page 46


 1806              	.LBE302:
 1807              	.LBE303:
 1808              	.LBE320:
 1809              	.LBE331:
 1810              	.LBE334:
 1811              		.cfi_endproc
 1812              	.LFE10:
 1814              		.align	2
 1815              		.globl	_ZN9Interrupt9us_statusEm
 1817              	_ZN9Interrupt9us_statusEm:
 1818              	.LFB30:
 329:src/Interrupt.cpp ****     uint64 stat = r_statusi();
 1819              		.loc 1 329 40 is_stmt 1
 1820              		.cfi_startproc
 1821              	.LVL130:
 1822 07e8 130101FF 		addi	sp,sp,-16
 1823              		.cfi_def_cfa_offset 16
 1824 07ec 23348100 		sd	s0,8(sp)
 1825              		.cfi_offset 8, -8
 1826 07f0 13040101 		addi	s0,sp,16
 1827              		.cfi_def_cfa 8, 0
 330:src/Interrupt.cpp ****     stat= ~stat;
 1828              		.loc 1 330 5
 1829              	.LBB335:
 1830              	.LBB336:
 257:src/Interrupt.cpp ****     __asm__ volatile ("csrr %[sstatus],sstatus":  [sstatus]"=r"(sstatus));
 1831              		.loc 1 257 5
 258:src/Interrupt.cpp ****     return sstatus;
 1832              		.loc 1 258 5
 258:src/Interrupt.cpp ****     return sstatus;
 1833              		.loc 1 258 74 is_stmt 0
 1834              	#APP
 1835              	# 258 "src/Interrupt.cpp" 1
 1836              		csrr a5,sstatus
 1837              	# 0 "" 2
 1838              	.LVL131:
 259:src/Interrupt.cpp **** }
 1839              		.loc 1 259 5 is_stmt 1
 1840              	#NO_APP
 1841              	.LBE336:
 1842              	.LBE335:
 331:src/Interrupt.cpp ****     stat|=mask;
 1843              		.loc 1 331 5
 331:src/Interrupt.cpp ****     stat|=mask;
 1844              		.loc 1 331 9 is_stmt 0
 1845 07f8 93C7F7FF 		not	a5,a5
 1846              	.LVL132:
 332:src/Interrupt.cpp ****     w_statusi(stat);
 1847              		.loc 1 332 5 is_stmt 1
 332:src/Interrupt.cpp ****     w_statusi(stat);
 1848              		.loc 1 332 9 is_stmt 0
 1849 07fc 33E5A700 		or	a0,a5,a0
 1850              	.LVL133:
 333:src/Interrupt.cpp **** }
 1851              		.loc 1 333 5 is_stmt 1
 1852              	.LBB337:
 1853              	.LBB338:
GAS LISTING /tmp/ccCs0PLf.s 			page 47


 269:src/Interrupt.cpp **** 
 1854              		.loc 1 269 5
 269:src/Interrupt.cpp **** 
 1855              		.loc 1 269 74 is_stmt 0
 1856              	#APP
 1857              	# 269 "src/Interrupt.cpp" 1
 1858              		csrw sstatus,a0
 1859              	# 0 "" 2
 1860              	.LVL134:
 1861              	#NO_APP
 1862              	.LBE338:
 1863              	.LBE337:
 334:src/Interrupt.cpp **** 
 1864              		.loc 1 334 1
 1865 0804 03348100 		ld	s0,8(sp)
 1866              		.cfi_restore 8
 1867              		.cfi_def_cfa 2, 16
 1868 0808 13010101 		addi	sp,sp,16
 1869              		.cfi_def_cfa_offset 0
 1870 080c 67800000 		jr	ra
 1871              		.cfi_endproc
 1872              	.LFE30:
 1874              		.align	2
 1875              		.globl	_ZN9Interrupt10popSppSpieEv
 1877              	_ZN9Interrupt10popSppSpieEv:
 1878              	.LFB31:
 338:src/Interrupt.cpp ****     __asm__ volatile("csrw sepc,ra");
 1879              		.loc 1 338 30 is_stmt 1
 1880              		.cfi_startproc
 1881 0810 130101FF 		addi	sp,sp,-16
 1882              		.cfi_def_cfa_offset 16
 1883 0814 23348100 		sd	s0,8(sp)
 1884              		.cfi_offset 8, -8
 1885 0818 13040101 		addi	s0,sp,16
 1886              		.cfi_def_cfa 8, 0
 339:src/Interrupt.cpp ****     __asm__ volatile("sret");
 1887              		.loc 1 339 5
 339:src/Interrupt.cpp ****     __asm__ volatile("sret");
 1888              		.loc 1 339 37 is_stmt 0
 1889              	#APP
 1890              	# 339 "src/Interrupt.cpp" 1
 340:src/Interrupt.cpp **** }
 1891              		csrw sepc,ra
 1892              	# 0 "" 2
 1893              		.loc 1 340 5 is_stmt 1
 340:src/Interrupt.cpp **** }
 1894              		.loc 1 340 29 is_stmt 0
 1895              	# 340 "src/Interrupt.cpp" 1
 341:src/Interrupt.cpp **** 
 1896              		sret
 1897              	# 0 "" 2
 1898              		.loc 1 341 1
 1899              	#NO_APP
 1900 0824 03348100 		ld	s0,8(sp)
 1901              		.cfi_restore 8
 1902              		.cfi_def_cfa 2, 16
 1903 0828 13010101 		addi	sp,sp,16
GAS LISTING /tmp/ccCs0PLf.s 			page 48


 1904              		.cfi_def_cfa_offset 0
 1905 082c 67800000 		jr	ra
 1906              		.cfi_endproc
 1907              	.LFE31:
 1909              		.align	2
 1910              		.globl	_ZN9Interrupt4lockEv
 1912              	_ZN9Interrupt4lockEv:
 1913              	.LFB32:
 343:src/Interrupt.cpp ****     if(lock_var++ == 0){
 1914              		.loc 1 343 24 is_stmt 1
 1915              		.cfi_startproc
 344:src/Interrupt.cpp ****         prevSstatus = r_status();
 1916              		.loc 1 344 5
 344:src/Interrupt.cpp ****         prevSstatus = r_status();
 1917              		.loc 1 344 16 is_stmt 0
 1918 0830 17070000 		lla	a4,.LANCHOR0
 1918      13070700 
 1919 0838 83270700 		lw	a5,0(a4)
 1920 083c 9B861700 		addiw	a3,a5,1
 1921 0840 2320D700 		sw	a3,0(a4)
 344:src/Interrupt.cpp ****         prevSstatus = r_status();
 1922              		.loc 1 344 5
 1923 0844 63840700 		beqz	a5,.L96
 1924 0848 67800000 		ret
 1925              	.L96:
 343:src/Interrupt.cpp ****     if(lock_var++ == 0){
 1926              		.loc 1 343 24
 1927 084c 130101FF 		addi	sp,sp,-16
 1928              		.cfi_def_cfa_offset 16
 1929 0850 23341100 		sd	ra,8(sp)
 1930 0854 23308100 		sd	s0,0(sp)
 1931              		.cfi_offset 1, -8
 1932              		.cfi_offset 8, -16
 1933 0858 13040101 		addi	s0,sp,16
 1934              		.cfi_def_cfa 8, 0
 345:src/Interrupt.cpp ****         mc_status(SSTATUS_SIE);
 1935              		.loc 1 345 9 is_stmt 1
 345:src/Interrupt.cpp ****         mc_status(SSTATUS_SIE);
 1936              		.loc 1 345 31 is_stmt 0
 1937 085c 97000000 		call	_ZN9Interrupt8r_statusEv
 1937      E7800000 
 1938              	.LVL135:
 345:src/Interrupt.cpp ****         mc_status(SSTATUS_SIE);
 1939              		.loc 1 345 21
 1940 0864 97070000 		sd	a0,.LANCHOR0+8,a5
 1940      23B0A700 
 346:src/Interrupt.cpp ****     }
 1941              		.loc 1 346 9 is_stmt 1
 1942              	.LVL136:
 1943              	.LBB339:
 1944              	.LBB340:
 249:src/Interrupt.cpp **** }
 1945              		.loc 1 249 5
 249:src/Interrupt.cpp **** }
 1946              		.loc 1 249 66 is_stmt 0
 1947 086c 93072000 		li	a5,2
 1948              	#APP
GAS LISTING /tmp/ccCs0PLf.s 			page 49


 1949              	# 249 "src/Interrupt.cpp" 1
 1950              		csrc sstatus, a5
 1951              	# 0 "" 2
 1952              	.LVL137:
 1953              	#NO_APP
 1954              	.LBE340:
 1955              	.LBE339:
 348:src/Interrupt.cpp **** 
 1956              		.loc 1 348 1
 1957 0874 83308100 		ld	ra,8(sp)
 1958              		.cfi_restore 1
 1959 0878 03340100 		ld	s0,0(sp)
 1960              		.cfi_restore 8
 1961              		.cfi_def_cfa 2, 16
 1962 087c 13010101 		addi	sp,sp,16
 1963              		.cfi_def_cfa_offset 0
 1964 0880 67800000 		jr	ra
 1965              		.cfi_endproc
 1966              	.LFE32:
 1968              		.align	2
 1969              		.globl	_ZN9Interrupt6unlockEv
 1971              	_ZN9Interrupt6unlockEv:
 1972              	.LFB33:
 350:src/Interrupt.cpp ****     if(--lock_var == 0){
 1973              		.loc 1 350 26 is_stmt 1
 1974              		.cfi_startproc
 1975 0884 130101FF 		addi	sp,sp,-16
 1976              		.cfi_def_cfa_offset 16
 1977 0888 23348100 		sd	s0,8(sp)
 1978              		.cfi_offset 8, -8
 1979 088c 13040101 		addi	s0,sp,16
 1980              		.cfi_def_cfa 8, 0
 351:src/Interrupt.cpp ****             ms_status(prevSstatus&SSTATUS_SIE?SSTATUS_SIE:0);
 1981              		.loc 1 351 5
 351:src/Interrupt.cpp ****             ms_status(prevSstatus&SSTATUS_SIE?SSTATUS_SIE:0);
 1982              		.loc 1 351 8 is_stmt 0
 1983 0890 17070000 		lla	a4,.LANCHOR0
 1983      13070700 
 1984 0898 83270700 		lw	a5,0(a4)
 1985 089c 9B87F7FF 		addiw	a5,a5,-1
 1986 08a0 9B860700 		sext.w	a3,a5
 351:src/Interrupt.cpp ****             ms_status(prevSstatus&SSTATUS_SIE?SSTATUS_SIE:0);
 1987              		.loc 1 351 19
 1988 08a4 2320F700 		sw	a5,0(a4)
 351:src/Interrupt.cpp ****             ms_status(prevSstatus&SSTATUS_SIE?SSTATUS_SIE:0);
 1989              		.loc 1 351 5
 1990 08a8 639C0600 		bnez	a3,.L97
 352:src/Interrupt.cpp **** //        ms_status(2);
 1991              		.loc 1 352 13 is_stmt 1
 352:src/Interrupt.cpp **** //        ms_status(2);
 1992              		.loc 1 352 46 is_stmt 0
 1993 08ac 97070000 		lw	a5,.LANCHOR0+8
 1993      83A70700 
 352:src/Interrupt.cpp **** //        ms_status(2);
 1994              		.loc 1 352 22
 1995 08b4 93F72700 		andi	a5,a5,2
 1996 08b8 9B870700 		sext.w	a5,a5
GAS LISTING /tmp/ccCs0PLf.s 			page 50


 1997              	.LVL138:
 1998              	.LBB341:
 1999              	.LBB342:
 246:src/Interrupt.cpp **** }
 2000              		.loc 1 246 5 is_stmt 1
 246:src/Interrupt.cpp **** }
 2001              		.loc 1 246 66 is_stmt 0
 2002              	#APP
 2003              	# 246 "src/Interrupt.cpp" 1
 2004              		csrs sstatus, a5
 2005              	# 0 "" 2
 2006              	.LVL139:
 2007              	#NO_APP
 2008              	.L97:
 2009              	.LBE342:
 2010              	.LBE341:
 356:src/Interrupt.cpp **** 
 2011              		.loc 1 356 1
 2012 08c0 03348100 		ld	s0,8(sp)
 2013              		.cfi_restore 8
 2014              		.cfi_def_cfa 2, 16
 2015 08c4 13010101 		addi	sp,sp,16
 2016              		.cfi_def_cfa_offset 0
 2017 08c8 67800000 		jr	ra
 2018              		.cfi_endproc
 2019              	.LFE33:
 2021              		.align	2
 2022              		.globl	_ZN9Interrupt13disable_sintrEv
 2024              	_ZN9Interrupt13disable_sintrEv:
 2025              	.LFB34:
 358:src/Interrupt.cpp ****         mc_status(SSTATUS_SIE);
 2026              		.loc 1 358 33 is_stmt 1
 2027              		.cfi_startproc
 2028 08cc 130101FF 		addi	sp,sp,-16
 2029              		.cfi_def_cfa_offset 16
 2030 08d0 23348100 		sd	s0,8(sp)
 2031              		.cfi_offset 8, -8
 2032 08d4 13040101 		addi	s0,sp,16
 2033              		.cfi_def_cfa 8, 0
 359:src/Interrupt.cpp **** }
 2034              		.loc 1 359 9
 2035              	.LVL140:
 2036              	.LBB343:
 2037              	.LBB344:
 249:src/Interrupt.cpp **** }
 2038              		.loc 1 249 5
 249:src/Interrupt.cpp **** }
 2039              		.loc 1 249 66 is_stmt 0
 2040 08d8 93072000 		li	a5,2
 2041              	#APP
 2042              	# 249 "src/Interrupt.cpp" 1
 2043              		csrc sstatus, a5
 2044              	# 0 "" 2
 2045              	.LVL141:
 2046              	#NO_APP
 2047              	.LBE344:
 2048              	.LBE343:
GAS LISTING /tmp/ccCs0PLf.s 			page 51


 360:src/Interrupt.cpp **** 
 2049              		.loc 1 360 1
 2050 08e0 03348100 		ld	s0,8(sp)
 2051              		.cfi_restore 8
 2052              		.cfi_def_cfa 2, 16
 2053 08e4 13010101 		addi	sp,sp,16
 2054              		.cfi_def_cfa_offset 0
 2055 08e8 67800000 		jr	ra
 2056              		.cfi_endproc
 2057              	.LFE34:
 2059              		.align	2
 2060              		.globl	_ZN9Interrupt12enable_sintrEv
 2062              	_ZN9Interrupt12enable_sintrEv:
 2063              	.LFB35:
 362:src/Interrupt.cpp ****     ms_status(SSTATUS_SIE);
 2064              		.loc 1 362 32 is_stmt 1
 2065              		.cfi_startproc
 2066 08ec 130101FF 		addi	sp,sp,-16
 2067              		.cfi_def_cfa_offset 16
 2068 08f0 23348100 		sd	s0,8(sp)
 2069              		.cfi_offset 8, -8
 2070 08f4 13040101 		addi	s0,sp,16
 2071              		.cfi_def_cfa 8, 0
 363:src/Interrupt.cpp **** }
 2072              		.loc 1 363 5
 2073              	.LVL142:
 2074              	.LBB345:
 2075              	.LBB346:
 246:src/Interrupt.cpp **** }
 2076              		.loc 1 246 5
 246:src/Interrupt.cpp **** }
 2077              		.loc 1 246 66 is_stmt 0
 2078 08f8 93072000 		li	a5,2
 2079              	#APP
 2080              	# 246 "src/Interrupt.cpp" 1
 2081              		csrs sstatus, a5
 2082              	# 0 "" 2
 2083              	.LVL143:
 2084              	#NO_APP
 2085              	.LBE346:
 2086              	.LBE345:
 364:src/Interrupt.cpp **** 
 2087              		.loc 1 364 1
 2088 0900 03348100 		ld	s0,8(sp)
 2089              		.cfi_restore 8
 2090              		.cfi_def_cfa 2, 16
 2091 0904 13010101 		addi	sp,sp,16
 2092              		.cfi_def_cfa_offset 0
 2093 0908 67800000 		jr	ra
 2094              		.cfi_endproc
 2095              	.LFE35:
 2097              		.align	2
 2098              		.globl	_ZN9Interrupt12userMaskSoftEv
 2100              	_ZN9Interrupt12userMaskSoftEv:
 2101              	.LFB37:
 370:src/Interrupt.cpp ****     uint64 mask = 2;
 2102              		.loc 1 370 32 is_stmt 1
GAS LISTING /tmp/ccCs0PLf.s 			page 52


 2103              		.cfi_startproc
 2104 090c 130101FF 		addi	sp,sp,-16
 2105              		.cfi_def_cfa_offset 16
 2106 0910 23348100 		sd	s0,8(sp)
 2107              		.cfi_offset 8, -8
 2108 0914 13040101 		addi	s0,sp,16
 2109              		.cfi_def_cfa 8, 0
 371:src/Interrupt.cpp ****     __asm__ volatile("csrc sie, %[mask]" : : [mask]"r"(mask));
 2110              		.loc 1 371 5
 2111              	.LVL144:
 372:src/Interrupt.cpp **** }
 2112              		.loc 1 372 5
 372:src/Interrupt.cpp **** }
 2113              		.loc 1 372 62 is_stmt 0
 2114 0918 93072000 		li	a5,2
 2115              	#APP
 2116              	# 372 "src/Interrupt.cpp" 1
 373:src/Interrupt.cpp ****  void Interrupt::userMaskHard(){
 2117              		csrc sie, a5
 2118              	# 0 "" 2
 2119              		.loc 1 373 1
 2120              	#NO_APP
 2121 0920 03348100 		ld	s0,8(sp)
 2122              		.cfi_restore 8
 2123              		.cfi_def_cfa 2, 16
 2124 0924 13010101 		addi	sp,sp,16
 2125              		.cfi_def_cfa_offset 0
 2126 0928 67800000 		jr	ra
 2127              		.cfi_endproc
 2128              	.LFE37:
 2130              		.align	2
 2131              		.globl	_ZN9Interrupt12userMaskHardEv
 2133              	_ZN9Interrupt12userMaskHardEv:
 2134              	.LFB38:
 374:src/Interrupt.cpp ****     uint64 mask = 512;
 2135              		.loc 1 374 32 is_stmt 1
 2136              		.cfi_startproc
 2137 092c 130101FF 		addi	sp,sp,-16
 2138              		.cfi_def_cfa_offset 16
 2139 0930 23348100 		sd	s0,8(sp)
 2140              		.cfi_offset 8, -8
 2141 0934 13040101 		addi	s0,sp,16
 2142              		.cfi_def_cfa 8, 0
 375:src/Interrupt.cpp ****     __asm__ volatile("csrc sie, %[mask]" : : [mask]"r"(mask));
 2143              		.loc 1 375 5
 2144              	.LVL145:
 376:src/Interrupt.cpp **** }
 2145              		.loc 1 376 5
 376:src/Interrupt.cpp **** }
 2146              		.loc 1 376 62 is_stmt 0
 2147 0938 93070020 		li	a5,512
 2148              	#APP
 2149              	# 376 "src/Interrupt.cpp" 1
 377:src/Interrupt.cpp ****  void Interrupt::userUnmaskSoft(){
 2150              		csrc sie, a5
 2151              	# 0 "" 2
 2152              		.loc 1 377 1
GAS LISTING /tmp/ccCs0PLf.s 			page 53


 2153              	#NO_APP
 2154 0940 03348100 		ld	s0,8(sp)
 2155              		.cfi_restore 8
 2156              		.cfi_def_cfa 2, 16
 2157 0944 13010101 		addi	sp,sp,16
 2158              		.cfi_def_cfa_offset 0
 2159 0948 67800000 		jr	ra
 2160              		.cfi_endproc
 2161              	.LFE38:
 2163              		.align	2
 2164              		.globl	_ZN9Interrupt14userUnmaskSoftEv
 2166              	_ZN9Interrupt14userUnmaskSoftEv:
 2167              	.LFB39:
 378:src/Interrupt.cpp ****     uint64 mask = 2;
 2168              		.loc 1 378 34 is_stmt 1
 2169              		.cfi_startproc
 2170 094c 130101FF 		addi	sp,sp,-16
 2171              		.cfi_def_cfa_offset 16
 2172 0950 23348100 		sd	s0,8(sp)
 2173              		.cfi_offset 8, -8
 2174 0954 13040101 		addi	s0,sp,16
 2175              		.cfi_def_cfa 8, 0
 379:src/Interrupt.cpp ****     __asm__ volatile("csrs sie, %[mask]" : : [mask]"r"(mask));
 2176              		.loc 1 379 5
 2177              	.LVL146:
 380:src/Interrupt.cpp **** }
 2178              		.loc 1 380 5
 380:src/Interrupt.cpp **** }
 2179              		.loc 1 380 62 is_stmt 0
 2180 0958 93072000 		li	a5,2
 2181              	#APP
 2182              	# 380 "src/Interrupt.cpp" 1
 381:src/Interrupt.cpp **** void Interrupt::userUnmaskHard(){
 2183              		csrs sie, a5
 2184              	# 0 "" 2
 2185              		.loc 1 381 1
 2186              	#NO_APP
 2187 0960 03348100 		ld	s0,8(sp)
 2188              		.cfi_restore 8
 2189              		.cfi_def_cfa 2, 16
 2190 0964 13010101 		addi	sp,sp,16
 2191              		.cfi_def_cfa_offset 0
 2192 0968 67800000 		jr	ra
 2193              		.cfi_endproc
 2194              	.LFE39:
 2196              		.align	2
 2197              		.globl	_ZN9Interrupt14userUnmaskHardEv
 2199              	_ZN9Interrupt14userUnmaskHardEv:
 2200              	.LFB40:
 382:src/Interrupt.cpp ****     uint64 mask = 512;
 2201              		.loc 1 382 33 is_stmt 1
 2202              		.cfi_startproc
 2203 096c 130101FF 		addi	sp,sp,-16
 2204              		.cfi_def_cfa_offset 16
 2205 0970 23348100 		sd	s0,8(sp)
 2206              		.cfi_offset 8, -8
 2207 0974 13040101 		addi	s0,sp,16
GAS LISTING /tmp/ccCs0PLf.s 			page 54


 2208              		.cfi_def_cfa 8, 0
 383:src/Interrupt.cpp ****     __asm__ volatile("csrs sie, %[mask]" : : [mask]"r"(mask));
 2209              		.loc 1 383 5
 2210              	.LVL147:
 384:src/Interrupt.cpp **** }
 2211              		.loc 1 384 5
 384:src/Interrupt.cpp **** }
 2212              		.loc 1 384 62 is_stmt 0
 2213 0978 93070020 		li	a5,512
 2214              	#APP
 2215              	# 384 "src/Interrupt.cpp" 1
 385:src/Interrupt.cpp **** 
 2216              		csrs sie, a5
 2217              	# 0 "" 2
 2218              		.loc 1 385 1
 2219              	#NO_APP
 2220 0980 03348100 		ld	s0,8(sp)
 2221              		.cfi_restore 8
 2222              		.cfi_def_cfa 2, 16
 2223 0984 13010101 		addi	sp,sp,16
 2224              		.cfi_def_cfa_offset 0
 2225 0988 67800000 		jr	ra
 2226              		.cfi_endproc
 2227              	.LFE40:
 2229              		.align	2
 2230              		.globl	_ZN9Interrupt19switchToSystemStackEv
 2232              	_ZN9Interrupt19switchToSystemStackEv:
 2233              	.LFB41:
 387:src/Interrupt.cpp ****     if(PCB::running != nullptr && enableSystemStack)
 2234              		.loc 1 387 39 is_stmt 1
 2235              		.cfi_startproc
 388:src/Interrupt.cpp ****     {
 2236              		.loc 1 388 5
 2237              	.LBB347:
 388:src/Interrupt.cpp ****     {
 2238              		.loc 1 388 21 is_stmt 0
 2239 098c 97070000 		la	a5,_ZN3PCB7runningE
 2239      83B70700 
 2240 0994 03B50700 		ld	a0,0(a5)
 388:src/Interrupt.cpp ****     {
 2241              		.loc 1 388 5
 2242 0998 63080500 		beqz	a0,.L115
 388:src/Interrupt.cpp ****     {
 2243              		.loc 1 388 32 discriminator 1
 2244 099c 97070000 		lbu	a5,.LANCHOR1
 2244      83C70700 
 2245 09a4 63940700 		bnez	a5,.L118
 2246              	.L115:
 2247 09a8 67800000 		ret
 2248              	.L118:
 2249              	.LBE347:
 387:src/Interrupt.cpp ****     if(PCB::running != nullptr && enableSystemStack)
 2250              		.loc 1 387 39
 2251 09ac 130101FE 		addi	sp,sp,-32
 2252              		.cfi_def_cfa_offset 32
 2253 09b0 233C1100 		sd	ra,24(sp)
 2254 09b4 23388100 		sd	s0,16(sp)
GAS LISTING /tmp/ccCs0PLf.s 			page 55


 2255 09b8 23349100 		sd	s1,8(sp)
 2256              		.cfi_offset 1, -8
 2257              		.cfi_offset 8, -16
 2258              		.cfi_offset 9, -24
 2259 09bc 13040102 		addi	s0,sp,32
 2260              		.cfi_def_cfa 8, 0
 2261              	.LBB349:
 2262              	.LBB348:
 390:src/Interrupt.cpp ****         __asm__ volatile("mv %[sp],sp" :  [sp]"=r"(sp));
 2263              		.loc 1 390 9 is_stmt 1
 390:src/Interrupt.cpp ****         __asm__ volatile("mv %[sp],sp" :  [sp]"=r"(sp));
 2264              		.loc 1 390 46 is_stmt 0
 2265 09c0 97000000 		call	_ZN3PCB6getSSPEv@plt
 2265      E7800000 
 2266              	.LVL148:
 2267 09c8 93040500 		mv	s1,a0
 2268              	.LVL149:
 391:src/Interrupt.cpp ****         PCB::running->setSP(sp);
 2269              		.loc 1 391 9 is_stmt 1
 391:src/Interrupt.cpp ****         PCB::running->setSP(sp);
 2270              		.loc 1 391 56 is_stmt 0
 2271              	#APP
 2272              	# 391 "src/Interrupt.cpp" 1
 2273              		mv a1,sp
 2274              	# 0 "" 2
 2275              	.LVL150:
 392:src/Interrupt.cpp ****         __asm__ volatile("mv sp, %[ssp]" : : [ssp]"r"(ssp));
 2276              		.loc 1 392 9 is_stmt 1
 392:src/Interrupt.cpp ****         __asm__ volatile("mv sp, %[ssp]" : : [ssp]"r"(ssp));
 2277              		.loc 1 392 28 is_stmt 0
 2278              	#NO_APP
 2279 09d0 97070000 		la	a5,_ZN3PCB7runningE
 2279      83B70700 
 2280 09d8 03B50700 		ld	a0,0(a5)
 2281 09dc 97000000 		call	_ZN3PCB5setSPEm@plt
 2281      E7800000 
 2282              	.LVL151:
 393:src/Interrupt.cpp ****     }
 2283              		.loc 1 393 9 is_stmt 1
 393:src/Interrupt.cpp ****     }
 2284              		.loc 1 393 60 is_stmt 0
 2285              	#APP
 2286              	# 393 "src/Interrupt.cpp" 1
 2287              		mv sp, s1
 2288              	# 0 "" 2
 2289              	#NO_APP
 2290              	.LBE348:
 2291              	.LBE349:
 396:src/Interrupt.cpp **** 
 2292              		.loc 1 396 1
 2293 09e8 83308101 		ld	ra,24(sp)
 2294              		.cfi_restore 1
 2295 09ec 03340101 		ld	s0,16(sp)
 2296              		.cfi_restore 8
 2297              		.cfi_def_cfa 2, 32
 2298 09f0 83348100 		ld	s1,8(sp)
 2299              		.cfi_restore 9
GAS LISTING /tmp/ccCs0PLf.s 			page 56


 2300              	.LVL152:
 2301 09f4 13010102 		addi	sp,sp,32
 2302              		.cfi_def_cfa_offset 0
 2303 09f8 67800000 		jr	ra
 2304              		.cfi_endproc
 2305              	.LFE41:
 2307              		.align	2
 2308              		.globl	_ZN9Interrupt17switchToUserStackEv
 2310              	_ZN9Interrupt17switchToUserStackEv:
 2311              	.LFB42:
 398:src/Interrupt.cpp ****     if(PCB::running != nullptr && enableSystemStack)
 2312              		.loc 1 398 37 is_stmt 1
 2313              		.cfi_startproc
 399:src/Interrupt.cpp ****     {
 2314              		.loc 1 399 5
 2315              	.LBB350:
 399:src/Interrupt.cpp ****     {
 2316              		.loc 1 399 21 is_stmt 0
 2317 09fc 97070000 		la	a5,_ZN3PCB7runningE
 2317      83B70700 
 2318 0a04 03B50700 		ld	a0,0(a5)
 399:src/Interrupt.cpp ****     {
 2319              		.loc 1 399 5
 2320 0a08 63080500 		beqz	a0,.L122
 399:src/Interrupt.cpp ****     {
 2321              		.loc 1 399 32 discriminator 1
 2322 0a0c 97070000 		lbu	a5,.LANCHOR1
 2322      83C70700 
 2323 0a14 63940700 		bnez	a5,.L125
 2324              	.L122:
 2325 0a18 67800000 		ret
 2326              	.L125:
 2327              	.LBE350:
 398:src/Interrupt.cpp ****     if(PCB::running != nullptr && enableSystemStack)
 2328              		.loc 1 398 37
 2329 0a1c 130101FE 		addi	sp,sp,-32
 2330              		.cfi_def_cfa_offset 32
 2331 0a20 233C1100 		sd	ra,24(sp)
 2332 0a24 23388100 		sd	s0,16(sp)
 2333 0a28 23349100 		sd	s1,8(sp)
 2334              		.cfi_offset 1, -8
 2335              		.cfi_offset 8, -16
 2336              		.cfi_offset 9, -24
 2337 0a2c 13040102 		addi	s0,sp,32
 2338              		.cfi_def_cfa 8, 0
 2339              	.LBB352:
 2340              	.LBB351:
 401:src/Interrupt.cpp ****         uint64 ssp;
 2341              		.loc 1 401 9 is_stmt 1
 401:src/Interrupt.cpp ****         uint64 ssp;
 2342              		.loc 1 401 40 is_stmt 0
 2343 0a30 97000000 		call	_ZN3PCB5getSPEv@plt
 2343      E7800000 
 2344              	.LVL153:
 2345 0a38 93040500 		mv	s1,a0
 2346              	.LVL154:
 402:src/Interrupt.cpp ****         __asm__ volatile("mv %[ssp] , sp" : [ssp]"=r"(ssp));
GAS LISTING /tmp/ccCs0PLf.s 			page 57


 2347              		.loc 1 402 9 is_stmt 1
 403:src/Interrupt.cpp ****         PCB::running->setSSP(ssp);
 2348              		.loc 1 403 9
 403:src/Interrupt.cpp ****         PCB::running->setSSP(ssp);
 2349              		.loc 1 403 60 is_stmt 0
 2350              	#APP
 2351              	# 403 "src/Interrupt.cpp" 1
 2352              		mv a1 , sp
 2353              	# 0 "" 2
 2354              	.LVL155:
 404:src/Interrupt.cpp ****         __asm__ volatile("mv sp, %[sp]" : : [sp]"r"(sp));
 2355              		.loc 1 404 9 is_stmt 1
 404:src/Interrupt.cpp ****         __asm__ volatile("mv sp, %[sp]" : : [sp]"r"(sp));
 2356              		.loc 1 404 29 is_stmt 0
 2357              	#NO_APP
 2358 0a40 97070000 		la	a5,_ZN3PCB7runningE
 2358      83B70700 
 2359 0a48 03B50700 		ld	a0,0(a5)
 2360 0a4c 97000000 		call	_ZN3PCB6setSSPEm@plt
 2360      E7800000 
 2361              	.LVL156:
 405:src/Interrupt.cpp ****     }
 2362              		.loc 1 405 9 is_stmt 1
 405:src/Interrupt.cpp ****     }
 2363              		.loc 1 405 57 is_stmt 0
 2364              	#APP
 2365              	# 405 "src/Interrupt.cpp" 1
 2366              		mv sp, s1
 2367              	# 0 "" 2
 2368              	#NO_APP
 2369              	.LBE351:
 2370              	.LBE352:
 407:src/Interrupt.cpp **** 
 2371              		.loc 1 407 1
 2372 0a58 83308101 		ld	ra,24(sp)
 2373              		.cfi_restore 1
 2374 0a5c 03340101 		ld	s0,16(sp)
 2375              		.cfi_restore 8
 2376              		.cfi_def_cfa 2, 32
 2377 0a60 83348100 		ld	s1,8(sp)
 2378              		.cfi_restore 9
 2379              	.LVL157:
 2380 0a64 13010102 		addi	sp,sp,32
 2381              		.cfi_def_cfa_offset 0
 2382 0a68 67800000 		jr	ra
 2383              		.cfi_endproc
 2384              	.LFE42:
 2386              		.globl	_ZN9Interrupt17enableSystemStackE
 2387              		.globl	_ZN9Interrupt8lock_varE
 2388              		.globl	_ZN9Interrupt11prevSstatusE
 2389              		.data
 2390              		.align	3
 2391              		.set	.LANCHOR0,. + 0
 2394              	_ZN9Interrupt8lock_varE:
 2395 0000 01000000 		.word	1
 2396 0004 00000000 		.zero	4
 2399              	_ZN9Interrupt11prevSstatusE:
GAS LISTING /tmp/ccCs0PLf.s 			page 58


 2400 0008 02000000 		.dword	2
 2400      00000000 
 2401              		.bss
 2402              		.set	.LANCHOR1,. + 0
 2405              	_ZN9Interrupt17enableSystemStackE:
 2406 0000 00       		.zero	1
 2407              		.text
 2408              	.Letext0:
 2409              		.file 2 "src/../h/../lib/hw.h"
 2410              		.file 3 "src/../h/../h/../h/../h/syscall_c.h"
 2411              		.file 4 "src/../h/../h/../h/PCB_List.h"
 2412              		.file 5 "src/../h/../h/PCB.h"
 2413              		.file 6 "src/../h/../h/../h/MemoryAllocator.h"
 2414              		.file 7 "src/../h/../h/Sem.h"
 2415              		.file 8 "src/../h/../h/../h/Scheduler.h"
 2416              		.file 9 "src/../h/Interrupt.h"
 2417              		.file 10 "src/../h/Cons.hpp"
GAS LISTING /tmp/ccCs0PLf.s 			page 59

