GAS LISTING /tmp/ccSYaOxH.s 			page 1


   1              		.file	"MemoryAllocator.cpp"
   2              		.option pic
   3              		.option norelax
   4              		.text
   5              	.Ltext0:
   6              		.align	2
   7              		.globl	_ZN15MemoryAllocator9mem_allocEm
   9              	_ZN15MemoryAllocator9mem_allocEm:
  10              	.LFB0:
  11              		.file 1 "src/MemoryAllocator.cpp"
   1:src/MemoryAllocator.cpp **** //
   2:src/MemoryAllocator.cpp **** // Created by os on 4/22/22.
   3:src/MemoryAllocator.cpp **** //
   4:src/MemoryAllocator.cpp **** #include "../h/MemoryAllocator.h"
   5:src/MemoryAllocator.cpp **** 
   6:src/MemoryAllocator.cpp **** 
   7:src/MemoryAllocator.cpp **** 
   8:src/MemoryAllocator.cpp **** 
   9:src/MemoryAllocator.cpp **** void *MemoryAllocator::mem_alloc(size_t size) {
  12              		.loc 1 9 47
  13              		.cfi_startproc
  14              	.LVL0:
  15 0000 130101FF 		addi	sp,sp,-16
  16              		.cfi_def_cfa_offset 16
  17 0004 23341100 		sd	ra,8(sp)
  18 0008 23308100 		sd	s0,0(sp)
  19              		.cfi_offset 1, -8
  20              		.cfi_offset 8, -16
  21 000c 13040101 		addi	s0,sp,16
  22              		.cfi_def_cfa 8, 0
  10:src/MemoryAllocator.cpp ****     return FreeShardList::find_best(size);
  23              		.loc 1 10 5
  24              		.loc 1 10 36 is_stmt 0
  25 0010 97000000 		call	_ZN13FreeShardList9find_bestEm@plt
  25      E7800000 
  26              	.LVL1:
  11:src/MemoryAllocator.cpp **** 
  12:src/MemoryAllocator.cpp **** }
  27              		.loc 1 12 1
  28 0018 83308100 		ld	ra,8(sp)
  29              		.cfi_restore 1
  30 001c 03340100 		ld	s0,0(sp)
  31              		.cfi_restore 8
  32              		.cfi_def_cfa 2, 16
  33 0020 13010101 		addi	sp,sp,16
  34              		.cfi_def_cfa_offset 0
  35 0024 67800000 		jr	ra
  36              		.cfi_endproc
  37              	.LFE0:
  39              		.align	2
  40              		.globl	_ZN15MemoryAllocator8mem_freeEPv
  42              	_ZN15MemoryAllocator8mem_freeEPv:
  43              	.LFB1:
  13:src/MemoryAllocator.cpp **** 
  14:src/MemoryAllocator.cpp **** int MemoryAllocator::mem_free(void * mem) {
  44              		.loc 1 14 43 is_stmt 1
  45              		.cfi_startproc
GAS LISTING /tmp/ccSYaOxH.s 			page 2


  46              	.LVL2:
  47 0028 130101FF 		addi	sp,sp,-16
  48              		.cfi_def_cfa_offset 16
  49 002c 23341100 		sd	ra,8(sp)
  50 0030 23308100 		sd	s0,0(sp)
  51              		.cfi_offset 1, -8
  52              		.cfi_offset 8, -16
  53 0034 13040101 		addi	s0,sp,16
  54              		.cfi_def_cfa 8, 0
  15:src/MemoryAllocator.cpp ****     return FreeShardList::free_memory(mem);
  55              		.loc 1 15 5
  56              		.loc 1 15 38 is_stmt 0
  57 0038 97000000 		call	_ZN13FreeShardList11free_memoryEPv@plt
  57      E7800000 
  58              	.LVL3:
  16:src/MemoryAllocator.cpp **** 
  17:src/MemoryAllocator.cpp **** 
  18:src/MemoryAllocator.cpp **** }
  59              		.loc 1 18 1
  60 0040 83308100 		ld	ra,8(sp)
  61              		.cfi_restore 1
  62 0044 03340100 		ld	s0,0(sp)
  63              		.cfi_restore 8
  64              		.cfi_def_cfa 2, 16
  65 0048 13010101 		addi	sp,sp,16
  66              		.cfi_def_cfa_offset 0
  67 004c 67800000 		jr	ra
  68              		.cfi_endproc
  69              	.LFE1:
  71              	.Letext0:
  72              		.file 2 "src/../h/../lib/hw.h"
  73              		.file 3 "src/../h/../h/syscall_c.h"
  74              		.file 4 "src/../h/FreeShardList.h"
  75              		.file 5 "src/../h/MemoryAllocator.h"
GAS LISTING /tmp/ccSYaOxH.s 			page 3

