GAS LISTING /tmp/ccEAN7oS.s 			page 1


   1              		.file	"PCB.cpp"
   2              		.option pic
   3              		.option norelax
   4              		.text
   5              	.Ltext0:
   6              		.align	2
   7              		.globl	_ZN3PCB7getNextEv
   9              	_ZN3PCB7getNextEv:
  10              	.LFB0:
  11              		.file 1 "src/PCB.cpp"
   1:src/PCB.cpp   **** #include "../h/PCB.h"
   2:src/PCB.cpp   **** 
   3:src/PCB.cpp   **** PCB* PCB::running = nullptr;
   4:src/PCB.cpp   **** uint64 PCB::timeLeft = 0;
   5:src/PCB.cpp   **** PCB_List* PCB::sleeping_list = nullptr;
   6:src/PCB.cpp   **** int PCB::id_cnt = 0;
   7:src/PCB.cpp   **** bool PCB::isMain = true;
   8:src/PCB.cpp   **** bool PCB::isPeriodicBlocked = false;
   9:src/PCB.cpp   **** PCB_List* PCB::perioThreads = nullptr;
  10:src/PCB.cpp   **** 
  11:src/PCB.cpp   **** 
  12:src/PCB.cpp   **** PCB *PCB::getNext() {
  12              		.loc 1 12 21
  13              		.cfi_startproc
  14              	.LVL0:
  15 0000 130101FF 		addi	sp,sp,-16
  16              		.cfi_def_cfa_offset 16
  17 0004 23348100 		sd	s0,8(sp)
  18              		.cfi_offset 8, -8
  19 0008 13040101 		addi	s0,sp,16
  20              		.cfi_def_cfa 8, 0
  13:src/PCB.cpp   ****     return this->next_scheduler;
  21              		.loc 1 13 5
  14:src/PCB.cpp   **** }
  22              		.loc 1 14 1 is_stmt 0
  23 000c 03358500 		ld	a0,8(a0)
  24              	.LVL1:
  25 0010 03348100 		ld	s0,8(sp)
  26              		.cfi_restore 8
  27              		.cfi_def_cfa 2, 16
  28 0014 13010101 		addi	sp,sp,16
  29              		.cfi_def_cfa_offset 0
  30 0018 67800000 		jr	ra
  31              		.cfi_endproc
  32              	.LFE0:
  34              		.align	2
  35              		.globl	_ZN3PCB7setNextEPS_
  37              	_ZN3PCB7setNextEPS_:
  38              	.LFB1:
  15:src/PCB.cpp   **** 
  16:src/PCB.cpp   **** void PCB::setNext(PCB *next) {
  39              		.loc 1 16 30 is_stmt 1
  40              		.cfi_startproc
  41              	.LVL2:
  42 001c 130101FF 		addi	sp,sp,-16
  43              		.cfi_def_cfa_offset 16
  44 0020 23348100 		sd	s0,8(sp)
GAS LISTING /tmp/ccEAN7oS.s 			page 2


  45              		.cfi_offset 8, -8
  46 0024 13040101 		addi	s0,sp,16
  47              		.cfi_def_cfa 8, 0
  17:src/PCB.cpp   ****     this->next_scheduler = next;
  48              		.loc 1 17 5
  49              		.loc 1 17 26 is_stmt 0
  50 0028 2334B500 		sd	a1,8(a0)
  18:src/PCB.cpp   **** }
  51              		.loc 1 18 1
  52 002c 03348100 		ld	s0,8(sp)
  53              		.cfi_restore 8
  54              		.cfi_def_cfa 2, 16
  55 0030 13010101 		addi	sp,sp,16
  56              		.cfi_def_cfa_offset 0
  57 0034 67800000 		jr	ra
  58              		.cfi_endproc
  59              	.LFE1:
  61              		.align	2
  62              		.globl	_ZN3PCBC2EPFvPvES0_Pmm
  64              	_ZN3PCBC2EPFvPvES0_Pmm:
  65              	.LFB3:
  19:src/PCB.cpp   **** 
  20:src/PCB.cpp   **** PCB::PCB(Body body,void* args,uint64 * stac,uint64 timeSlice) {
  66              		.loc 1 20 1 is_stmt 1
  67              		.cfi_startproc
  68              	.LVL3:
  69 0038 130101FF 		addi	sp,sp,-16
  70              		.cfi_def_cfa_offset 16
  71 003c 23348100 		sd	s0,8(sp)
  72              		.cfi_offset 8, -8
  73 0040 13040101 		addi	s0,sp,16
  74              		.cfi_def_cfa 8, 0
  75              	.LBB6:
  21:src/PCB.cpp   ****     next_scheduler = nullptr;
  76              		.loc 1 21 5
  77              		.loc 1 21 20 is_stmt 0
  78 0044 23340500 		sd	zero,8(a0)
  22:src/PCB.cpp   ****     stack = stac;
  79              		.loc 1 22 5 is_stmt 1
  80              		.loc 1 22 11 is_stmt 0
  81 0048 2338D500 		sd	a3,16(a0)
  23:src/PCB.cpp   ****     context.sp = (uint64) &stack[DEFAULT_STACK_SIZE * 2];
  82              		.loc 1 23 5 is_stmt 1
  83              		.loc 1 23 27 is_stmt 0
  84 004c B7070100 		li	a5,65536
  85 0050 B386F600 		add	a3,a3,a5
  86              	.LVL4:
  87              		.loc 1 23 16
  88 0054 2338D502 		sd	a3,48(a0)
  24:src/PCB.cpp   ****     context.ra = (uint64) &threadWrapper;
  89              		.loc 1 24 5 is_stmt 1
  90              		.loc 1 24 16 is_stmt 0
  91 0058 97070000 		lla	a5,_ZN3PCB13threadWrapperEv
  91      93870700 
  92 0060 2334F502 		sd	a5,40(a0)
  25:src/PCB.cpp   ****     this->body = body;
  93              		.loc 1 25 5 is_stmt 1
GAS LISTING /tmp/ccEAN7oS.s 			page 3


  94              		.loc 1 25 16 is_stmt 0
  95 0064 2338B504 		sd	a1,80(a0)
  26:src/PCB.cpp   ****     this->isPeriodic = false;
  96              		.loc 1 26 5 is_stmt 1
  97              		.loc 1 26 22 is_stmt 0
  98 0068 A3000500 		sb	zero,1(a0)
  27:src/PCB.cpp   ****     this->timeSlice = timeSlice;
  99              		.loc 1 27 5 is_stmt 1
 100              		.loc 1 27 21 is_stmt 0
 101 006c 2330E504 		sd	a4,64(a0)
  28:src/PCB.cpp   ****     this->args = args;
 102              		.loc 1 28 5 is_stmt 1
 103              		.loc 1 28 16 is_stmt 0
 104 0070 2330C502 		sd	a2,32(a0)
  29:src/PCB.cpp   ****     finished = false;
 105              		.loc 1 29 5 is_stmt 1
 106              		.loc 1 29 14 is_stmt 0
 107 0074 23040504 		sb	zero,72(a0)
  30:src/PCB.cpp   ****     isBlocked = false;
 108              		.loc 1 30 5 is_stmt 1
 109              		.loc 1 30 15 is_stmt 0
 110 0078 A3040504 		sb	zero,73(a0)
  31:src/PCB.cpp   ****     isSleeping = false;
 111              		.loc 1 31 5 is_stmt 1
 112              		.loc 1 31 16 is_stmt 0
 113 007c 23050504 		sb	zero,74(a0)
  32:src/PCB.cpp   ****     unblockError = false;
 114              		.loc 1 32 5 is_stmt 1
 115              		.loc 1 32 18 is_stmt 0
 116 0080 23000500 		sb	zero,0(a0)
 117              	.LBE6:
  33:src/PCB.cpp   **** 
  34:src/PCB.cpp   **** 
  35:src/PCB.cpp   **** }
 118              		.loc 1 35 1
 119 0084 03348100 		ld	s0,8(sp)
 120              		.cfi_restore 8
 121              		.cfi_def_cfa 2, 16
 122 0088 13010101 		addi	sp,sp,16
 123              		.cfi_def_cfa_offset 0
 124 008c 67800000 		jr	ra
 125              		.cfi_endproc
 126              	.LFE3:
 128              		.globl	_ZN3PCBC1EPFvPvES0_Pmm
 129              		.set	_ZN3PCBC1EPFvPvES0_Pmm,_ZN3PCBC2EPFvPvES0_Pmm
 130              		.align	2
 131              		.globl	_ZN3PCB11setFinishedEb
 133              	_ZN3PCB11setFinishedEb:
 134              	.LFB6:
  36:src/PCB.cpp   **** 
  37:src/PCB.cpp   **** void PCB::threadWrapper() {
  38:src/PCB.cpp   ****     Interrupt::popSppSpie();
  39:src/PCB.cpp   ****     void* args = running->getArgs();
  40:src/PCB.cpp   ****     running->body(args);
  41:src/PCB.cpp   ****     thread_exit();
  42:src/PCB.cpp   **** 
  43:src/PCB.cpp   **** }
GAS LISTING /tmp/ccEAN7oS.s 			page 4


  44:src/PCB.cpp   **** 
  45:src/PCB.cpp   **** void PCB::setFinished(bool f) {
 135              		.loc 1 45 31 is_stmt 1
 136              		.cfi_startproc
 137              	.LVL5:
 138 0090 130101FF 		addi	sp,sp,-16
 139              		.cfi_def_cfa_offset 16
 140 0094 23348100 		sd	s0,8(sp)
 141              		.cfi_offset 8, -8
 142 0098 13040101 		addi	s0,sp,16
 143              		.cfi_def_cfa 8, 0
  46:src/PCB.cpp   ****     finished = f;
 144              		.loc 1 46 5
 145              		.loc 1 46 14 is_stmt 0
 146 009c 2304B504 		sb	a1,72(a0)
  47:src/PCB.cpp   **** }
 147              		.loc 1 47 1
 148 00a0 03348100 		ld	s0,8(sp)
 149              		.cfi_restore 8
 150              		.cfi_def_cfa 2, 16
 151 00a4 13010101 		addi	sp,sp,16
 152              		.cfi_def_cfa_offset 0
 153 00a8 67800000 		jr	ra
 154              		.cfi_endproc
 155              	.LFE6:
 157              		.align	2
 158              		.globl	_ZN3PCB13checkFinishedEv
 160              	_ZN3PCB13checkFinishedEv:
 161              	.LFB7:
  48:src/PCB.cpp   **** 
  49:src/PCB.cpp   **** bool PCB::checkFinished() {
 162              		.loc 1 49 27 is_stmt 1
 163              		.cfi_startproc
 164              	.LVL6:
 165 00ac 130101FF 		addi	sp,sp,-16
 166              		.cfi_def_cfa_offset 16
 167 00b0 23348100 		sd	s0,8(sp)
 168              		.cfi_offset 8, -8
 169 00b4 13040101 		addi	s0,sp,16
 170              		.cfi_def_cfa 8, 0
  50:src/PCB.cpp   ****     return finished;
 171              		.loc 1 50 5
  51:src/PCB.cpp   **** }
 172              		.loc 1 51 1 is_stmt 0
 173 00b8 03458504 		lbu	a0,72(a0)
 174              	.LVL7:
 175 00bc 03348100 		ld	s0,8(sp)
 176              		.cfi_restore 8
 177              		.cfi_def_cfa 2, 16
 178 00c0 13010101 		addi	sp,sp,16
 179              		.cfi_def_cfa_offset 0
 180 00c4 67800000 		jr	ra
 181              		.cfi_endproc
 182              	.LFE7:
 184              		.align	2
 185              		.globl	_ZN3PCB7setArgsEPv
 187              	_ZN3PCB7setArgsEPv:
GAS LISTING /tmp/ccEAN7oS.s 			page 5


 188              	.LFB9:
  52:src/PCB.cpp   **** 
  53:src/PCB.cpp   **** void PCB::dispatch() {
  54:src/PCB.cpp   ****     PCB* old = running;
  55:src/PCB.cpp   ****     if(old->isPeriodic && PCB::isPeriodicBlocked) {
  56:src/PCB.cpp   ****         PCB::perioThreads->put(old);
  57:src/PCB.cpp   ****     }
  58:src/PCB.cpp   ****     else if(!old->checkFinished()&&!old->checkBlocked()&&!old->checkSleeping())Scheduler::put(old);
  59:src/PCB.cpp   ****     running = Scheduler::get();
  60:src/PCB.cpp   ****     if(running->my_id == '0') ms_status(Interrupt::SSTATUS_SPP);
  61:src/PCB.cpp   ****     else mc_status(Interrupt::SSTATUS_SPP);
  62:src/PCB.cpp   ****     contextSwitch(&old->context,&running->context);
  63:src/PCB.cpp   **** 
  64:src/PCB.cpp   **** }
  65:src/PCB.cpp   **** 
  66:src/PCB.cpp   **** void PCB::setArgs(void *arg) {
 189              		.loc 1 66 30 is_stmt 1
 190              		.cfi_startproc
 191              	.LVL8:
 192 00c8 130101FF 		addi	sp,sp,-16
 193              		.cfi_def_cfa_offset 16
 194 00cc 23348100 		sd	s0,8(sp)
 195              		.cfi_offset 8, -8
 196 00d0 13040101 		addi	s0,sp,16
 197              		.cfi_def_cfa 8, 0
  67:src/PCB.cpp   ****     this->args = arg;
 198              		.loc 1 67 5
 199              		.loc 1 67 16 is_stmt 0
 200 00d4 2330B502 		sd	a1,32(a0)
  68:src/PCB.cpp   **** }
 201              		.loc 1 68 1
 202 00d8 03348100 		ld	s0,8(sp)
 203              		.cfi_restore 8
 204              		.cfi_def_cfa 2, 16
 205 00dc 13010101 		addi	sp,sp,16
 206              		.cfi_def_cfa_offset 0
 207 00e0 67800000 		jr	ra
 208              		.cfi_endproc
 209              	.LFE9:
 211              		.align	2
 212              		.globl	_ZN3PCB7getArgsEv
 214              	_ZN3PCB7getArgsEv:
 215              	.LFB10:
  69:src/PCB.cpp   **** 
  70:src/PCB.cpp   **** void *PCB::getArgs() {
 216              		.loc 1 70 22 is_stmt 1
 217              		.cfi_startproc
 218              	.LVL9:
 219 00e4 130101FF 		addi	sp,sp,-16
 220              		.cfi_def_cfa_offset 16
 221 00e8 23348100 		sd	s0,8(sp)
 222              		.cfi_offset 8, -8
 223 00ec 13040101 		addi	s0,sp,16
 224              		.cfi_def_cfa 8, 0
  71:src/PCB.cpp   ****     return this->args;
 225              		.loc 1 71 5
  72:src/PCB.cpp   **** }
GAS LISTING /tmp/ccEAN7oS.s 			page 6


 226              		.loc 1 72 1 is_stmt 0
 227 00f0 03350502 		ld	a0,32(a0)
 228              	.LVL10:
 229 00f4 03348100 		ld	s0,8(sp)
 230              		.cfi_restore 8
 231              		.cfi_def_cfa 2, 16
 232 00f8 13010101 		addi	sp,sp,16
 233              		.cfi_def_cfa_offset 0
 234 00fc 67800000 		jr	ra
 235              		.cfi_endproc
 236              	.LFE10:
 238              		.align	2
 239              		.globl	_ZN3PCB13threadWrapperEv
 241              	_ZN3PCB13threadWrapperEv:
 242              	.LFB5:
  37:src/PCB.cpp   ****     Interrupt::popSppSpie();
 243              		.loc 1 37 27 is_stmt 1
 244              		.cfi_startproc
 245 0100 130101FE 		addi	sp,sp,-32
 246              		.cfi_def_cfa_offset 32
 247 0104 233C1100 		sd	ra,24(sp)
 248 0108 23388100 		sd	s0,16(sp)
 249 010c 23349100 		sd	s1,8(sp)
 250              		.cfi_offset 1, -8
 251              		.cfi_offset 8, -16
 252              		.cfi_offset 9, -24
 253 0110 13040102 		addi	s0,sp,32
 254              		.cfi_def_cfa 8, 0
  38:src/PCB.cpp   ****     void* args = running->getArgs();
 255              		.loc 1 38 5
  38:src/PCB.cpp   ****     void* args = running->getArgs();
 256              		.loc 1 38 26 is_stmt 0
 257 0114 97000000 		call	_ZN9Interrupt10popSppSpieEv@plt
 257      E7800000 
 258              	.LVL11:
  39:src/PCB.cpp   ****     running->body(args);
 259              		.loc 1 39 5 is_stmt 1
  39:src/PCB.cpp   ****     running->body(args);
 260              		.loc 1 39 34 is_stmt 0
 261 011c 97040000 		ld	s1,.LANCHOR0
 261      83B40400 
 262 0124 13850400 		mv	a0,s1
 263 0128 97000000 		call	_ZN3PCB7getArgsEv
 263      E7800000 
 264              	.LVL12:
  40:src/PCB.cpp   ****     thread_exit();
 265              		.loc 1 40 5 is_stmt 1
  40:src/PCB.cpp   ****     thread_exit();
 266              		.loc 1 40 14 is_stmt 0
 267 0130 83B70405 		ld	a5,80(s1)
  40:src/PCB.cpp   ****     thread_exit();
 268              		.loc 1 40 18
 269 0134 E7800700 		jalr	a5
 270              	.LVL13:
  41:src/PCB.cpp   **** 
 271              		.loc 1 41 5 is_stmt 1
  41:src/PCB.cpp   **** 
GAS LISTING /tmp/ccEAN7oS.s 			page 7


 272              		.loc 1 41 16 is_stmt 0
 273 0138 97000000 		call	thread_exit@plt
 273      E7800000 
 274              	.LVL14:
  43:src/PCB.cpp   **** 
 275              		.loc 1 43 1
 276 0140 83308101 		ld	ra,24(sp)
 277              		.cfi_restore 1
 278 0144 03340101 		ld	s0,16(sp)
 279              		.cfi_restore 8
 280              		.cfi_def_cfa 2, 32
 281 0148 83348100 		ld	s1,8(sp)
 282              		.cfi_restore 9
 283 014c 13010102 		addi	sp,sp,32
 284              		.cfi_def_cfa_offset 0
 285 0150 67800000 		jr	ra
 286              		.cfi_endproc
 287              	.LFE5:
 289              		.align	2
 290              		.globl	_ZN3PCB11allocatePCBEv
 292              	_ZN3PCB11allocatePCBEv:
 293              	.LFB12:
  73:src/PCB.cpp   **** 
  74:src/PCB.cpp   **** void PCB::start() {
  75:src/PCB.cpp   ****     if(running == nullptr) {
  76:src/PCB.cpp   ****         running = this;
  77:src/PCB.cpp   ****         running->setId('m');
  78:src/PCB.cpp   ****     }
  79:src/PCB.cpp   ****     else {
  80:src/PCB.cpp   ****         this->setId('0' + PCB::id_cnt++);
  81:src/PCB.cpp   ****         Scheduler::put(this);
  82:src/PCB.cpp   **** 
  83:src/PCB.cpp   ****     }
  84:src/PCB.cpp   **** }
  85:src/PCB.cpp   **** 
  86:src/PCB.cpp   **** void *PCB::allocatePCB() {
 294              		.loc 1 86 26 is_stmt 1
 295              		.cfi_startproc
 296 0154 130101FF 		addi	sp,sp,-16
 297              		.cfi_def_cfa_offset 16
 298 0158 23341100 		sd	ra,8(sp)
 299 015c 23308100 		sd	s0,0(sp)
 300              		.cfi_offset 1, -8
 301              		.cfi_offset 8, -16
 302 0160 13040101 		addi	s0,sp,16
 303              		.cfi_def_cfa 8, 0
  87:src/PCB.cpp   ****     uint64 size = sizeof (PCB) + ALLOCATED_HEADER_SIZE;
 304              		.loc 1 87 5
 305              	.LVL15:
  88:src/PCB.cpp   ****     uint64 inBlocks = size/MEM_BLOCK_SIZE;
 306              		.loc 1 88 5
  89:src/PCB.cpp   ****     if(size%MEM_BLOCK_SIZE!=0){
 307              		.loc 1 89 5
  90:src/PCB.cpp   ****         inBlocks++;
 308              		.loc 1 90 9
  91:src/PCB.cpp   ****     }
  92:src/PCB.cpp   ****     inBlocks*=MEM_BLOCK_SIZE;
GAS LISTING /tmp/ccEAN7oS.s 			page 8


 309              		.loc 1 92 5
  93:src/PCB.cpp   ****     void* retAdr = MemoryAllocator::mem_alloc((size_t) inBlocks);
 310              		.loc 1 93 5
 311              		.loc 1 93 46 is_stmt 0
 312 0164 13050008 		li	a0,128
 313 0168 97000000 		call	_ZN15MemoryAllocator9mem_allocEm@plt
 313      E7800000 
 314              	.LVL16:
  94:src/PCB.cpp   ****     long* header = (long*) retAdr;
 315              		.loc 1 94 5 is_stmt 1
  95:src/PCB.cpp   ****     inBlocks/=MEM_BLOCK_SIZE;
 316              		.loc 1 95 5
  96:src/PCB.cpp   ****     *header = inBlocks;
 317              		.loc 1 96 5
 318              		.loc 1 96 13 is_stmt 0
 319 0170 93072000 		li	a5,2
 320 0174 2330F500 		sd	a5,0(a0)
  97:src/PCB.cpp   ****     header++;
 321              		.loc 1 97 5 is_stmt 1
 322              	.LVL17:
  98:src/PCB.cpp   ****     void* ret = (void*)header;
 323              		.loc 1 98 5
  99:src/PCB.cpp   ****     return ret;
 324              		.loc 1 99 5
 100:src/PCB.cpp   **** }
 325              		.loc 1 100 1 is_stmt 0
 326 0178 13058500 		addi	a0,a0,8
 327              	.LVL18:
 328 017c 83308100 		ld	ra,8(sp)
 329              		.cfi_restore 1
 330 0180 03340100 		ld	s0,0(sp)
 331              		.cfi_restore 8
 332              		.cfi_def_cfa 2, 16
 333 0184 13010101 		addi	sp,sp,16
 334              		.cfi_def_cfa_offset 0
 335 0188 67800000 		jr	ra
 336              		.cfi_endproc
 337              	.LFE12:
 339              		.align	2
 340              		.globl	_ZN3PCB10setContextEmm
 342              	_ZN3PCB10setContextEmm:
 343              	.LFB13:
 101:src/PCB.cpp   **** 
 102:src/PCB.cpp   **** void PCB::setContext(uint64 ra, uint64 sp) {
 344              		.loc 1 102 44 is_stmt 1
 345              		.cfi_startproc
 346              	.LVL19:
 347 018c 130101FF 		addi	sp,sp,-16
 348              		.cfi_def_cfa_offset 16
 349 0190 23348100 		sd	s0,8(sp)
 350              		.cfi_offset 8, -8
 351 0194 13040101 		addi	s0,sp,16
 352              		.cfi_def_cfa 8, 0
 103:src/PCB.cpp   ****     this->context.ra = ra;
 353              		.loc 1 103 5
 354              		.loc 1 103 22 is_stmt 0
 355 0198 2334B502 		sd	a1,40(a0)
GAS LISTING /tmp/ccEAN7oS.s 			page 9


 104:src/PCB.cpp   ****     this->context.sp = sp;
 356              		.loc 1 104 5 is_stmt 1
 357              		.loc 1 104 22 is_stmt 0
 358 019c 2338C502 		sd	a2,48(a0)
 105:src/PCB.cpp   **** }
 359              		.loc 1 105 1
 360 01a0 03348100 		ld	s0,8(sp)
 361              		.cfi_restore 8
 362              		.cfi_def_cfa 2, 16
 363 01a4 13010101 		addi	sp,sp,16
 364              		.cfi_def_cfa_offset 0
 365 01a8 67800000 		jr	ra
 366              		.cfi_endproc
 367              	.LFE13:
 369              		.align	2
 370              		.globl	_ZN3PCB12checkBlockedEv
 372              	_ZN3PCB12checkBlockedEv:
 373              	.LFB14:
 106:src/PCB.cpp   **** 
 107:src/PCB.cpp   **** bool PCB::checkBlocked() {
 374              		.loc 1 107 26 is_stmt 1
 375              		.cfi_startproc
 376              	.LVL20:
 377 01ac 130101FF 		addi	sp,sp,-16
 378              		.cfi_def_cfa_offset 16
 379 01b0 23348100 		sd	s0,8(sp)
 380              		.cfi_offset 8, -8
 381 01b4 13040101 		addi	s0,sp,16
 382              		.cfi_def_cfa 8, 0
 108:src/PCB.cpp   ****     return isBlocked;
 383              		.loc 1 108 5
 109:src/PCB.cpp   **** }
 384              		.loc 1 109 1 is_stmt 0
 385 01b8 03459504 		lbu	a0,73(a0)
 386              	.LVL21:
 387 01bc 03348100 		ld	s0,8(sp)
 388              		.cfi_restore 8
 389              		.cfi_def_cfa 2, 16
 390 01c0 13010101 		addi	sp,sp,16
 391              		.cfi_def_cfa_offset 0
 392 01c4 67800000 		jr	ra
 393              		.cfi_endproc
 394              	.LFE14:
 396              		.align	2
 397              		.globl	_ZN3PCB10setBlockedEb
 399              	_ZN3PCB10setBlockedEb:
 400              	.LFB15:
 110:src/PCB.cpp   **** 
 111:src/PCB.cpp   **** void PCB::setBlocked(bool f) {
 401              		.loc 1 111 30 is_stmt 1
 402              		.cfi_startproc
 403              	.LVL22:
 404 01c8 130101FF 		addi	sp,sp,-16
 405              		.cfi_def_cfa_offset 16
 406 01cc 23348100 		sd	s0,8(sp)
 407              		.cfi_offset 8, -8
 408 01d0 13040101 		addi	s0,sp,16
GAS LISTING /tmp/ccEAN7oS.s 			page 10


 409              		.cfi_def_cfa 8, 0
 112:src/PCB.cpp   ****     isBlocked = f;
 410              		.loc 1 112 5
 411              		.loc 1 112 15 is_stmt 0
 412 01d4 A304B504 		sb	a1,73(a0)
 113:src/PCB.cpp   **** }
 413              		.loc 1 113 1
 414 01d8 03348100 		ld	s0,8(sp)
 415              		.cfi_restore 8
 416              		.cfi_def_cfa 2, 16
 417 01dc 13010101 		addi	sp,sp,16
 418              		.cfi_def_cfa_offset 0
 419 01e0 67800000 		jr	ra
 420              		.cfi_endproc
 421              	.LFE15:
 423              		.align	2
 424              		.globl	_ZN3PCB5setIdEc
 426              	_ZN3PCB5setIdEc:
 427              	.LFB16:
 114:src/PCB.cpp   **** 
 115:src/PCB.cpp   **** void PCB::setId(char id) {
 428              		.loc 1 115 26 is_stmt 1
 429              		.cfi_startproc
 430              	.LVL23:
 431 01e4 130101FF 		addi	sp,sp,-16
 432              		.cfi_def_cfa_offset 16
 433 01e8 23348100 		sd	s0,8(sp)
 434              		.cfi_offset 8, -8
 435 01ec 13040101 		addi	s0,sp,16
 436              		.cfi_def_cfa 8, 0
 116:src/PCB.cpp   ****     this->my_id = id;
 437              		.loc 1 116 5
 438              		.loc 1 116 17 is_stmt 0
 439 01f0 A305B504 		sb	a1,75(a0)
 117:src/PCB.cpp   **** }
 440              		.loc 1 117 1
 441 01f4 03348100 		ld	s0,8(sp)
 442              		.cfi_restore 8
 443              		.cfi_def_cfa 2, 16
 444 01f8 13010101 		addi	sp,sp,16
 445              		.cfi_def_cfa_offset 0
 446 01fc 67800000 		jr	ra
 447              		.cfi_endproc
 448              	.LFE16:
 450              		.align	2
 451              		.globl	_ZN3PCB5startEv
 453              	_ZN3PCB5startEv:
 454              	.LFB11:
  74:src/PCB.cpp   ****     if(running == nullptr) {
 455              		.loc 1 74 19 is_stmt 1
 456              		.cfi_startproc
 457              	.LVL24:
 458 0200 130101FE 		addi	sp,sp,-32
 459              		.cfi_def_cfa_offset 32
 460 0204 233C1100 		sd	ra,24(sp)
 461 0208 23388100 		sd	s0,16(sp)
 462 020c 23349100 		sd	s1,8(sp)
GAS LISTING /tmp/ccEAN7oS.s 			page 11


 463              		.cfi_offset 1, -8
 464              		.cfi_offset 8, -16
 465              		.cfi_offset 9, -24
 466 0210 13040102 		addi	s0,sp,32
 467              		.cfi_def_cfa 8, 0
 468 0214 93040500 		mv	s1,a0
  75:src/PCB.cpp   ****         running = this;
 469              		.loc 1 75 5
  75:src/PCB.cpp   ****         running = this;
 470              		.loc 1 75 16 is_stmt 0
 471 0218 97070000 		ld	a5,.LANCHOR0
 471      83B70700 
  75:src/PCB.cpp   ****         running = this;
 472              		.loc 1 75 5
 473 0220 63840704 		beqz	a5,.L31
  80:src/PCB.cpp   ****         Scheduler::put(this);
 474              		.loc 1 80 9 is_stmt 1
  80:src/PCB.cpp   ****         Scheduler::put(this);
 475              		.loc 1 80 38 is_stmt 0
 476 0224 97070000 		lla	a5,.LANCHOR0
 476      93870700 
 477 022c 83A58700 		lw	a1,8(a5)
 478 0230 1B871500 		addiw	a4,a1,1
 479 0234 23A4E700 		sw	a4,8(a5)
  80:src/PCB.cpp   ****         Scheduler::put(this);
 480              		.loc 1 80 20
 481 0238 9B850503 		addiw	a1,a1,48
 482 023c 93F5F50F 		andi	a1,a1,0xff
 483 0240 97000000 		call	_ZN3PCB5setIdEc
 483      E7800000 
 484              	.LVL25:
  81:src/PCB.cpp   **** 
 485              		.loc 1 81 9 is_stmt 1
  81:src/PCB.cpp   **** 
 486              		.loc 1 81 23 is_stmt 0
 487 0248 13850400 		mv	a0,s1
 488 024c 97000000 		call	_ZN9Scheduler3putEP3PCB@plt
 488      E7800000 
 489              	.LVL26:
 490              	.L27:
  84:src/PCB.cpp   **** 
 491              		.loc 1 84 1
 492 0254 83308101 		ld	ra,24(sp)
 493              		.cfi_remember_state
 494              		.cfi_restore 1
 495 0258 03340101 		ld	s0,16(sp)
 496              		.cfi_restore 8
 497              		.cfi_def_cfa 2, 32
 498 025c 83348100 		ld	s1,8(sp)
 499              		.cfi_restore 9
 500              	.LVL27:
 501 0260 13010102 		addi	sp,sp,32
 502              		.cfi_def_cfa_offset 0
 503 0264 67800000 		jr	ra
 504              	.LVL28:
 505              	.L31:
 506              		.cfi_restore_state
GAS LISTING /tmp/ccEAN7oS.s 			page 12


  76:src/PCB.cpp   ****         running->setId('m');
 507              		.loc 1 76 9 is_stmt 1
  76:src/PCB.cpp   ****         running->setId('m');
 508              		.loc 1 76 17 is_stmt 0
 509 0268 97070000 		sd	a0,.LANCHOR0,a5
 509      23B0A700 
  77:src/PCB.cpp   ****     }
 510              		.loc 1 77 9 is_stmt 1
  77:src/PCB.cpp   ****     }
 511              		.loc 1 77 23 is_stmt 0
 512 0270 9305D006 		li	a1,109
 513 0274 97000000 		call	_ZN3PCB5setIdEc
 513      E7800000 
 514              	.LVL29:
 515 027c 6FF09FFD 		j	.L27
 516              		.cfi_endproc
 517              	.LFE11:
 519              		.align	2
 520              		.globl	_ZNK3PCB12getTimeSliceEv
 522              	_ZNK3PCB12getTimeSliceEv:
 523              	.LFB17:
 118:src/PCB.cpp   **** 
 119:src/PCB.cpp   **** 
 120:src/PCB.cpp   **** 
 121:src/PCB.cpp   **** uint64 PCB::getTimeSlice() const {
 524              		.loc 1 121 34 is_stmt 1
 525              		.cfi_startproc
 526              	.LVL30:
 527 0280 130101FF 		addi	sp,sp,-16
 528              		.cfi_def_cfa_offset 16
 529 0284 23348100 		sd	s0,8(sp)
 530              		.cfi_offset 8, -8
 531 0288 13040101 		addi	s0,sp,16
 532              		.cfi_def_cfa 8, 0
 122:src/PCB.cpp   ****     return timeSlice;
 533              		.loc 1 122 5
 123:src/PCB.cpp   **** }
 534              		.loc 1 123 1 is_stmt 0
 535 028c 03350504 		ld	a0,64(a0)
 536              	.LVL31:
 537 0290 03348100 		ld	s0,8(sp)
 538              		.cfi_restore 8
 539              		.cfi_def_cfa 2, 16
 540 0294 13010101 		addi	sp,sp,16
 541              		.cfi_def_cfa_offset 0
 542 0298 67800000 		jr	ra
 543              		.cfi_endproc
 544              	.LFE17:
 546              		.align	2
 547              		.globl	_ZN3PCB12setTimeSliceEm
 549              	_ZN3PCB12setTimeSliceEm:
 550              	.LFB18:
 124:src/PCB.cpp   **** 
 125:src/PCB.cpp   **** void PCB::setTimeSlice(uint64 timeSlice) {
 551              		.loc 1 125 42 is_stmt 1
 552              		.cfi_startproc
 553              	.LVL32:
GAS LISTING /tmp/ccEAN7oS.s 			page 13


 554 029c 130101FF 		addi	sp,sp,-16
 555              		.cfi_def_cfa_offset 16
 556 02a0 23348100 		sd	s0,8(sp)
 557              		.cfi_offset 8, -8
 558 02a4 13040101 		addi	s0,sp,16
 559              		.cfi_def_cfa 8, 0
 126:src/PCB.cpp   ****     PCB::timeSlice = timeSlice;
 560              		.loc 1 126 5
 561              		.loc 1 126 20 is_stmt 0
 562 02a8 2330B504 		sd	a1,64(a0)
 127:src/PCB.cpp   **** }
 563              		.loc 1 127 1
 564 02ac 03348100 		ld	s0,8(sp)
 565              		.cfi_restore 8
 566              		.cfi_def_cfa 2, 16
 567 02b0 13010101 		addi	sp,sp,16
 568              		.cfi_def_cfa_offset 0
 569 02b4 67800000 		jr	ra
 570              		.cfi_endproc
 571              	.LFE18:
 573              		.align	2
 574              		.globl	_ZN3PCB11setSleepingEb
 576              	_ZN3PCB11setSleepingEb:
 577              	.LFB20:
 128:src/PCB.cpp   **** 
 129:src/PCB.cpp   **** void PCB::sleep(time_t time) {
 130:src/PCB.cpp   ****     PCB::sleeping_list->putTime(running,time);
 131:src/PCB.cpp   ****     running->setSleeping(true);
 132:src/PCB.cpp   ****     //PCB::dispatch();
 133:src/PCB.cpp   **** }
 134:src/PCB.cpp   **** 
 135:src/PCB.cpp   **** void PCB::setSleeping(bool f) {
 578              		.loc 1 135 31 is_stmt 1
 579              		.cfi_startproc
 580              	.LVL33:
 581 02b8 130101FF 		addi	sp,sp,-16
 582              		.cfi_def_cfa_offset 16
 583 02bc 23348100 		sd	s0,8(sp)
 584              		.cfi_offset 8, -8
 585 02c0 13040101 		addi	s0,sp,16
 586              		.cfi_def_cfa 8, 0
 136:src/PCB.cpp   ****     isSleeping = f;
 587              		.loc 1 136 5
 588              		.loc 1 136 16 is_stmt 0
 589 02c4 2305B504 		sb	a1,74(a0)
 137:src/PCB.cpp   **** }
 590              		.loc 1 137 1
 591 02c8 03348100 		ld	s0,8(sp)
 592              		.cfi_restore 8
 593              		.cfi_def_cfa 2, 16
 594 02cc 13010101 		addi	sp,sp,16
 595              		.cfi_def_cfa_offset 0
 596 02d0 67800000 		jr	ra
 597              		.cfi_endproc
 598              	.LFE20:
 600              		.align	2
 601              		.globl	_ZN3PCB5sleepEm
GAS LISTING /tmp/ccEAN7oS.s 			page 14


 603              	_ZN3PCB5sleepEm:
 604              	.LFB19:
 129:src/PCB.cpp   ****     PCB::sleeping_list->putTime(running,time);
 605              		.loc 1 129 30 is_stmt 1
 606              		.cfi_startproc
 607              	.LVL34:
 608 02d4 130101FE 		addi	sp,sp,-32
 609              		.cfi_def_cfa_offset 32
 610 02d8 233C1100 		sd	ra,24(sp)
 611 02dc 23388100 		sd	s0,16(sp)
 612 02e0 23349100 		sd	s1,8(sp)
 613              		.cfi_offset 1, -8
 614              		.cfi_offset 8, -16
 615              		.cfi_offset 9, -24
 616 02e4 13040102 		addi	s0,sp,32
 617              		.cfi_def_cfa 8, 0
 618 02e8 13060500 		mv	a2,a0
 130:src/PCB.cpp   ****     running->setSleeping(true);
 619              		.loc 1 130 5
 130:src/PCB.cpp   ****     running->setSleeping(true);
 620              		.loc 1 130 32 is_stmt 0
 621 02ec 97040000 		lla	s1,.LANCHOR0
 621      93840400 
 622 02f4 83B50400 		ld	a1,0(s1)
 623 02f8 03B50401 		ld	a0,16(s1)
 624              	.LVL35:
 625 02fc 97000000 		call	_ZN8PCB_List7putTimeEP3PCBm@plt
 625      E7800000 
 626              	.LVL36:
 131:src/PCB.cpp   ****     //PCB::dispatch();
 627              		.loc 1 131 5 is_stmt 1
 131:src/PCB.cpp   ****     //PCB::dispatch();
 628              		.loc 1 131 25 is_stmt 0
 629 0304 93051000 		li	a1,1
 630 0308 03B50400 		ld	a0,0(s1)
 631 030c 97000000 		call	_ZN3PCB11setSleepingEb
 631      E7800000 
 632              	.LVL37:
 133:src/PCB.cpp   **** 
 633              		.loc 1 133 1
 634 0314 83308101 		ld	ra,24(sp)
 635              		.cfi_restore 1
 636 0318 03340101 		ld	s0,16(sp)
 637              		.cfi_restore 8
 638              		.cfi_def_cfa 2, 32
 639 031c 83348100 		ld	s1,8(sp)
 640              		.cfi_restore 9
 641 0320 13010102 		addi	sp,sp,32
 642              		.cfi_def_cfa_offset 0
 643 0324 67800000 		jr	ra
 644              		.cfi_endproc
 645              	.LFE19:
 647              		.align	2
 648              		.globl	_ZN3PCB13checkSleepingEv
 650              	_ZN3PCB13checkSleepingEv:
 651              	.LFB21:
 138:src/PCB.cpp   **** 
GAS LISTING /tmp/ccEAN7oS.s 			page 15


 139:src/PCB.cpp   **** bool PCB::checkSleeping() {
 652              		.loc 1 139 27 is_stmt 1
 653              		.cfi_startproc
 654              	.LVL38:
 655 0328 130101FF 		addi	sp,sp,-16
 656              		.cfi_def_cfa_offset 16
 657 032c 23348100 		sd	s0,8(sp)
 658              		.cfi_offset 8, -8
 659 0330 13040101 		addi	s0,sp,16
 660              		.cfi_def_cfa 8, 0
 140:src/PCB.cpp   ****     return isSleeping;
 661              		.loc 1 140 5
 141:src/PCB.cpp   **** }
 662              		.loc 1 141 1 is_stmt 0
 663 0334 0345A504 		lbu	a0,74(a0)
 664              	.LVL39:
 665 0338 03348100 		ld	s0,8(sp)
 666              		.cfi_restore 8
 667              		.cfi_def_cfa 2, 16
 668 033c 13010101 		addi	sp,sp,16
 669              		.cfi_def_cfa_offset 0
 670 0340 67800000 		jr	ra
 671              		.cfi_endproc
 672              	.LFE21:
 674              		.align	2
 675              		.globl	_ZN3PCB8dispatchEv
 677              	_ZN3PCB8dispatchEv:
 678              	.LFB8:
  53:src/PCB.cpp   ****     PCB* old = running;
 679              		.loc 1 53 22 is_stmt 1
 680              		.cfi_startproc
 681 0344 130101FE 		addi	sp,sp,-32
 682              		.cfi_def_cfa_offset 32
 683 0348 233C1100 		sd	ra,24(sp)
 684 034c 23388100 		sd	s0,16(sp)
 685 0350 23349100 		sd	s1,8(sp)
 686              		.cfi_offset 1, -8
 687              		.cfi_offset 8, -16
 688              		.cfi_offset 9, -24
 689 0354 13040102 		addi	s0,sp,32
 690              		.cfi_def_cfa 8, 0
  54:src/PCB.cpp   ****     if(old->isPeriodic && PCB::isPeriodicBlocked) {
 691              		.loc 1 54 5
  54:src/PCB.cpp   ****     if(old->isPeriodic && PCB::isPeriodicBlocked) {
 692              		.loc 1 54 10 is_stmt 0
 693 0358 97040000 		ld	s1,.LANCHOR0
 693      83B40400 
 694              	.LVL40:
  55:src/PCB.cpp   ****         PCB::perioThreads->put(old);
 695              		.loc 1 55 5 is_stmt 1
  55:src/PCB.cpp   ****         PCB::perioThreads->put(old);
 696              		.loc 1 55 13 is_stmt 0
 697 0360 83C71400 		lbu	a5,1(s1)
  55:src/PCB.cpp   ****         PCB::perioThreads->put(old);
 698              		.loc 1 55 5
 699 0364 63880700 		beqz	a5,.L43
  55:src/PCB.cpp   ****         PCB::perioThreads->put(old);
GAS LISTING /tmp/ccEAN7oS.s 			page 16


 700              		.loc 1 55 24 discriminator 1
 701 0368 97070000 		lbu	a5,.LANCHOR0+24
 701      83C70700 
 702 0370 63920704 		bnez	a5,.L48
 703              	.L43:
  58:src/PCB.cpp   ****     running = Scheduler::get();
 704              		.loc 1 58 10 is_stmt 1
  58:src/PCB.cpp   ****     running = Scheduler::get();
 705              		.loc 1 58 32 is_stmt 0
 706 0374 13850400 		mv	a0,s1
 707 0378 97000000 		call	_ZN3PCB13checkFinishedEv
 707      E7800000 
 708              	.LVL41:
  58:src/PCB.cpp   ****     running = Scheduler::get();
 709              		.loc 1 58 56
 710 0380 63140504 		bnez	a0,.L44
  58:src/PCB.cpp   ****     running = Scheduler::get();
 711              		.loc 1 58 54 discriminator 1
 712 0384 13850400 		mv	a0,s1
 713 0388 97000000 		call	_ZN3PCB12checkBlockedEv
 713      E7800000 
 714              	.LVL42:
  58:src/PCB.cpp   ****     running = Scheduler::get();
 715              		.loc 1 58 34 discriminator 1
 716 0390 631C0502 		bnez	a0,.L44
  58:src/PCB.cpp   ****     running = Scheduler::get();
 717              		.loc 1 58 77 discriminator 3
 718 0394 13850400 		mv	a0,s1
 719 0398 97000000 		call	_ZN3PCB13checkSleepingEv
 719      E7800000 
 720              	.LVL43:
  58:src/PCB.cpp   ****     running = Scheduler::get();
 721              		.loc 1 58 56 discriminator 3
 722 03a0 63140502 		bnez	a0,.L44
  58:src/PCB.cpp   ****     running = Scheduler::get();
 723              		.loc 1 58 80 is_stmt 1
  58:src/PCB.cpp   ****     running = Scheduler::get();
 724              		.loc 1 58 94 is_stmt 0
 725 03a4 13850400 		mv	a0,s1
 726 03a8 97000000 		call	_ZN9Scheduler3putEP3PCB@plt
 726      E7800000 
 727              	.LVL44:
 728 03b0 6F008001 		j	.L44
 729              	.L48:
  56:src/PCB.cpp   ****     }
 730              		.loc 1 56 9 is_stmt 1
  56:src/PCB.cpp   ****     }
 731              		.loc 1 56 31 is_stmt 0
 732 03b4 93850400 		mv	a1,s1
 733 03b8 17050000 		ld	a0,.LANCHOR0+32
 733      03350500 
 734 03c0 97000000 		call	_ZN8PCB_List3putEP3PCB@plt
 734      E7800000 
 735              	.LVL45:
 736              	.L44:
  59:src/PCB.cpp   ****     if(running->my_id == '0') ms_status(Interrupt::SSTATUS_SPP);
 737              		.loc 1 59 5 is_stmt 1
GAS LISTING /tmp/ccEAN7oS.s 			page 17


  59:src/PCB.cpp   ****     if(running->my_id == '0') ms_status(Interrupt::SSTATUS_SPP);
 738              		.loc 1 59 29 is_stmt 0
 739 03c8 97000000 		call	_ZN9Scheduler3getEv@plt
 739      E7800000 
 740              	.LVL46:
  59:src/PCB.cpp   ****     if(running->my_id == '0') ms_status(Interrupt::SSTATUS_SPP);
 741              		.loc 1 59 13
 742 03d0 97070000 		sd	a0,.LANCHOR0,a5
 742      23B0A700 
  60:src/PCB.cpp   ****     else mc_status(Interrupt::SSTATUS_SPP);
 743              		.loc 1 60 5 is_stmt 1
  60:src/PCB.cpp   ****     else mc_status(Interrupt::SSTATUS_SPP);
 744              		.loc 1 60 17 is_stmt 0
 745 03d8 0347B504 		lbu	a4,75(a0)
  60:src/PCB.cpp   ****     else mc_status(Interrupt::SSTATUS_SPP);
 746              		.loc 1 60 5
 747 03dc 93070003 		li	a5,48
 748 03e0 6308F702 		beq	a4,a5,.L49
  61:src/PCB.cpp   ****     contextSwitch(&old->context,&running->context);
 749              		.loc 1 61 10 is_stmt 1
 750              	.LVL47:
 751              	.LBB7:
 752              	.LBB8:
 142:src/PCB.cpp   **** 
 143:src/PCB.cpp   **** uint64 *PCB::allocateSystemStack() {
 144:src/PCB.cpp   ****     uint64 size = DEFAULT_STACK_SIZE;
 145:src/PCB.cpp   ****     size_t sizeB = ((size + ALLOCATED_HEADER_SIZE)/MEM_BLOCK_SIZE);
 146:src/PCB.cpp   ****     if((size + ALLOCATED_HEADER_SIZE)%MEM_BLOCK_SIZE > 0){
 147:src/PCB.cpp   ****         sizeB++;
 148:src/PCB.cpp   ****     }
 149:src/PCB.cpp   ****     sizeB*=MEM_BLOCK_SIZE;
 150:src/PCB.cpp   ****     void* retAdr = MemoryAllocator::mem_alloc((size_t) sizeB);
 151:src/PCB.cpp   ****     long* header = (long*) retAdr;
 152:src/PCB.cpp   ****     sizeB/=MEM_BLOCK_SIZE;
 153:src/PCB.cpp   ****     *header = sizeB;
 154:src/PCB.cpp   ****     header++;
 155:src/PCB.cpp   ****     return (uint64 *)header;
 156:src/PCB.cpp   **** }
 157:src/PCB.cpp   **** 
 158:src/PCB.cpp   **** uint64 PCB::getSSP() {
 159:src/PCB.cpp   ****     return this->context.ssp;
 160:src/PCB.cpp   **** }
 161:src/PCB.cpp   **** 
 162:src/PCB.cpp   **** uint64 PCB::getSP() {
 163:src/PCB.cpp   ****     return this->context.sp;
 164:src/PCB.cpp   **** }
 165:src/PCB.cpp   **** 
 166:src/PCB.cpp   **** void PCB::setSSP(uint64 ssp) {
 167:src/PCB.cpp   ****     this->context.ssp = ssp;
 168:src/PCB.cpp   **** }
 169:src/PCB.cpp   **** 
 170:src/PCB.cpp   **** void PCB::setSP(uint64 sp) {
 171:src/PCB.cpp   ****     this->context.sp = sp;
 172:src/PCB.cpp   **** }
 173:src/PCB.cpp   **** 
 174:src/PCB.cpp   **** inline void PCB::ms_status(uint64 mask) {
 175:src/PCB.cpp   ****     __asm__ volatile("csrs sstatus, %[mask]" : : [mask]"r"(mask));
GAS LISTING /tmp/ccEAN7oS.s 			page 18


 176:src/PCB.cpp   **** }
 177:src/PCB.cpp   **** inline void PCB::mc_status(uint64 mask) {
 178:src/PCB.cpp   ****     __asm__ volatile("csrc sstatus, %[mask]" : : [mask]"r"(mask));
 753              		.loc 1 178 5
 754              		.loc 1 178 66 is_stmt 0
 755 03e4 93070010 		li	a5,256
 756              	#APP
 757              	# 178 "src/PCB.cpp" 1
 179              	}
 758              		csrc sstatus, a5
 759              	# 0 "" 2
 760              	.LVL48:
 761              	#NO_APP
 762              	.L46:
 763              	.LBE8:
 764              	.LBE7:
  62:src/PCB.cpp   **** 
 765              		.loc 1 62 5 is_stmt 1
  62:src/PCB.cpp   **** 
 766              		.loc 1 62 18 is_stmt 0
 767 03ec 93058502 		addi	a1,a0,40
 768 03f0 13858402 		addi	a0,s1,40
 769 03f4 97000000 		call	_ZN3PCB13contextSwitchEPNS_7ContextES1_@plt
 769      E7800000 
 770              	.LVL49:
  64:src/PCB.cpp   **** 
 771              		.loc 1 64 1
 772 03fc 83308101 		ld	ra,24(sp)
 773              		.cfi_remember_state
 774              		.cfi_restore 1
 775 0400 03340101 		ld	s0,16(sp)
 776              		.cfi_restore 8
 777              		.cfi_def_cfa 2, 32
 778 0404 83348100 		ld	s1,8(sp)
 779              		.cfi_restore 9
 780              	.LVL50:
 781 0408 13010102 		addi	sp,sp,32
 782              		.cfi_def_cfa_offset 0
 783 040c 67800000 		jr	ra
 784              	.LVL51:
 785              	.L49:
 786              		.cfi_restore_state
  60:src/PCB.cpp   ****     else mc_status(Interrupt::SSTATUS_SPP);
 787              		.loc 1 60 31 is_stmt 1
 788              	.LBB9:
 789              	.LBB10:
 175:src/PCB.cpp   **** }
 790              		.loc 1 175 5
 175:src/PCB.cpp   **** }
 791              		.loc 1 175 66 is_stmt 0
 792 0410 93070010 		li	a5,256
 793              	#APP
 794              	# 175 "src/PCB.cpp" 1
 176:src/PCB.cpp   **** inline void PCB::mc_status(uint64 mask) {
 795              		csrs sstatus, a5
 796              	# 0 "" 2
 797              		.loc 1 176 1
GAS LISTING /tmp/ccEAN7oS.s 			page 19


 798              	#NO_APP
 799 0418 6FF05FFD 		j	.L46
 800              	.LBE10:
 801              	.LBE9:
 802              		.cfi_endproc
 803              	.LFE8:
 805              		.align	2
 806              		.globl	_ZN3PCB19allocateSystemStackEv
 808              	_ZN3PCB19allocateSystemStackEv:
 809              	.LFB22:
 143:src/PCB.cpp   ****     uint64 size = DEFAULT_STACK_SIZE;
 810              		.loc 1 143 36 is_stmt 1
 811              		.cfi_startproc
 812 041c 130101FF 		addi	sp,sp,-16
 813              		.cfi_def_cfa_offset 16
 814 0420 23341100 		sd	ra,8(sp)
 815 0424 23308100 		sd	s0,0(sp)
 816              		.cfi_offset 1, -8
 817              		.cfi_offset 8, -16
 818 0428 13040101 		addi	s0,sp,16
 819              		.cfi_def_cfa 8, 0
 144:src/PCB.cpp   ****     size_t sizeB = ((size + ALLOCATED_HEADER_SIZE)/MEM_BLOCK_SIZE);
 820              		.loc 1 144 5
 821              	.LVL52:
 145:src/PCB.cpp   ****     if((size + ALLOCATED_HEADER_SIZE)%MEM_BLOCK_SIZE > 0){
 822              		.loc 1 145 5
 146:src/PCB.cpp   ****         sizeB++;
 823              		.loc 1 146 5
 147:src/PCB.cpp   ****     }
 824              		.loc 1 147 9
 149:src/PCB.cpp   ****     void* retAdr = MemoryAllocator::mem_alloc((size_t) sizeB);
 825              		.loc 1 149 5
 150:src/PCB.cpp   ****     long* header = (long*) retAdr;
 826              		.loc 1 150 5
 150:src/PCB.cpp   ****     long* header = (long*) retAdr;
 827              		.loc 1 150 46 is_stmt 0
 828 042c 37150000 		li	a0,4096
 829 0430 13050504 		addi	a0,a0,64
 830 0434 97000000 		call	_ZN15MemoryAllocator9mem_allocEm@plt
 830      E7800000 
 831              	.LVL53:
 151:src/PCB.cpp   ****     sizeB/=MEM_BLOCK_SIZE;
 832              		.loc 1 151 5 is_stmt 1
 152:src/PCB.cpp   ****     *header = sizeB;
 833              		.loc 1 152 5
 153:src/PCB.cpp   ****     header++;
 834              		.loc 1 153 5
 153:src/PCB.cpp   ****     header++;
 835              		.loc 1 153 13 is_stmt 0
 836 043c 93071004 		li	a5,65
 837 0440 2330F500 		sd	a5,0(a0)
 154:src/PCB.cpp   ****     return (uint64 *)header;
 838              		.loc 1 154 5 is_stmt 1
 839              	.LVL54:
 155:src/PCB.cpp   **** }
 840              		.loc 1 155 5
 156:src/PCB.cpp   **** 
GAS LISTING /tmp/ccEAN7oS.s 			page 20


 841              		.loc 1 156 1 is_stmt 0
 842 0444 13058500 		addi	a0,a0,8
 843              	.LVL55:
 844 0448 83308100 		ld	ra,8(sp)
 845              		.cfi_restore 1
 846 044c 03340100 		ld	s0,0(sp)
 847              		.cfi_restore 8
 848              		.cfi_def_cfa 2, 16
 849 0450 13010101 		addi	sp,sp,16
 850              		.cfi_def_cfa_offset 0
 851 0454 67800000 		jr	ra
 852              		.cfi_endproc
 853              	.LFE22:
 855              		.align	2
 856              		.globl	_ZN3PCB6getSSPEv
 858              	_ZN3PCB6getSSPEv:
 859              	.LFB23:
 158:src/PCB.cpp   ****     return this->context.ssp;
 860              		.loc 1 158 22 is_stmt 1
 861              		.cfi_startproc
 862              	.LVL56:
 863 0458 130101FF 		addi	sp,sp,-16
 864              		.cfi_def_cfa_offset 16
 865 045c 23348100 		sd	s0,8(sp)
 866              		.cfi_offset 8, -8
 867 0460 13040101 		addi	s0,sp,16
 868              		.cfi_def_cfa 8, 0
 159:src/PCB.cpp   **** }
 869              		.loc 1 159 5
 160:src/PCB.cpp   **** 
 870              		.loc 1 160 1 is_stmt 0
 871 0464 03358503 		ld	a0,56(a0)
 872              	.LVL57:
 873 0468 03348100 		ld	s0,8(sp)
 874              		.cfi_restore 8
 875              		.cfi_def_cfa 2, 16
 876 046c 13010101 		addi	sp,sp,16
 877              		.cfi_def_cfa_offset 0
 878 0470 67800000 		jr	ra
 879              		.cfi_endproc
 880              	.LFE23:
 882              		.align	2
 883              		.globl	_ZN3PCB5getSPEv
 885              	_ZN3PCB5getSPEv:
 886              	.LFB24:
 162:src/PCB.cpp   ****     return this->context.sp;
 887              		.loc 1 162 21 is_stmt 1
 888              		.cfi_startproc
 889              	.LVL58:
 890 0474 130101FF 		addi	sp,sp,-16
 891              		.cfi_def_cfa_offset 16
 892 0478 23348100 		sd	s0,8(sp)
 893              		.cfi_offset 8, -8
 894 047c 13040101 		addi	s0,sp,16
 895              		.cfi_def_cfa 8, 0
 163:src/PCB.cpp   **** }
 896              		.loc 1 163 5
GAS LISTING /tmp/ccEAN7oS.s 			page 21


 164:src/PCB.cpp   **** 
 897              		.loc 1 164 1 is_stmt 0
 898 0480 03350503 		ld	a0,48(a0)
 899              	.LVL59:
 900 0484 03348100 		ld	s0,8(sp)
 901              		.cfi_restore 8
 902              		.cfi_def_cfa 2, 16
 903 0488 13010101 		addi	sp,sp,16
 904              		.cfi_def_cfa_offset 0
 905 048c 67800000 		jr	ra
 906              		.cfi_endproc
 907              	.LFE24:
 909              		.align	2
 910              		.globl	_ZN3PCB6setSSPEm
 912              	_ZN3PCB6setSSPEm:
 913              	.LFB25:
 166:src/PCB.cpp   ****     this->context.ssp = ssp;
 914              		.loc 1 166 30 is_stmt 1
 915              		.cfi_startproc
 916              	.LVL60:
 917 0490 130101FF 		addi	sp,sp,-16
 918              		.cfi_def_cfa_offset 16
 919 0494 23348100 		sd	s0,8(sp)
 920              		.cfi_offset 8, -8
 921 0498 13040101 		addi	s0,sp,16
 922              		.cfi_def_cfa 8, 0
 167:src/PCB.cpp   **** }
 923              		.loc 1 167 5
 167:src/PCB.cpp   **** }
 924              		.loc 1 167 23 is_stmt 0
 925 049c 233CB502 		sd	a1,56(a0)
 168:src/PCB.cpp   **** 
 926              		.loc 1 168 1
 927 04a0 03348100 		ld	s0,8(sp)
 928              		.cfi_restore 8
 929              		.cfi_def_cfa 2, 16
 930 04a4 13010101 		addi	sp,sp,16
 931              		.cfi_def_cfa_offset 0
 932 04a8 67800000 		jr	ra
 933              		.cfi_endproc
 934              	.LFE25:
 936              		.align	2
 937              		.globl	_ZN3PCB5setSPEm
 939              	_ZN3PCB5setSPEm:
 940              	.LFB26:
 170:src/PCB.cpp   ****     this->context.sp = sp;
 941              		.loc 1 170 28 is_stmt 1
 942              		.cfi_startproc
 943              	.LVL61:
 944 04ac 130101FF 		addi	sp,sp,-16
 945              		.cfi_def_cfa_offset 16
 946 04b0 23348100 		sd	s0,8(sp)
 947              		.cfi_offset 8, -8
 948 04b4 13040101 		addi	s0,sp,16
 949              		.cfi_def_cfa 8, 0
 171:src/PCB.cpp   **** }
 950              		.loc 1 171 5
GAS LISTING /tmp/ccEAN7oS.s 			page 22


 171:src/PCB.cpp   **** }
 951              		.loc 1 171 22 is_stmt 0
 952 04b8 2338B502 		sd	a1,48(a0)
 172:src/PCB.cpp   **** 
 953              		.loc 1 172 1
 954 04bc 03348100 		ld	s0,8(sp)
 955              		.cfi_restore 8
 956              		.cfi_def_cfa 2, 16
 957 04c0 13010101 		addi	sp,sp,16
 958              		.cfi_def_cfa_offset 0
 959 04c4 67800000 		jr	ra
 960              		.cfi_endproc
 961              	.LFE26:
 963              		.globl	_ZN3PCB12perioThreadsE
 964              		.globl	_ZN3PCB17isPeriodicBlockedE
 965              		.globl	_ZN3PCB6isMainE
 966              		.globl	_ZN3PCB6id_cntE
 967              		.globl	_ZN3PCB13sleeping_listE
 968              		.globl	_ZN3PCB8timeLeftE
 969              		.globl	_ZN3PCB7runningE
 970              		.data
 973              	_ZN3PCB6isMainE:
 974 0000 01       		.byte	1
 975              		.bss
 976              		.align	3
 977              		.set	.LANCHOR0,. + 0
 980              	_ZN3PCB7runningE:
 981 0000 00000000 		.zero	8
 981      00000000 
 984              	_ZN3PCB6id_cntE:
 985 0008 00000000 		.zero	4
 986 000c 00000000 		.zero	4
 989              	_ZN3PCB13sleeping_listE:
 990 0010 00000000 		.zero	8
 990      00000000 
 993              	_ZN3PCB17isPeriodicBlockedE:
 994 0018 00       		.zero	1
 995 0019 00000000 		.zero	7
 995      000000
 998              	_ZN3PCB12perioThreadsE:
 999 0020 00000000 		.zero	8
 999      00000000 
 1002              	_ZN3PCB8timeLeftE:
 1003 0028 00000000 		.zero	8
 1003      00000000 
 1004              		.text
 1005              	.Letext0:
 1006              		.file 2 "src/../h/../lib/hw.h"
 1007              		.file 3 "src/../h/../h/syscall_c.h"
 1008              		.file 4 "src/../h/../h/../h/../h/PCB_List.h"
 1009              		.file 5 "src/../h/PCB.h"
 1010              		.file 6 "src/../h/../h/../h/../h/MemoryAllocator.h"
 1011              		.file 7 "src/../h/../h/Interrupt.h"
 1012              		.file 8 "src/../h/../h/Scheduler.h"
GAS LISTING /tmp/ccEAN7oS.s 			page 23

