GAS LISTING /tmp/ccaMWCvb.s 			page 1


   1              		.file	"Scheduler.cpp"
   2              		.option pic
   3              		.option norelax
   4              		.text
   5              	.Ltext0:
   6              		.align	2
   7              		.globl	_ZN9Scheduler3putEP3PCB
   9              	_ZN9Scheduler3putEP3PCB:
  10              	.LFB0:
  11              		.file 1 "src/Scheduler.cpp"
   1:src/Scheduler.cpp **** #include "../h/Scheduler.h"
   2:src/Scheduler.cpp **** 
   3:src/Scheduler.cpp **** 
   4:src/Scheduler.cpp **** PCB* Scheduler::head = nullptr;
   5:src/Scheduler.cpp **** PCB* Scheduler::tail = nullptr;
   6:src/Scheduler.cpp **** 
   7:src/Scheduler.cpp **** void Scheduler::put(PCB *pcb) {
  12              		.loc 1 7 31
  13              		.cfi_startproc
  14              	.LVL0:
  15 0000 130101FE 		addi	sp,sp,-32
  16              		.cfi_def_cfa_offset 32
  17 0004 233C1100 		sd	ra,24(sp)
  18 0008 23388100 		sd	s0,16(sp)
  19 000c 23349100 		sd	s1,8(sp)
  20 0010 23302101 		sd	s2,0(sp)
  21              		.cfi_offset 1, -8
  22              		.cfi_offset 8, -16
  23              		.cfi_offset 9, -24
  24              		.cfi_offset 18, -32
  25 0014 13040102 		addi	s0,sp,32
  26              		.cfi_def_cfa 8, 0
  27 0018 93040500 		mv	s1,a0
   8:src/Scheduler.cpp ****     if(head == nullptr){
  28              		.loc 1 8 5
  29              		.loc 1 8 13 is_stmt 0
  30 001c 97070000 		ld	a5,.LANCHOR0
  30      83B70700 
  31              		.loc 1 8 5
  32 0024 63880704 		beqz	a5,.L5
   9:src/Scheduler.cpp ****         head = pcb;
  10:src/Scheduler.cpp ****         head->setNext(nullptr);
  11:src/Scheduler.cpp ****         tail = pcb;
  12:src/Scheduler.cpp ****         tail->setNext(nullptr);
  13:src/Scheduler.cpp ****     }
  14:src/Scheduler.cpp ****     else{
  15:src/Scheduler.cpp ****         tail->setNext(pcb);
  33              		.loc 1 15 9 is_stmt 1
  34              		.loc 1 15 22 is_stmt 0
  35 0028 17090000 		lla	s2,.LANCHOR0
  35      13090900 
  36 0030 93050500 		mv	a1,a0
  37 0034 03358900 		ld	a0,8(s2)
  38              	.LVL1:
  39 0038 97000000 		call	_ZN3PCB7setNextEPS_@plt
  39      E7800000 
  40              	.LVL2:
GAS LISTING /tmp/ccaMWCvb.s 			page 2


  16:src/Scheduler.cpp ****         tail = tail->getNext();
  41              		.loc 1 16 9 is_stmt 1
  42              		.loc 1 16 29 is_stmt 0
  43 0040 03358900 		ld	a0,8(s2)
  44 0044 97000000 		call	_ZN3PCB7getNextEv@plt
  44      E7800000 
  45              	.LVL3:
  46              		.loc 1 16 14
  47 004c 2334A900 		sd	a0,8(s2)
  17:src/Scheduler.cpp ****         tail->setNext(nullptr);
  48              		.loc 1 17 9 is_stmt 1
  49              		.loc 1 17 22 is_stmt 0
  50 0050 93050000 		li	a1,0
  51 0054 97000000 		call	_ZN3PCB7setNextEPS_@plt
  51      E7800000 
  52              	.LVL4:
  53              	.L1:
  18:src/Scheduler.cpp ****     }
  19:src/Scheduler.cpp **** }
  54              		.loc 1 19 1
  55 005c 83308101 		ld	ra,24(sp)
  56              		.cfi_remember_state
  57              		.cfi_restore 1
  58 0060 03340101 		ld	s0,16(sp)
  59              		.cfi_restore 8
  60              		.cfi_def_cfa 2, 32
  61 0064 83348100 		ld	s1,8(sp)
  62              		.cfi_restore 9
  63              	.LVL5:
  64 0068 03390100 		ld	s2,0(sp)
  65              		.cfi_restore 18
  66 006c 13010102 		addi	sp,sp,32
  67              		.cfi_def_cfa_offset 0
  68 0070 67800000 		jr	ra
  69              	.LVL6:
  70              	.L5:
  71              		.cfi_restore_state
   9:src/Scheduler.cpp ****         head->setNext(nullptr);
  72              		.loc 1 9 9 is_stmt 1
   9:src/Scheduler.cpp ****         head->setNext(nullptr);
  73              		.loc 1 9 14 is_stmt 0
  74 0074 17090000 		lla	s2,.LANCHOR0
  74      13090900 
  75 007c 2330A900 		sd	a0,0(s2)
  10:src/Scheduler.cpp ****         tail = pcb;
  76              		.loc 1 10 9 is_stmt 1
  10:src/Scheduler.cpp ****         tail = pcb;
  77              		.loc 1 10 22 is_stmt 0
  78 0080 93050000 		li	a1,0
  79 0084 97000000 		call	_ZN3PCB7setNextEPS_@plt
  79      E7800000 
  80              	.LVL7:
  11:src/Scheduler.cpp ****         tail->setNext(nullptr);
  81              		.loc 1 11 9 is_stmt 1
  11:src/Scheduler.cpp ****         tail->setNext(nullptr);
  82              		.loc 1 11 14 is_stmt 0
  83 008c 23349900 		sd	s1,8(s2)
GAS LISTING /tmp/ccaMWCvb.s 			page 3


  12:src/Scheduler.cpp ****     }
  84              		.loc 1 12 9 is_stmt 1
  12:src/Scheduler.cpp ****     }
  85              		.loc 1 12 22 is_stmt 0
  86 0090 93050000 		li	a1,0
  87 0094 13850400 		mv	a0,s1
  88 0098 97000000 		call	_ZN3PCB7setNextEPS_@plt
  88      E7800000 
  89              	.LVL8:
  90 00a0 6FF0DFFB 		j	.L1
  91              		.cfi_endproc
  92              	.LFE0:
  94              		.align	2
  95              		.globl	_ZN9Scheduler3getEv
  97              	_ZN9Scheduler3getEv:
  98              	.LFB1:
  20:src/Scheduler.cpp **** 
  21:src/Scheduler.cpp **** PCB *Scheduler::get() {
  99              		.loc 1 21 23 is_stmt 1
 100              		.cfi_startproc
 101 00a4 130101FE 		addi	sp,sp,-32
 102              		.cfi_def_cfa_offset 32
 103 00a8 233C1100 		sd	ra,24(sp)
 104 00ac 23388100 		sd	s0,16(sp)
 105 00b0 23349100 		sd	s1,8(sp)
 106 00b4 23302101 		sd	s2,0(sp)
 107              		.cfi_offset 1, -8
 108              		.cfi_offset 8, -16
 109              		.cfi_offset 9, -24
 110              		.cfi_offset 18, -32
 111 00b8 13040102 		addi	s0,sp,32
 112              		.cfi_def_cfa 8, 0
  22:src/Scheduler.cpp ****     if(head== nullptr) return nullptr;
 113              		.loc 1 22 5
 114              		.loc 1 22 12 is_stmt 0
 115 00bc 97040000 		ld	s1,.LANCHOR0
 115      83B40400 
 116              		.loc 1 22 5
 117 00c4 638E0402 		beqz	s1,.L6
  23:src/Scheduler.cpp ****     PCB* pom = head;
 118              		.loc 1 23 5 is_stmt 1
 119              	.LVL9:
  24:src/Scheduler.cpp ****     if(head->getNext() == nullptr){
 120              		.loc 1 24 5
 121              		.loc 1 24 21 is_stmt 0
 122 00c8 13850400 		mv	a0,s1
 123 00cc 97000000 		call	_ZN3PCB7getNextEv@plt
 123      E7800000 
 124              	.LVL10:
 125              		.loc 1 24 5
 126 00d4 63040504 		beqz	a0,.L11
  25:src/Scheduler.cpp ****         head = nullptr;
  26:src/Scheduler.cpp ****         tail = nullptr;
  27:src/Scheduler.cpp ****     } else {
  28:src/Scheduler.cpp ****         head = head->getNext();
 127              		.loc 1 28 9 is_stmt 1
 128              		.loc 1 28 29 is_stmt 0
GAS LISTING /tmp/ccaMWCvb.s 			page 4


 129 00d8 17090000 		lla	s2,.LANCHOR0
 129      13090900 
 130 00e0 03350900 		ld	a0,0(s2)
 131 00e4 97000000 		call	_ZN3PCB7getNextEv@plt
 131      E7800000 
 132              	.LVL11:
 133              		.loc 1 28 14
 134 00ec 2330A900 		sd	a0,0(s2)
 135              	.L9:
  29:src/Scheduler.cpp ****     }
  30:src/Scheduler.cpp ****     pom->setNext(nullptr);
 136              		.loc 1 30 5 is_stmt 1
 137              		.loc 1 30 17 is_stmt 0
 138 00f0 93050000 		li	a1,0
 139 00f4 13850400 		mv	a0,s1
 140 00f8 97000000 		call	_ZN3PCB7setNextEPS_@plt
 140      E7800000 
 141              	.LVL12:
  31:src/Scheduler.cpp ****     return pom;
 142              		.loc 1 31 5 is_stmt 1
 143              	.L6:
  32:src/Scheduler.cpp **** }
 144              		.loc 1 32 1 is_stmt 0
 145 0100 13850400 		mv	a0,s1
 146 0104 83308101 		ld	ra,24(sp)
 147              		.cfi_remember_state
 148              		.cfi_restore 1
 149 0108 03340101 		ld	s0,16(sp)
 150              		.cfi_restore 8
 151              		.cfi_def_cfa 2, 32
 152 010c 83348100 		ld	s1,8(sp)
 153              		.cfi_restore 9
 154 0110 03390100 		ld	s2,0(sp)
 155              		.cfi_restore 18
 156 0114 13010102 		addi	sp,sp,32
 157              		.cfi_def_cfa_offset 0
 158 0118 67800000 		jr	ra
 159              	.LVL13:
 160              	.L11:
 161              		.cfi_restore_state
  25:src/Scheduler.cpp ****         tail = nullptr;
 162              		.loc 1 25 9 is_stmt 1
  25:src/Scheduler.cpp ****         tail = nullptr;
 163              		.loc 1 25 14 is_stmt 0
 164 011c 97070000 		lla	a5,.LANCHOR0
 164      93870700 
 165 0124 23B00700 		sd	zero,0(a5)
  26:src/Scheduler.cpp ****     } else {
 166              		.loc 1 26 9 is_stmt 1
  26:src/Scheduler.cpp ****     } else {
 167              		.loc 1 26 14 is_stmt 0
 168 0128 23B40700 		sd	zero,8(a5)
 169 012c 6FF05FFC 		j	.L9
 170              		.cfi_endproc
 171              	.LFE1:
 173              		.align	2
 174              		.globl	_ZN9SchedulerC2Ev
GAS LISTING /tmp/ccaMWCvb.s 			page 5


 176              	_ZN9SchedulerC2Ev:
 177              	.LFB3:
  33:src/Scheduler.cpp **** 
  34:src/Scheduler.cpp **** Scheduler::Scheduler() {
 178              		.loc 1 34 1 is_stmt 1
 179              		.cfi_startproc
 180              	.LVL14:
 181 0130 130101FF 		addi	sp,sp,-16
 182              		.cfi_def_cfa_offset 16
 183 0134 23348100 		sd	s0,8(sp)
 184              		.cfi_offset 8, -8
 185 0138 13040101 		addi	s0,sp,16
 186              		.cfi_def_cfa 8, 0
  35:src/Scheduler.cpp **** 
  36:src/Scheduler.cpp **** }
 187              		.loc 1 36 1 is_stmt 0
 188 013c 03348100 		ld	s0,8(sp)
 189              		.cfi_restore 8
 190              		.cfi_def_cfa 2, 16
 191 0140 13010101 		addi	sp,sp,16
 192              		.cfi_def_cfa_offset 0
 193 0144 67800000 		jr	ra
 194              		.cfi_endproc
 195              	.LFE3:
 197              		.globl	_ZN9SchedulerC1Ev
 198              		.set	_ZN9SchedulerC1Ev,_ZN9SchedulerC2Ev
 199              		.align	2
 200              		.globl	_ZN9Scheduler9moreProcsEv
 202              	_ZN9Scheduler9moreProcsEv:
 203              	.LFB5:
  37:src/Scheduler.cpp **** 
  38:src/Scheduler.cpp **** bool Scheduler::moreProcs() {
 204              		.loc 1 38 29 is_stmt 1
 205              		.cfi_startproc
 206 0148 130101FF 		addi	sp,sp,-16
 207              		.cfi_def_cfa_offset 16
 208 014c 23348100 		sd	s0,8(sp)
 209              		.cfi_offset 8, -8
 210 0150 13040101 		addi	s0,sp,16
 211              		.cfi_def_cfa 8, 0
  39:src/Scheduler.cpp ****     return head != nullptr;
 212              		.loc 1 39 5
  40:src/Scheduler.cpp **** }
 213              		.loc 1 40 1 is_stmt 0
 214 0154 17050000 		ld	a0,.LANCHOR0
 214      03350500 
 215 015c 3335A000 		snez	a0,a0
 216 0160 03348100 		ld	s0,8(sp)
 217              		.cfi_restore 8
 218              		.cfi_def_cfa 2, 16
 219 0164 13010101 		addi	sp,sp,16
 220              		.cfi_def_cfa_offset 0
 221 0168 67800000 		jr	ra
 222              		.cfi_endproc
 223              	.LFE5:
 225              		.globl	_ZN9Scheduler4tailE
 226              		.globl	_ZN9Scheduler4headE
GAS LISTING /tmp/ccaMWCvb.s 			page 6


 227              		.bss
 228              		.align	3
 229              		.set	.LANCHOR0,. + 0
 232              	_ZN9Scheduler4headE:
 233 0000 00000000 		.zero	8
 233      00000000 
 236              	_ZN9Scheduler4tailE:
 237 0008 00000000 		.zero	8
 237      00000000 
 238              		.text
 239              	.Letext0:
 240              		.file 2 "src/../h/../lib/hw.h"
 241              		.file 3 "src/../h/../h/../h/syscall_c.h"
 242              		.file 4 "src/../h/../h/../h/../h/../h/PCB_List.h"
 243              		.file 5 "src/../h/../h/PCB.h"
 244              		.file 6 "src/../h/Scheduler.h"
GAS LISTING /tmp/ccaMWCvb.s 			page 7


DEFINED SYMBOLS
                            *ABS*:0000000000000000 Scheduler.cpp
     /tmp/ccaMWCvb.s:9      .text:0000000000000000 _ZN9Scheduler3putEP3PCB
     /tmp/ccaMWCvb.s:13     .text:0000000000000000 .L0 
     /tmp/ccaMWCvb.s:15     .text:0000000000000000 .L0 
     /tmp/ccaMWCvb.s:16     .text:0000000000000004 .L0 
     /tmp/ccaMWCvb.s:21     .text:0000000000000014 .L0 
     /tmp/ccaMWCvb.s:22     .text:0000000000000014 .L0 
     /tmp/ccaMWCvb.s:23     .text:0000000000000014 .L0 
     /tmp/ccaMWCvb.s:24     .text:0000000000000014 .L0 
     /tmp/ccaMWCvb.s:26     .text:0000000000000018 .L0 
     /tmp/ccaMWCvb.s:29     .text:000000000000001c .L0 
     /tmp/ccaMWCvb.s:30     .text:000000000000001c .L0 
     /tmp/ccaMWCvb.s:32     .text:0000000000000024 .L0 
     /tmp/ccaMWCvb.s:34     .text:0000000000000028 .L0 
     /tmp/ccaMWCvb.s:35     .text:0000000000000028 .L0 
     /tmp/ccaMWCvb.s:42     .text:0000000000000040 .L0 
     /tmp/ccaMWCvb.s:43     .text:0000000000000040 .L0 
     /tmp/ccaMWCvb.s:47     .text:000000000000004c .L0 
     /tmp/ccaMWCvb.s:49     .text:0000000000000050 .L0 
     /tmp/ccaMWCvb.s:50     .text:0000000000000050 .L0 
     /tmp/ccaMWCvb.s:55     .text:000000000000005c .L0 
     /tmp/ccaMWCvb.s:56     .text:0000000000000060 .L0 
     /tmp/ccaMWCvb.s:57     .text:0000000000000060 .L0 
     /tmp/ccaMWCvb.s:59     .text:0000000000000064 .L0 
     /tmp/ccaMWCvb.s:60     .text:0000000000000064 .L0 
     /tmp/ccaMWCvb.s:62     .text:0000000000000068 .L0 
     /tmp/ccaMWCvb.s:65     .text:000000000000006c .L0 
     /tmp/ccaMWCvb.s:67     .text:0000000000000070 .L0 
     /tmp/ccaMWCvb.s:71     .text:0000000000000074 .L0 
     /tmp/ccaMWCvb.s:73     .text:0000000000000074 .L0 
     /tmp/ccaMWCvb.s:74     .text:0000000000000074 .L0 
     /tmp/ccaMWCvb.s:77     .text:0000000000000080 .L0 
     /tmp/ccaMWCvb.s:78     .text:0000000000000080 .L0 
     /tmp/ccaMWCvb.s:82     .text:000000000000008c .L0 
     /tmp/ccaMWCvb.s:83     .text:000000000000008c .L0 
     /tmp/ccaMWCvb.s:85     .text:0000000000000090 .L0 
     /tmp/ccaMWCvb.s:86     .text:0000000000000090 .L0 
     /tmp/ccaMWCvb.s:91     .text:00000000000000a4 .L0 
     /tmp/ccaMWCvb.s:97     .text:00000000000000a4 _ZN9Scheduler3getEv
     /tmp/ccaMWCvb.s:100    .text:00000000000000a4 .L0 
     /tmp/ccaMWCvb.s:101    .text:00000000000000a4 .L0 
     /tmp/ccaMWCvb.s:102    .text:00000000000000a8 .L0 
     /tmp/ccaMWCvb.s:107    .text:00000000000000b8 .L0 
     /tmp/ccaMWCvb.s:108    .text:00000000000000b8 .L0 
     /tmp/ccaMWCvb.s:109    .text:00000000000000b8 .L0 
     /tmp/ccaMWCvb.s:110    .text:00000000000000b8 .L0 
     /tmp/ccaMWCvb.s:112    .text:00000000000000bc .L0 
     /tmp/ccaMWCvb.s:114    .text:00000000000000bc .L0 
     /tmp/ccaMWCvb.s:115    .text:00000000000000bc .L0 
     /tmp/ccaMWCvb.s:117    .text:00000000000000c4 .L0 
     /tmp/ccaMWCvb.s:120    .text:00000000000000c8 .L0 
     /tmp/ccaMWCvb.s:121    .text:00000000000000c8 .L0 
     /tmp/ccaMWCvb.s:122    .text:00000000000000c8 .L0 
     /tmp/ccaMWCvb.s:126    .text:00000000000000d4 .L0 
     /tmp/ccaMWCvb.s:128    .text:00000000000000d8 .L0 
     /tmp/ccaMWCvb.s:129    .text:00000000000000d8 .L0 
GAS LISTING /tmp/ccaMWCvb.s 			page 8


     /tmp/ccaMWCvb.s:134    .text:00000000000000ec .L0 
     /tmp/ccaMWCvb.s:137    .text:00000000000000f0 .L0 
     /tmp/ccaMWCvb.s:138    .text:00000000000000f0 .L0 
     /tmp/ccaMWCvb.s:144    .text:0000000000000100 .L0 
     /tmp/ccaMWCvb.s:145    .text:0000000000000100 .L0 
     /tmp/ccaMWCvb.s:147    .text:0000000000000108 .L0 
     /tmp/ccaMWCvb.s:148    .text:0000000000000108 .L0 
     /tmp/ccaMWCvb.s:150    .text:000000000000010c .L0 
     /tmp/ccaMWCvb.s:151    .text:000000000000010c .L0 
     /tmp/ccaMWCvb.s:153    .text:0000000000000110 .L0 
     /tmp/ccaMWCvb.s:155    .text:0000000000000114 .L0 
     /tmp/ccaMWCvb.s:157    .text:0000000000000118 .L0 
     /tmp/ccaMWCvb.s:161    .text:000000000000011c .L0 
     /tmp/ccaMWCvb.s:163    .text:000000000000011c .L0 
     /tmp/ccaMWCvb.s:164    .text:000000000000011c .L0 
     /tmp/ccaMWCvb.s:167    .text:0000000000000128 .L0 
     /tmp/ccaMWCvb.s:168    .text:0000000000000128 .L0 
     /tmp/ccaMWCvb.s:170    .text:0000000000000130 .L0 
     /tmp/ccaMWCvb.s:176    .text:0000000000000130 _ZN9SchedulerC2Ev
     /tmp/ccaMWCvb.s:179    .text:0000000000000130 .L0 
     /tmp/ccaMWCvb.s:181    .text:0000000000000130 .L0 
     /tmp/ccaMWCvb.s:182    .text:0000000000000134 .L0 
     /tmp/ccaMWCvb.s:184    .text:0000000000000138 .L0 
     /tmp/ccaMWCvb.s:186    .text:000000000000013c .L0 
     /tmp/ccaMWCvb.s:188    .text:000000000000013c .L0 
     /tmp/ccaMWCvb.s:189    .text:0000000000000140 .L0 
     /tmp/ccaMWCvb.s:190    .text:0000000000000140 .L0 
     /tmp/ccaMWCvb.s:192    .text:0000000000000144 .L0 
     /tmp/ccaMWCvb.s:194    .text:0000000000000148 .L0 
     /tmp/ccaMWCvb.s:176    .text:0000000000000130 _ZN9SchedulerC1Ev
     /tmp/ccaMWCvb.s:202    .text:0000000000000148 _ZN9Scheduler9moreProcsEv
     /tmp/ccaMWCvb.s:205    .text:0000000000000148 .L0 
     /tmp/ccaMWCvb.s:206    .text:0000000000000148 .L0 
     /tmp/ccaMWCvb.s:207    .text:000000000000014c .L0 
     /tmp/ccaMWCvb.s:209    .text:0000000000000150 .L0 
     /tmp/ccaMWCvb.s:211    .text:0000000000000154 .L0 
     /tmp/ccaMWCvb.s:213    .text:0000000000000154 .L0 
     /tmp/ccaMWCvb.s:214    .text:0000000000000154 .L0 
     /tmp/ccaMWCvb.s:217    .text:0000000000000164 .L0 
     /tmp/ccaMWCvb.s:218    .text:0000000000000164 .L0 
     /tmp/ccaMWCvb.s:220    .text:0000000000000168 .L0 
     /tmp/ccaMWCvb.s:222    .text:000000000000016c .L0 
     /tmp/ccaMWCvb.s:236    .bss:0000000000000008 _ZN9Scheduler4tailE
     /tmp/ccaMWCvb.s:232    .bss:0000000000000000 _ZN9Scheduler4headE
     /tmp/ccaMWCvb.s:229    .bss:0000000000000000 .LANCHOR0
     /tmp/ccaMWCvb.s:245    .text:000000000000016c .L0 
     /tmp/ccaMWCvb.s:30     .text:000000000000001c .L0 
     /tmp/ccaMWCvb.s:35     .text:0000000000000028 .L0 
     /tmp/ccaMWCvb.s:74     .text:0000000000000074 .L0 
     /tmp/ccaMWCvb.s:115    .text:00000000000000bc .L0 
     /tmp/ccaMWCvb.s:129    .text:00000000000000d8 .L0 
     /tmp/ccaMWCvb.s:164    .text:000000000000011c .L0 
     /tmp/ccaMWCvb.s:214    .text:0000000000000154 .L0 
     /tmp/ccaMWCvb.s:70     .text:0000000000000074 .L5
     /tmp/ccaMWCvb.s:53     .text:000000000000005c .L1
     /tmp/ccaMWCvb.s:143    .text:0000000000000100 .L6
     /tmp/ccaMWCvb.s:160    .text:000000000000011c .L11
GAS LISTING /tmp/ccaMWCvb.s 			page 9


     /tmp/ccaMWCvb.s:135    .text:00000000000000f0 .L9
     /tmp/ccaMWCvb.s:1346   .debug_abbrev:0000000000000000 .Ldebug_abbrev0
     /tmp/ccaMWCvb.s:2480   .debug_str:0000000000000613 .LASF110
     /tmp/ccaMWCvb.s:2368   .debug_str:00000000000002eb .LASF111
     /tmp/ccaMWCvb.s:2490   .debug_str:0000000000000711 .LASF112
     /tmp/ccaMWCvb.s:5      .text:0000000000000000 .Ltext0
     /tmp/ccaMWCvb.s:239    .text:000000000000016c .Letext0
     /tmp/ccaMWCvb.s:2264   .debug_line:0000000000000000 .Ldebug_line0
     /tmp/ccaMWCvb.s:2364   .debug_str:00000000000002cb .LASF0
     /tmp/ccaMWCvb.s:2382   .debug_str:0000000000000369 .LASF1
     /tmp/ccaMWCvb.s:2432   .debug_str:00000000000004ca .LASF2
     /tmp/ccaMWCvb.s:2438   .debug_str:00000000000004fa .LASF4
     /tmp/ccaMWCvb.s:2372   .debug_str:0000000000000307 .LASF3
     /tmp/ccaMWCvb.s:2274   .debug_str:0000000000000027 .LASF5
     /tmp/ccaMWCvb.s:2426   .debug_str:00000000000004a4 .LASF6
     /tmp/ccaMWCvb.s:2420   .debug_str:0000000000000470 .LASF7
     /tmp/ccaMWCvb.s:2376   .debug_str:0000000000000335 .LASF8
     /tmp/ccaMWCvb.s:2342   .debug_str:0000000000000203 .LASF9
     /tmp/ccaMWCvb.s:2346   .debug_str:000000000000022a .LASF10
     /tmp/ccaMWCvb.s:2302   .debug_str:00000000000000fd .LASF11
     /tmp/ccaMWCvb.s:2334   .debug_str:00000000000001ce .LASF12
     /tmp/ccaMWCvb.s:2310   .debug_str:000000000000012e .LASF13
     /tmp/ccaMWCvb.s:2300   .debug_str:00000000000000ed .LASF14
     /tmp/ccaMWCvb.s:2456   .debug_str:000000000000057c .LASF15
     /tmp/ccaMWCvb.s:2326   .debug_str:0000000000000190 .LASF16
     /tmp/ccaMWCvb.s:2450   .debug_str:000000000000054d .LASF17
     /tmp/ccaMWCvb.s:2412   .debug_str:000000000000043c .LASF18
     /tmp/ccaMWCvb.s:2482   .debug_str:00000000000006d7 .LASF113
     /tmp/ccaMWCvb.s:2308   .debug_str:0000000000000125 .LASF19
     /tmp/ccaMWCvb.s:2304   .debug_str:000000000000010c .LASF20
     /tmp/ccaMWCvb.s:2462   .debug_str:00000000000005a6 .LASF114
     /tmp/ccaMWCvb.s:2504   .debug_str:0000000000000793 .LASF22
     /tmp/ccaMWCvb.s:2290   .debug_str:00000000000000ba .LASF27
     /tmp/ccaMWCvb.s:2332   .debug_str:00000000000001bc .LASF29
     /tmp/ccaMWCvb.s:2324   .debug_str:0000000000000188 .LASF21
     /tmp/ccaMWCvb.s:2488   .debug_str:00000000000006fd .LASF25
     /tmp/ccaMWCvb.s:2400   .debug_str:00000000000003e4 .LASF90
     /tmp/ccaMWCvb.s:2410   .debug_str:0000000000000437 .LASF115
     /tmp/ccaMWCvb.s:2476   .debug_str:00000000000005f8 .LASF23
     /tmp/ccaMWCvb.s:2292   .debug_str:00000000000000c2 .LASF24
     /tmp/ccaMWCvb.s:2350   .debug_str:0000000000000246 .LASF26
     /tmp/ccaMWCvb.s:2348   .debug_str:0000000000000238 .LASF28
     /tmp/ccaMWCvb.s:2384   .debug_str:000000000000037c .LASF30
     /tmp/ccaMWCvb.s:2492   .debug_str:0000000000000734 .LASF31
     /tmp/ccaMWCvb.s:2344   .debug_str:0000000000000213 .LASF32
     /tmp/ccaMWCvb.s:2362   .debug_str:00000000000002bd .LASF33
     /tmp/ccaMWCvb.s:2378   .debug_str:0000000000000348 .LASF34
     /tmp/ccaMWCvb.s:2322   .debug_str:000000000000017f .LASF116
     /tmp/ccaMWCvb.s:2280   .debug_str:000000000000004e .LASF117
     /tmp/ccaMWCvb.s:2276   .debug_str:000000000000002e .LASF35
     /tmp/ccaMWCvb.s:2478   .debug_str:0000000000000600 .LASF36
     /tmp/ccaMWCvb.s:2416   .debug_str:000000000000045b .LASF37
     /tmp/ccaMWCvb.s:2440   .debug_str:0000000000000501 .LASF38
     /tmp/ccaMWCvb.s:2512   .debug_str:00000000000007d0 .LASF39
     /tmp/ccaMWCvb.s:2392   .debug_str:00000000000003be .LASF40
     /tmp/ccaMWCvb.s:2328   .debug_str:00000000000001a6 .LASF55
     /tmp/ccaMWCvb.s:2430   .debug_str:00000000000004b3 .LASF57
GAS LISTING /tmp/ccaMWCvb.s 			page 10


     /tmp/ccaMWCvb.s:2282   .debug_str:0000000000000061 .LASF41
     /tmp/ccaMWCvb.s:2444   .debug_str:0000000000000525 .LASF42
     /tmp/ccaMWCvb.s:2518   .debug_str:00000000000007f0 .LASF43
     /tmp/ccaMWCvb.s:2458   .debug_str:0000000000000588 .LASF44
     /tmp/ccaMWCvb.s:2466   .debug_str:00000000000005bd .LASF45
     /tmp/ccaMWCvb.s:2390   .debug_str:00000000000003a8 .LASF46
     /tmp/ccaMWCvb.s:2460   .debug_str:00000000000005a0 .LASF47
     /tmp/ccaMWCvb.s:2470   .debug_str:00000000000005cd .LASF48
     /tmp/ccaMWCvb.s:2474   .debug_str:00000000000005f1 .LASF49
     /tmp/ccaMWCvb.s:2388   .debug_str:000000000000039b .LASF50
     /tmp/ccaMWCvb.s:2312   .debug_str:000000000000013e .LASF51
     /tmp/ccaMWCvb.s:2320   .debug_str:0000000000000172 .LASF52
     /tmp/ccaMWCvb.s:2436   .debug_str:00000000000004e2 .LASF53
     /tmp/ccaMWCvb.s:2386   .debug_str:0000000000000395 .LASF98
     /tmp/ccaMWCvb.s:2422   .debug_str:0000000000000483 .LASF100
     /tmp/ccaMWCvb.s:2418   .debug_str:0000000000000463 .LASF67
     /tmp/ccaMWCvb.s:2316   .debug_str:0000000000000165 .LASF54
     /tmp/ccaMWCvb.s:2472   .debug_str:00000000000005dd .LASF56
     /tmp/ccaMWCvb.s:2404   .debug_str:0000000000000402 .LASF58
     /tmp/ccaMWCvb.s:2296   .debug_str:00000000000000dc .LASF59
     /tmp/ccaMWCvb.s:2510   .debug_str:00000000000007bf .LASF60
     /tmp/ccaMWCvb.s:2318   .debug_str:000000000000016c .LASF61
     /tmp/ccaMWCvb.s:2500   .debug_str:000000000000077e .LASF62
     /tmp/ccaMWCvb.s:2402   .debug_str:00000000000003fb .LASF63
     /tmp/ccaMWCvb.s:2424   .debug_str:0000000000000493 .LASF64
     /tmp/ccaMWCvb.s:2272   .debug_str:0000000000000021 .LASF65
     /tmp/ccaMWCvb.s:2354   .debug_str:0000000000000268 .LASF66
     /tmp/ccaMWCvb.s:2396   .debug_str:00000000000003d3 .LASF68
     /tmp/ccaMWCvb.s:2442   .debug_str:0000000000000513 .LASF69
     /tmp/ccaMWCvb.s:2286   .debug_str:0000000000000085 .LASF70
     /tmp/ccaMWCvb.s:2464   .debug_str:00000000000005ae .LASF71
     /tmp/ccaMWCvb.s:2516   .debug_str:00000000000007ea .LASF72
     /tmp/ccaMWCvb.s:2496   .debug_str:0000000000000757 .LASF73
     /tmp/ccaMWCvb.s:2502   .debug_str:000000000000078e .LASF74
     /tmp/ccaMWCvb.s:2380   .debug_str:0000000000000361 .LASF75
     /tmp/ccaMWCvb.s:2486   .debug_str:00000000000006f3 .LASF76
     /tmp/ccaMWCvb.s:2448   .debug_str:0000000000000544 .LASF77
     /tmp/ccaMWCvb.s:2434   .debug_str:00000000000004d8 .LASF78
     /tmp/ccaMWCvb.s:2352   .debug_str:000000000000025d .LASF79
     /tmp/ccaMWCvb.s:2398   .debug_str:00000000000003de .LASF80
     /tmp/ccaMWCvb.s:2270   .debug_str:000000000000001c .LASF81
     /tmp/ccaMWCvb.s:2294   .debug_str:00000000000000ce .LASF118
     /tmp/ccaMWCvb.s:2284   .debug_str:000000000000006c .LASF119
     /tmp/ccaMWCvb.s:2314   .debug_str:0000000000000157 .LASF82
     /tmp/ccaMWCvb.s:2288   .debug_str:0000000000000092 .LASF84
     /tmp/ccaMWCvb.s:2298   .debug_str:00000000000000e3 .LASF83
     /tmp/ccaMWCvb.s:2338   .debug_str:00000000000001e5 .LASF85
     /tmp/ccaMWCvb.s:2370   .debug_str:00000000000002fd .LASF120
     /tmp/ccaMWCvb.s:2484   .debug_str:00000000000006df .LASF121
     /tmp/ccaMWCvb.s:2414   .debug_str:0000000000000452 .LASF86
     /tmp/ccaMWCvb.s:2454   .debug_str:0000000000000577 .LASF87
     /tmp/ccaMWCvb.s:2406   .debug_str:0000000000000421 .LASF88
     /tmp/ccaMWCvb.s:2408   .debug_str:0000000000000426 .LASF89
     /tmp/ccaMWCvb.s:2360   .debug_str:00000000000002a6 .LASF91
     /tmp/ccaMWCvb.s:2366   .debug_str:00000000000002d8 .LASF122
     /tmp/ccaMWCvb.s:2336   .debug_str:00000000000001dd .LASF92
     /tmp/ccaMWCvb.s:2358   .debug_str:000000000000028a .LASF93
GAS LISTING /tmp/ccaMWCvb.s 			page 11


     /tmp/ccaMWCvb.s:2506   .debug_str:00000000000007a1 .LASF94
     /tmp/ccaMWCvb.s:2374   .debug_str:0000000000000319 .LASF95
     /tmp/ccaMWCvb.s:2428   .debug_str:00000000000004ab .LASF96
     /tmp/ccaMWCvb.s:2494   .debug_str:0000000000000740 .LASF97
     /tmp/ccaMWCvb.s:2446   .debug_str:000000000000053c .LASF99
     /tmp/ccaMWCvb.s:2266   .debug_str:0000000000000000 .LASF101
     /tmp/ccaMWCvb.s:2394   .debug_str:00000000000003ce .LASF102
     /tmp/ccaMWCvb.s:2468   .debug_str:00000000000005c8 .LASF103
     /tmp/ccaMWCvb.s:2340   .debug_str:00000000000001f9 .LASF104
     /tmp/ccaMWCvb.s:2278   .debug_str:0000000000000036 .LASF123
     /tmp/ccaMWCvb.s:2514   .debug_str:00000000000007d6 .LASF124
     /tmp/ccaMWCvb.s:2330   .debug_str:00000000000001b2 .LASF105
     /tmp/ccaMWCvb.s:2498   .debug_str:0000000000000764 .LASF106
     /tmp/ccaMWCvb.s:2508   .debug_str:00000000000007ad .LASF107
     /tmp/ccaMWCvb.s:2306   .debug_str:0000000000000111 .LASF108
     /tmp/ccaMWCvb.s:2452   .debug_str:0000000000000563 .LASF109
     /tmp/ccaMWCvb.s:203    .text:0000000000000148 .LFB5
     /tmp/ccaMWCvb.s:223    .text:000000000000016c .LFE5
     /tmp/ccaMWCvb.s:2268   .debug_str:0000000000000017 .LASF125
     /tmp/ccaMWCvb.s:2356   .debug_str:0000000000000278 .LASF126
     /tmp/ccaMWCvb.s:177    .text:0000000000000130 .LFB3
     /tmp/ccaMWCvb.s:195    .text:0000000000000148 .LFE3
     /tmp/ccaMWCvb.s:98     .text:00000000000000a4 .LFB1
     /tmp/ccaMWCvb.s:171    .text:0000000000000130 .LFE1
     /tmp/ccaMWCvb.s:2218   .debug_loc:0000000000000000 .LLST1
     /tmp/ccaMWCvb.s:124    .text:00000000000000d4 .LVL10
     /tmp/ccaMWCvb.s:132    .text:00000000000000ec .LVL11
     /tmp/ccaMWCvb.s:141    .text:0000000000000100 .LVL12
     /tmp/ccaMWCvb.s:10     .text:0000000000000000 .LFB0
     /tmp/ccaMWCvb.s:92     .text:00000000000000a4 .LFE0
     /tmp/ccaMWCvb.s:2229   .debug_loc:0000000000000036 .LLST0
     /tmp/ccaMWCvb.s:40     .text:0000000000000040 .LVL2
     /tmp/ccaMWCvb.s:45     .text:000000000000004c .LVL3
     /tmp/ccaMWCvb.s:52     .text:000000000000005c .LVL4
     /tmp/ccaMWCvb.s:80     .text:000000000000008c .LVL7
     /tmp/ccaMWCvb.s:89     .text:00000000000000a0 .LVL8
     /tmp/ccaMWCvb.s:119    .text:00000000000000c8 .LVL9
     /tmp/ccaMWCvb.s:159    .text:000000000000011c .LVL13
     /tmp/ccaMWCvb.s:14     .text:0000000000000000 .LVL0
     /tmp/ccaMWCvb.s:38     .text:0000000000000038 .LVL1
     /tmp/ccaMWCvb.s:63     .text:0000000000000068 .LVL5
     /tmp/ccaMWCvb.s:69     .text:0000000000000074 .LVL6
     /tmp/ccaMWCvb.s:246    .debug_info:0000000000000000 .Ldebug_info0

UNDEFINED SYMBOLS
_ZN3PCB7setNextEPS_
_ZN3PCB7getNextEv
