GAS LISTING /tmp/ccQpCLws.s 			page 1


   1              		.file	"Sem.cpp"
   2              		.option pic
   3              		.option norelax
   4              		.text
   5              	.Ltext0:
   6              		.align	2
   7              		.globl	_Z12allocateListv
   9              	_Z12allocateListv:
  10              	.LFB0:
  11              		.file 1 "src/Sem.cpp"
   1:src/Sem.cpp   **** #include "../h/Sem.h"
   2:src/Sem.cpp   **** #include "../h/PCB.h"
   3:src/Sem.cpp   **** 
   4:src/Sem.cpp   **** 
   5:src/Sem.cpp   **** PCB_List* allocateList(){
  12              		.loc 1 5 25
  13              		.cfi_startproc
  14 0000 130101FF 		addi	sp,sp,-16
  15              		.cfi_def_cfa_offset 16
  16 0004 23341100 		sd	ra,8(sp)
  17 0008 23308100 		sd	s0,0(sp)
  18              		.cfi_offset 1, -8
  19              		.cfi_offset 8, -16
  20 000c 13040101 		addi	s0,sp,16
  21              		.cfi_def_cfa 8, 0
   6:src/Sem.cpp   ****     uint64 size = sizeof (PCB_List) + ALLOCATED_HEADER_SIZE;
  22              		.loc 1 6 5
  23              	.LVL0:
   7:src/Sem.cpp   ****     uint64 inBlocks = size/MEM_BLOCK_SIZE;
  24              		.loc 1 7 5
   8:src/Sem.cpp   ****     if(size%MEM_BLOCK_SIZE!=0){
  25              		.loc 1 8 5
   9:src/Sem.cpp   ****         inBlocks++;
  26              		.loc 1 9 9
  10:src/Sem.cpp   ****     }
  11:src/Sem.cpp   ****     inBlocks*=MEM_BLOCK_SIZE;
  27              		.loc 1 11 5
  12:src/Sem.cpp   ****     void* retAdr = MemoryAllocator::mem_alloc((size_t) inBlocks);
  28              		.loc 1 12 5
  29              		.loc 1 12 46 is_stmt 0
  30 0010 13050004 		li	a0,64
  31 0014 97000000 		call	_ZN15MemoryAllocator9mem_allocEm@plt
  31      E7800000 
  32              	.LVL1:
  13:src/Sem.cpp   ****     long* header = (long*) retAdr;
  33              		.loc 1 13 5 is_stmt 1
  14:src/Sem.cpp   ****     inBlocks/=MEM_BLOCK_SIZE;
  34              		.loc 1 14 5
  15:src/Sem.cpp   ****     *header = inBlocks;
  35              		.loc 1 15 5
  36              		.loc 1 15 13 is_stmt 0
  37 001c 93071000 		li	a5,1
  38 0020 2330F500 		sd	a5,0(a0)
  16:src/Sem.cpp   ****     header++;
  39              		.loc 1 16 5 is_stmt 1
  40              	.LVL2:
  17:src/Sem.cpp   ****     void* ret = (void*)header;
GAS LISTING /tmp/ccQpCLws.s 			page 2


  41              		.loc 1 17 5
  18:src/Sem.cpp   ****     return (PCB_List*)ret;
  42              		.loc 1 18 5
  19:src/Sem.cpp   **** }
  43              		.loc 1 19 1 is_stmt 0
  44 0024 13058500 		addi	a0,a0,8
  45              	.LVL3:
  46 0028 83308100 		ld	ra,8(sp)
  47              		.cfi_restore 1
  48 002c 03340100 		ld	s0,0(sp)
  49              		.cfi_restore 8
  50              		.cfi_def_cfa 2, 16
  51 0030 13010101 		addi	sp,sp,16
  52              		.cfi_def_cfa_offset 0
  53 0034 67800000 		jr	ra
  54              		.cfi_endproc
  55              	.LFE0:
  57              		.align	2
  58              		.globl	_ZN3SemC2Ei
  60              	_ZN3SemC2Ei:
  61              	.LFB2:
  20:src/Sem.cpp   **** 
  21:src/Sem.cpp   **** Sem::Sem(int init) {
  62              		.loc 1 21 1 is_stmt 1
  63              		.cfi_startproc
  64              	.LVL4:
  65 0038 130101FE 		addi	sp,sp,-32
  66              		.cfi_def_cfa_offset 32
  67 003c 233C1100 		sd	ra,24(sp)
  68 0040 23388100 		sd	s0,16(sp)
  69 0044 23349100 		sd	s1,8(sp)
  70              		.cfi_offset 1, -8
  71              		.cfi_offset 8, -16
  72              		.cfi_offset 9, -24
  73 0048 13040102 		addi	s0,sp,32
  74              		.cfi_def_cfa 8, 0
  75 004c 93040500 		mv	s1,a0
  76              	.LBB2:
  22:src/Sem.cpp   ****     count = init;
  77              		.loc 1 22 5
  78              		.loc 1 22 11 is_stmt 0
  79 0050 2320B500 		sw	a1,0(a0)
  23:src/Sem.cpp   ****     waiting_PCB =allocateList();
  80              		.loc 1 23 5 is_stmt 1
  81              		.loc 1 23 30 is_stmt 0
  82 0054 97000000 		call	_Z12allocateListv
  82      E7800000 
  83              	.LVL5:
  84              		.loc 1 23 17
  85 005c 23B4A400 		sd	a0,8(s1)
  24:src/Sem.cpp   ****     waiting_PCB->setNull();
  86              		.loc 1 24 5 is_stmt 1
  87              		.loc 1 24 25 is_stmt 0
  88 0060 97000000 		call	_ZN8PCB_List7setNullEv@plt
  88      E7800000 
  89              	.LVL6:
  90              	.LBE2:
GAS LISTING /tmp/ccQpCLws.s 			page 3


  25:src/Sem.cpp   **** }
  91              		.loc 1 25 1
  92 0068 83308101 		ld	ra,24(sp)
  93              		.cfi_restore 1
  94 006c 03340101 		ld	s0,16(sp)
  95              		.cfi_restore 8
  96              		.cfi_def_cfa 2, 32
  97 0070 83348100 		ld	s1,8(sp)
  98              		.cfi_restore 9
  99              	.LVL7:
 100 0074 13010102 		addi	sp,sp,32
 101              		.cfi_def_cfa_offset 0
 102 0078 67800000 		jr	ra
 103              		.cfi_endproc
 104              	.LFE2:
 106              		.globl	_ZN3SemC1Ei
 107              		.set	_ZN3SemC1Ei,_ZN3SemC2Ei
 108              		.align	2
 109              		.globl	_ZN3Sem5valueEv
 111              	_ZN3Sem5valueEv:
 112              	.LFB6:
  26:src/Sem.cpp   **** void Sem::wait() {
  27:src/Sem.cpp   **** //    Interrupt::lock();
  28:src/Sem.cpp   ****     if(--count<0)block();
  29:src/Sem.cpp   **** //    Interrupt::unlock();
  30:src/Sem.cpp   **** }
  31:src/Sem.cpp   **** 
  32:src/Sem.cpp   **** void Sem::signal() {
  33:src/Sem.cpp   **** //    Interrupt::lock();
  34:src/Sem.cpp   ****     if(++count<=0)unblock();
  35:src/Sem.cpp   **** //    Interrupt::unlock();
  36:src/Sem.cpp   **** }
  37:src/Sem.cpp   **** 
  38:src/Sem.cpp   **** int Sem::value() {
 113              		.loc 1 38 18 is_stmt 1
 114              		.cfi_startproc
 115              	.LVL8:
 116 007c 130101FF 		addi	sp,sp,-16
 117              		.cfi_def_cfa_offset 16
 118 0080 23348100 		sd	s0,8(sp)
 119              		.cfi_offset 8, -8
 120 0084 13040101 		addi	s0,sp,16
 121              		.cfi_def_cfa 8, 0
  39:src/Sem.cpp   ****     return count;
 122              		.loc 1 39 5
  40:src/Sem.cpp   **** }
 123              		.loc 1 40 1 is_stmt 0
 124 0088 03250500 		lw	a0,0(a0)
 125              	.LVL9:
 126 008c 03348100 		ld	s0,8(sp)
 127              		.cfi_restore 8
 128              		.cfi_def_cfa 2, 16
 129 0090 13010101 		addi	sp,sp,16
 130              		.cfi_def_cfa_offset 0
 131 0094 67800000 		jr	ra
 132              		.cfi_endproc
 133              	.LFE6:
GAS LISTING /tmp/ccQpCLws.s 			page 4


 135              		.align	2
 136              		.globl	_ZN3Sem5blockEv
 138              	_ZN3Sem5blockEv:
 139              	.LFB7:
  41:src/Sem.cpp   **** 
  42:src/Sem.cpp   **** void Sem::block() {
 140              		.loc 1 42 19 is_stmt 1
 141              		.cfi_startproc
 142              	.LVL10:
 143 0098 130101FE 		addi	sp,sp,-32
 144              		.cfi_def_cfa_offset 32
 145 009c 233C1100 		sd	ra,24(sp)
 146 00a0 23388100 		sd	s0,16(sp)
 147 00a4 23349100 		sd	s1,8(sp)
 148              		.cfi_offset 1, -8
 149              		.cfi_offset 8, -16
 150              		.cfi_offset 9, -24
 151 00a8 13040102 		addi	s0,sp,32
 152              		.cfi_def_cfa 8, 0
  43:src/Sem.cpp   ****     waiting_PCB->put(PCB::running);
 153              		.loc 1 43 5
 154              		.loc 1 43 21 is_stmt 0
 155 00ac 97040000 		la	s1,_ZN3PCB7runningE
 155      83B40400 
 156 00b4 83B50400 		ld	a1,0(s1)
 157 00b8 03358500 		ld	a0,8(a0)
 158              	.LVL11:
 159 00bc 97000000 		call	_ZN8PCB_List3putEP3PCB@plt
 159      E7800000 
 160              	.LVL12:
  44:src/Sem.cpp   ****     PCB::running->setBlocked(true);
 161              		.loc 1 44 5 is_stmt 1
 162              		.loc 1 44 29 is_stmt 0
 163 00c4 93051000 		li	a1,1
 164 00c8 03B50400 		ld	a0,0(s1)
 165 00cc 97000000 		call	_ZN3PCB10setBlockedEb@plt
 165      E7800000 
 166              	.LVL13:
  45:src/Sem.cpp   ****     PCB::timeLeft = 0;
 167              		.loc 1 45 5 is_stmt 1
 168              		.loc 1 45 19 is_stmt 0
 169 00d4 97070000 		la	a5,_ZN3PCB8timeLeftE
 169      83B70700 
 170 00dc 23B00700 		sd	zero,0(a5)
  46:src/Sem.cpp   ****     PCB::dispatch();
 171              		.loc 1 46 5 is_stmt 1
 172              		.loc 1 46 18 is_stmt 0
 173 00e0 97000000 		call	_ZN3PCB8dispatchEv@plt
 173      E7800000 
 174              	.LVL14:
  47:src/Sem.cpp   **** }
 175              		.loc 1 47 1
 176 00e8 83308101 		ld	ra,24(sp)
 177              		.cfi_restore 1
 178 00ec 03340101 		ld	s0,16(sp)
 179              		.cfi_restore 8
 180              		.cfi_def_cfa 2, 32
GAS LISTING /tmp/ccQpCLws.s 			page 5


 181 00f0 83348100 		ld	s1,8(sp)
 182              		.cfi_restore 9
 183 00f4 13010102 		addi	sp,sp,32
 184              		.cfi_def_cfa_offset 0
 185 00f8 67800000 		jr	ra
 186              		.cfi_endproc
 187              	.LFE7:
 189              		.align	2
 190              		.globl	_ZN3Sem4waitEv
 192              	_ZN3Sem4waitEv:
 193              	.LFB4:
  26:src/Sem.cpp   **** //    Interrupt::lock();
 194              		.loc 1 26 18 is_stmt 1
 195              		.cfi_startproc
 196              	.LVL15:
  28:src/Sem.cpp   **** //    Interrupt::unlock();
 197              		.loc 1 28 5
  28:src/Sem.cpp   **** //    Interrupt::unlock();
 198              		.loc 1 28 10 is_stmt 0
 199 00fc 83270500 		lw	a5,0(a0)
  28:src/Sem.cpp   **** //    Interrupt::unlock();
 200              		.loc 1 28 8
 201 0100 9B87F7FF 		addiw	a5,a5,-1
  28:src/Sem.cpp   **** //    Interrupt::unlock();
 202              		.loc 1 28 15
 203 0104 2320F500 		sw	a5,0(a0)
  28:src/Sem.cpp   **** //    Interrupt::unlock();
 204              		.loc 1 28 5
 205 0108 13970702 		slli	a4,a5,32
 206 010c 63440700 		bltz	a4,.L15
 207 0110 67800000 		ret
 208              	.L15:
  26:src/Sem.cpp   **** //    Interrupt::lock();
 209              		.loc 1 26 18 discriminator 1
 210 0114 130101FF 		addi	sp,sp,-16
 211              		.cfi_def_cfa_offset 16
 212 0118 23341100 		sd	ra,8(sp)
 213 011c 23308100 		sd	s0,0(sp)
 214              		.cfi_offset 1, -8
 215              		.cfi_offset 8, -16
 216 0120 13040101 		addi	s0,sp,16
 217              		.cfi_def_cfa 8, 0
  28:src/Sem.cpp   **** //    Interrupt::unlock();
 218              		.loc 1 28 18 is_stmt 1 discriminator 1
  28:src/Sem.cpp   **** //    Interrupt::unlock();
 219              		.loc 1 28 23 is_stmt 0 discriminator 1
 220 0124 97000000 		call	_ZN3Sem5blockEv
 220      E7800000 
 221              	.LVL16:
  30:src/Sem.cpp   **** 
 222              		.loc 1 30 1 discriminator 1
 223 012c 83308100 		ld	ra,8(sp)
 224              		.cfi_restore 1
 225 0130 03340100 		ld	s0,0(sp)
 226              		.cfi_restore 8
 227              		.cfi_def_cfa 2, 16
 228 0134 13010101 		addi	sp,sp,16
GAS LISTING /tmp/ccQpCLws.s 			page 6


 229              		.cfi_def_cfa_offset 0
 230 0138 67800000 		jr	ra
 231              		.cfi_endproc
 232              	.LFE4:
 234              		.align	2
 235              		.globl	_ZN3Sem7unblockEv
 237              	_ZN3Sem7unblockEv:
 238              	.LFB8:
  48:src/Sem.cpp   **** 
  49:src/Sem.cpp   **** void Sem::unblock() {
 239              		.loc 1 49 21 is_stmt 1
 240              		.cfi_startproc
 241              	.LVL17:
 242 013c 130101FE 		addi	sp,sp,-32
 243              		.cfi_def_cfa_offset 32
 244 0140 233C1100 		sd	ra,24(sp)
 245 0144 23388100 		sd	s0,16(sp)
 246 0148 23349100 		sd	s1,8(sp)
 247              		.cfi_offset 1, -8
 248              		.cfi_offset 8, -16
 249              		.cfi_offset 9, -24
 250 014c 13040102 		addi	s0,sp,32
 251              		.cfi_def_cfa 8, 0
  50:src/Sem.cpp   ****     PCB* pcb = waiting_PCB->get();
 252              		.loc 1 50 5
 253              		.loc 1 50 32 is_stmt 0
 254 0150 03358500 		ld	a0,8(a0)
 255              	.LVL18:
 256 0154 97000000 		call	_ZN8PCB_List3getEv@plt
 256      E7800000 
 257              	.LVL19:
  51:src/Sem.cpp   ****     if(pcb == nullptr) return;
 258              		.loc 1 51 5 is_stmt 1
 259 015c 63020502 		beqz	a0,.L16
 260 0160 93040500 		mv	s1,a0
  52:src/Sem.cpp   ****     pcb->setBlocked(false);
 261              		.loc 1 52 5
 262              		.loc 1 52 20 is_stmt 0
 263 0164 93050000 		li	a1,0
 264 0168 97000000 		call	_ZN3PCB10setBlockedEb@plt
 264      E7800000 
 265              	.LVL20:
  53:src/Sem.cpp   ****     pcb->unblockError = false;
 266              		.loc 1 53 5 is_stmt 1
 267              		.loc 1 53 23 is_stmt 0
 268 0170 23800400 		sb	zero,0(s1)
  54:src/Sem.cpp   ****     Scheduler::put(pcb);
 269              		.loc 1 54 5 is_stmt 1
 270              		.loc 1 54 19 is_stmt 0
 271 0174 13850400 		mv	a0,s1
 272 0178 97000000 		call	_ZN9Scheduler3putEP3PCB@plt
 272      E7800000 
 273              	.LVL21:
 274              	.L16:
  55:src/Sem.cpp   ****     //PCB::dispatch();
  56:src/Sem.cpp   **** }
 275              		.loc 1 56 1
GAS LISTING /tmp/ccQpCLws.s 			page 7


 276 0180 83308101 		ld	ra,24(sp)
 277              		.cfi_restore 1
 278 0184 03340101 		ld	s0,16(sp)
 279              		.cfi_restore 8
 280              		.cfi_def_cfa 2, 32
 281 0188 83348100 		ld	s1,8(sp)
 282              		.cfi_restore 9
 283 018c 13010102 		addi	sp,sp,32
 284              		.cfi_def_cfa_offset 0
 285 0190 67800000 		jr	ra
 286              		.cfi_endproc
 287              	.LFE8:
 289              		.align	2
 290              		.globl	_ZN3Sem6signalEv
 292              	_ZN3Sem6signalEv:
 293              	.LFB5:
  32:src/Sem.cpp   **** //    Interrupt::lock();
 294              		.loc 1 32 20 is_stmt 1
 295              		.cfi_startproc
 296              	.LVL22:
  34:src/Sem.cpp   **** //    Interrupt::unlock();
 297              		.loc 1 34 5
  34:src/Sem.cpp   **** //    Interrupt::unlock();
 298              		.loc 1 34 10 is_stmt 0
 299 0194 83270500 		lw	a5,0(a0)
  34:src/Sem.cpp   **** //    Interrupt::unlock();
 300              		.loc 1 34 8
 301 0198 9B871700 		addiw	a5,a5,1
 302 019c 1B870700 		sext.w	a4,a5
  34:src/Sem.cpp   **** //    Interrupt::unlock();
 303              		.loc 1 34 15
 304 01a0 2320F500 		sw	a5,0(a0)
  34:src/Sem.cpp   **** //    Interrupt::unlock();
 305              		.loc 1 34 5
 306 01a4 6354E000 		blez	a4,.L25
 307 01a8 67800000 		ret
 308              	.L25:
  32:src/Sem.cpp   **** //    Interrupt::lock();
 309              		.loc 1 32 20 discriminator 1
 310 01ac 130101FF 		addi	sp,sp,-16
 311              		.cfi_def_cfa_offset 16
 312 01b0 23341100 		sd	ra,8(sp)
 313 01b4 23308100 		sd	s0,0(sp)
 314              		.cfi_offset 1, -8
 315              		.cfi_offset 8, -16
 316 01b8 13040101 		addi	s0,sp,16
 317              		.cfi_def_cfa 8, 0
  34:src/Sem.cpp   **** //    Interrupt::unlock();
 318              		.loc 1 34 19 is_stmt 1 discriminator 1
  34:src/Sem.cpp   **** //    Interrupt::unlock();
 319              		.loc 1 34 26 is_stmt 0 discriminator 1
 320 01bc 97000000 		call	_ZN3Sem7unblockEv
 320      E7800000 
 321              	.LVL23:
  36:src/Sem.cpp   **** 
 322              		.loc 1 36 1 discriminator 1
 323 01c4 83308100 		ld	ra,8(sp)
GAS LISTING /tmp/ccQpCLws.s 			page 8


 324              		.cfi_restore 1
 325 01c8 03340100 		ld	s0,0(sp)
 326              		.cfi_restore 8
 327              		.cfi_def_cfa 2, 16
 328 01cc 13010101 		addi	sp,sp,16
 329              		.cfi_def_cfa_offset 0
 330 01d0 67800000 		jr	ra
 331              		.cfi_endproc
 332              	.LFE5:
 334              		.align	2
 335              		.globl	_ZN3Sem11allocateSemEv
 337              	_ZN3Sem11allocateSemEv:
 338              	.LFB9:
  57:src/Sem.cpp   **** 
  58:src/Sem.cpp   **** void *Sem::allocateSem() {
 339              		.loc 1 58 26 is_stmt 1
 340              		.cfi_startproc
 341 01d4 130101FF 		addi	sp,sp,-16
 342              		.cfi_def_cfa_offset 16
 343 01d8 23341100 		sd	ra,8(sp)
 344 01dc 23308100 		sd	s0,0(sp)
 345              		.cfi_offset 1, -8
 346              		.cfi_offset 8, -16
 347 01e0 13040101 		addi	s0,sp,16
 348              		.cfi_def_cfa 8, 0
  59:src/Sem.cpp   ****     uint64 size = sizeof (Sem) + ALLOCATED_HEADER_SIZE;
 349              		.loc 1 59 5
 350              	.LVL24:
  60:src/Sem.cpp   ****     uint64 inBlocks = size/MEM_BLOCK_SIZE;
 351              		.loc 1 60 5
  61:src/Sem.cpp   ****     if(size%MEM_BLOCK_SIZE!=0){
 352              		.loc 1 61 5
  62:src/Sem.cpp   ****         inBlocks++;
 353              		.loc 1 62 9
  63:src/Sem.cpp   ****     }
  64:src/Sem.cpp   ****     inBlocks*=MEM_BLOCK_SIZE;
 354              		.loc 1 64 5
  65:src/Sem.cpp   ****     void* retAdr = MemoryAllocator::mem_alloc((size_t) inBlocks);
 355              		.loc 1 65 5
 356              		.loc 1 65 46 is_stmt 0
 357 01e4 13050004 		li	a0,64
 358 01e8 97000000 		call	_ZN15MemoryAllocator9mem_allocEm@plt
 358      E7800000 
 359              	.LVL25:
  66:src/Sem.cpp   ****     long* header = (long*) retAdr;
 360              		.loc 1 66 5 is_stmt 1
  67:src/Sem.cpp   ****     inBlocks/=MEM_BLOCK_SIZE;
 361              		.loc 1 67 5
  68:src/Sem.cpp   ****     *header = inBlocks;
 362              		.loc 1 68 5
 363              		.loc 1 68 13 is_stmt 0
 364 01f0 93071000 		li	a5,1
 365 01f4 2330F500 		sd	a5,0(a0)
  69:src/Sem.cpp   ****     header++;
 366              		.loc 1 69 5 is_stmt 1
 367              	.LVL26:
  70:src/Sem.cpp   ****     void* ret = (void*)header;
GAS LISTING /tmp/ccQpCLws.s 			page 9


 368              		.loc 1 70 5
  71:src/Sem.cpp   ****     return ret;
 369              		.loc 1 71 5
  72:src/Sem.cpp   **** }
 370              		.loc 1 72 1 is_stmt 0
 371 01f8 13058500 		addi	a0,a0,8
 372              	.LVL27:
 373 01fc 83308100 		ld	ra,8(sp)
 374              		.cfi_restore 1
 375 0200 03340100 		ld	s0,0(sp)
 376              		.cfi_restore 8
 377              		.cfi_def_cfa 2, 16
 378 0204 13010101 		addi	sp,sp,16
 379              		.cfi_def_cfa_offset 0
 380 0208 67800000 		jr	ra
 381              		.cfi_endproc
 382              	.LFE9:
 384              		.align	2
 385              		.globl	_ZN3Sem10deblockAllEv
 387              	_ZN3Sem10deblockAllEv:
 388              	.LFB10:
  73:src/Sem.cpp   **** 
  74:src/Sem.cpp   **** void Sem::deblockAll() {
 389              		.loc 1 74 24 is_stmt 1
 390              		.cfi_startproc
 391              	.LVL28:
 392 020c 130101FE 		addi	sp,sp,-32
 393              		.cfi_def_cfa_offset 32
 394 0210 233C1100 		sd	ra,24(sp)
 395 0214 23388100 		sd	s0,16(sp)
 396 0218 23349100 		sd	s1,8(sp)
 397 021c 23302101 		sd	s2,0(sp)
 398              		.cfi_offset 1, -8
 399              		.cfi_offset 8, -16
 400              		.cfi_offset 9, -24
 401              		.cfi_offset 18, -32
 402 0220 13040102 		addi	s0,sp,32
 403              		.cfi_def_cfa 8, 0
 404 0224 13090500 		mv	s2,a0
 405              	.LVL29:
 406              	.L30:
  75:src/Sem.cpp   ****     PCB* pcb;
 407              		.loc 1 75 5
  76:src/Sem.cpp   ****     while((pcb = waiting_PCB->get())!= nullptr){
 408              		.loc 1 76 5
 409              		.loc 1 76 37
 410              		.loc 1 76 34 is_stmt 0
 411 0228 03358900 		ld	a0,8(s2)
 412 022c 97000000 		call	_ZN8PCB_List3getEv@plt
 412      E7800000 
 413              	.LVL30:
 414 0234 93040500 		mv	s1,a0
 415              	.LVL31:
 416              		.loc 1 76 37
 417 0238 63040502 		beqz	a0,.L28
  77:src/Sem.cpp   ****         pcb->setBlocked(false);
 418              		.loc 1 77 9 is_stmt 1
GAS LISTING /tmp/ccQpCLws.s 			page 10


 419              		.loc 1 77 24 is_stmt 0
 420 023c 93050000 		li	a1,0
 421 0240 97000000 		call	_ZN3PCB10setBlockedEb@plt
 421      E7800000 
 422              	.LVL32:
  78:src/Sem.cpp   ****         pcb->unblockError = true;
 423              		.loc 1 78 9 is_stmt 1
 424              		.loc 1 78 27 is_stmt 0
 425 0248 93071000 		li	a5,1
 426 024c 2380F400 		sb	a5,0(s1)
  79:src/Sem.cpp   ****         Scheduler::put(pcb);
 427              		.loc 1 79 9 is_stmt 1
 428              		.loc 1 79 23 is_stmt 0
 429 0250 13850400 		mv	a0,s1
 430 0254 97000000 		call	_ZN9Scheduler3putEP3PCB@plt
 430      E7800000 
 431              	.LVL33:
  76:src/Sem.cpp   ****         pcb->setBlocked(false);
 432              		.loc 1 76 5
 433 025c 6FF0DFFC 		j	.L30
 434              	.L28:
  80:src/Sem.cpp   ****     }
  81:src/Sem.cpp   **** }
 435              		.loc 1 81 1
 436 0260 83308101 		ld	ra,24(sp)
 437              		.cfi_restore 1
 438 0264 03340101 		ld	s0,16(sp)
 439              		.cfi_restore 8
 440              		.cfi_def_cfa 2, 32
 441 0268 83348100 		ld	s1,8(sp)
 442              		.cfi_restore 9
 443              	.LVL34:
 444 026c 03390100 		ld	s2,0(sp)
 445              		.cfi_restore 18
 446              	.LVL35:
 447 0270 13010102 		addi	sp,sp,32
 448              		.cfi_def_cfa_offset 0
 449 0274 67800000 		jr	ra
 450              		.cfi_endproc
 451              	.LFE10:
 453              	.Letext0:
 454              		.file 2 "src/../h/../h/../lib/hw.h"
 455              		.file 3 "src/../h/../h/../h/syscall_c.h"
 456              		.file 4 "src/../h/../h/PCB_List.h"
 457              		.file 5 "src/../h/PCB.h"
 458              		.file 6 "src/../h/../h/MemoryAllocator.h"
 459              		.file 7 "src/../h/Sem.h"
 460              		.file 8 "src/../h/../h/Scheduler.h"
GAS LISTING /tmp/ccQpCLws.s 			page 11


DEFINED SYMBOLS
                            *ABS*:0000000000000000 Sem.cpp
     /tmp/ccQpCLws.s:9      .text:0000000000000000 _Z12allocateListv
     /tmp/ccQpCLws.s:13     .text:0000000000000000 .L0 
     /tmp/ccQpCLws.s:14     .text:0000000000000000 .L0 
     /tmp/ccQpCLws.s:15     .text:0000000000000004 .L0 
     /tmp/ccQpCLws.s:18     .text:000000000000000c .L0 
     /tmp/ccQpCLws.s:19     .text:000000000000000c .L0 
     /tmp/ccQpCLws.s:21     .text:0000000000000010 .L0 
     /tmp/ccQpCLws.s:24     .text:0000000000000010 .L0 
     /tmp/ccQpCLws.s:25     .text:0000000000000010 .L0 
     /tmp/ccQpCLws.s:26     .text:0000000000000010 .L0 
     /tmp/ccQpCLws.s:27     .text:0000000000000010 .L0 
     /tmp/ccQpCLws.s:28     .text:0000000000000010 .L0 
     /tmp/ccQpCLws.s:29     .text:0000000000000010 .L0 
     /tmp/ccQpCLws.s:30     .text:0000000000000010 .L0 
     /tmp/ccQpCLws.s:34     .text:000000000000001c .L0 
     /tmp/ccQpCLws.s:35     .text:000000000000001c .L0 
     /tmp/ccQpCLws.s:36     .text:000000000000001c .L0 
     /tmp/ccQpCLws.s:37     .text:000000000000001c .L0 
     /tmp/ccQpCLws.s:41     .text:0000000000000024 .L0 
     /tmp/ccQpCLws.s:42     .text:0000000000000024 .L0 
     /tmp/ccQpCLws.s:43     .text:0000000000000024 .L0 
     /tmp/ccQpCLws.s:44     .text:0000000000000024 .L0 
     /tmp/ccQpCLws.s:47     .text:000000000000002c .L0 
     /tmp/ccQpCLws.s:49     .text:0000000000000030 .L0 
     /tmp/ccQpCLws.s:50     .text:0000000000000030 .L0 
     /tmp/ccQpCLws.s:52     .text:0000000000000034 .L0 
     /tmp/ccQpCLws.s:54     .text:0000000000000038 .L0 
     /tmp/ccQpCLws.s:60     .text:0000000000000038 _ZN3SemC2Ei
     /tmp/ccQpCLws.s:63     .text:0000000000000038 .L0 
     /tmp/ccQpCLws.s:65     .text:0000000000000038 .L0 
     /tmp/ccQpCLws.s:66     .text:000000000000003c .L0 
     /tmp/ccQpCLws.s:70     .text:0000000000000048 .L0 
     /tmp/ccQpCLws.s:71     .text:0000000000000048 .L0 
     /tmp/ccQpCLws.s:72     .text:0000000000000048 .L0 
     /tmp/ccQpCLws.s:74     .text:000000000000004c .L0 
     /tmp/ccQpCLws.s:78     .text:0000000000000050 .L0 
     /tmp/ccQpCLws.s:79     .text:0000000000000050 .L0 
     /tmp/ccQpCLws.s:81     .text:0000000000000054 .L0 
     /tmp/ccQpCLws.s:82     .text:0000000000000054 .L0 
     /tmp/ccQpCLws.s:85     .text:000000000000005c .L0 
     /tmp/ccQpCLws.s:87     .text:0000000000000060 .L0 
     /tmp/ccQpCLws.s:88     .text:0000000000000060 .L0 
     /tmp/ccQpCLws.s:92     .text:0000000000000068 .L0 
     /tmp/ccQpCLws.s:93     .text:000000000000006c .L0 
     /tmp/ccQpCLws.s:95     .text:0000000000000070 .L0 
     /tmp/ccQpCLws.s:96     .text:0000000000000070 .L0 
     /tmp/ccQpCLws.s:98     .text:0000000000000074 .L0 
     /tmp/ccQpCLws.s:101    .text:0000000000000078 .L0 
     /tmp/ccQpCLws.s:103    .text:000000000000007c .L0 
     /tmp/ccQpCLws.s:60     .text:0000000000000038 _ZN3SemC1Ei
     /tmp/ccQpCLws.s:111    .text:000000000000007c _ZN3Sem5valueEv
     /tmp/ccQpCLws.s:114    .text:000000000000007c .L0 
     /tmp/ccQpCLws.s:116    .text:000000000000007c .L0 
     /tmp/ccQpCLws.s:117    .text:0000000000000080 .L0 
     /tmp/ccQpCLws.s:119    .text:0000000000000084 .L0 
GAS LISTING /tmp/ccQpCLws.s 			page 12


     /tmp/ccQpCLws.s:121    .text:0000000000000088 .L0 
     /tmp/ccQpCLws.s:123    .text:0000000000000088 .L0 
     /tmp/ccQpCLws.s:124    .text:0000000000000088 .L0 
     /tmp/ccQpCLws.s:127    .text:0000000000000090 .L0 
     /tmp/ccQpCLws.s:128    .text:0000000000000090 .L0 
     /tmp/ccQpCLws.s:130    .text:0000000000000094 .L0 
     /tmp/ccQpCLws.s:132    .text:0000000000000098 .L0 
     /tmp/ccQpCLws.s:138    .text:0000000000000098 _ZN3Sem5blockEv
     /tmp/ccQpCLws.s:141    .text:0000000000000098 .L0 
     /tmp/ccQpCLws.s:143    .text:0000000000000098 .L0 
     /tmp/ccQpCLws.s:144    .text:000000000000009c .L0 
     /tmp/ccQpCLws.s:148    .text:00000000000000a8 .L0 
     /tmp/ccQpCLws.s:149    .text:00000000000000a8 .L0 
     /tmp/ccQpCLws.s:150    .text:00000000000000a8 .L0 
     /tmp/ccQpCLws.s:152    .text:00000000000000ac .L0 
     /tmp/ccQpCLws.s:154    .text:00000000000000ac .L0 
     /tmp/ccQpCLws.s:155    .text:00000000000000ac .L0 
     /tmp/ccQpCLws.s:162    .text:00000000000000c4 .L0 
     /tmp/ccQpCLws.s:163    .text:00000000000000c4 .L0 
     /tmp/ccQpCLws.s:168    .text:00000000000000d4 .L0 
     /tmp/ccQpCLws.s:169    .text:00000000000000d4 .L0 
     /tmp/ccQpCLws.s:172    .text:00000000000000e0 .L0 
     /tmp/ccQpCLws.s:173    .text:00000000000000e0 .L0 
     /tmp/ccQpCLws.s:176    .text:00000000000000e8 .L0 
     /tmp/ccQpCLws.s:177    .text:00000000000000ec .L0 
     /tmp/ccQpCLws.s:179    .text:00000000000000f0 .L0 
     /tmp/ccQpCLws.s:180    .text:00000000000000f0 .L0 
     /tmp/ccQpCLws.s:182    .text:00000000000000f4 .L0 
     /tmp/ccQpCLws.s:184    .text:00000000000000f8 .L0 
     /tmp/ccQpCLws.s:186    .text:00000000000000fc .L0 
     /tmp/ccQpCLws.s:192    .text:00000000000000fc _ZN3Sem4waitEv
     /tmp/ccQpCLws.s:195    .text:00000000000000fc .L0 
     /tmp/ccQpCLws.s:197    .text:00000000000000fc .L0 
     /tmp/ccQpCLws.s:198    .text:00000000000000fc .L0 
     /tmp/ccQpCLws.s:199    .text:00000000000000fc .L0 
     /tmp/ccQpCLws.s:201    .text:0000000000000100 .L0 
     /tmp/ccQpCLws.s:203    .text:0000000000000104 .L0 
     /tmp/ccQpCLws.s:205    .text:0000000000000108 .L0 
     /tmp/ccQpCLws.s:210    .text:0000000000000114 .L0 
     /tmp/ccQpCLws.s:211    .text:0000000000000118 .L0 
     /tmp/ccQpCLws.s:214    .text:0000000000000120 .L0 
     /tmp/ccQpCLws.s:215    .text:0000000000000120 .L0 
     /tmp/ccQpCLws.s:217    .text:0000000000000124 .L0 
     /tmp/ccQpCLws.s:219    .text:0000000000000124 .L0 
     /tmp/ccQpCLws.s:220    .text:0000000000000124 .L0 
     /tmp/ccQpCLws.s:223    .text:000000000000012c .L0 
     /tmp/ccQpCLws.s:224    .text:0000000000000130 .L0 
     /tmp/ccQpCLws.s:226    .text:0000000000000134 .L0 
     /tmp/ccQpCLws.s:227    .text:0000000000000134 .L0 
     /tmp/ccQpCLws.s:229    .text:0000000000000138 .L0 
     /tmp/ccQpCLws.s:231    .text:000000000000013c .L0 
     /tmp/ccQpCLws.s:237    .text:000000000000013c _ZN3Sem7unblockEv
     /tmp/ccQpCLws.s:240    .text:000000000000013c .L0 
     /tmp/ccQpCLws.s:242    .text:000000000000013c .L0 
     /tmp/ccQpCLws.s:243    .text:0000000000000140 .L0 
     /tmp/ccQpCLws.s:247    .text:000000000000014c .L0 
     /tmp/ccQpCLws.s:248    .text:000000000000014c .L0 
GAS LISTING /tmp/ccQpCLws.s 			page 13


     /tmp/ccQpCLws.s:249    .text:000000000000014c .L0 
     /tmp/ccQpCLws.s:251    .text:0000000000000150 .L0 
     /tmp/ccQpCLws.s:253    .text:0000000000000150 .L0 
     /tmp/ccQpCLws.s:254    .text:0000000000000150 .L0 
     /tmp/ccQpCLws.s:259    .text:000000000000015c .L0 
     /tmp/ccQpCLws.s:262    .text:0000000000000164 .L0 
     /tmp/ccQpCLws.s:263    .text:0000000000000164 .L0 
     /tmp/ccQpCLws.s:267    .text:0000000000000170 .L0 
     /tmp/ccQpCLws.s:268    .text:0000000000000170 .L0 
     /tmp/ccQpCLws.s:270    .text:0000000000000174 .L0 
     /tmp/ccQpCLws.s:271    .text:0000000000000174 .L0 
     /tmp/ccQpCLws.s:276    .text:0000000000000180 .L0 
     /tmp/ccQpCLws.s:277    .text:0000000000000184 .L0 
     /tmp/ccQpCLws.s:279    .text:0000000000000188 .L0 
     /tmp/ccQpCLws.s:280    .text:0000000000000188 .L0 
     /tmp/ccQpCLws.s:282    .text:000000000000018c .L0 
     /tmp/ccQpCLws.s:284    .text:0000000000000190 .L0 
     /tmp/ccQpCLws.s:286    .text:0000000000000194 .L0 
     /tmp/ccQpCLws.s:292    .text:0000000000000194 _ZN3Sem6signalEv
     /tmp/ccQpCLws.s:295    .text:0000000000000194 .L0 
     /tmp/ccQpCLws.s:297    .text:0000000000000194 .L0 
     /tmp/ccQpCLws.s:298    .text:0000000000000194 .L0 
     /tmp/ccQpCLws.s:299    .text:0000000000000194 .L0 
     /tmp/ccQpCLws.s:301    .text:0000000000000198 .L0 
     /tmp/ccQpCLws.s:304    .text:00000000000001a0 .L0 
     /tmp/ccQpCLws.s:306    .text:00000000000001a4 .L0 
     /tmp/ccQpCLws.s:310    .text:00000000000001ac .L0 
     /tmp/ccQpCLws.s:311    .text:00000000000001b0 .L0 
     /tmp/ccQpCLws.s:314    .text:00000000000001b8 .L0 
     /tmp/ccQpCLws.s:315    .text:00000000000001b8 .L0 
     /tmp/ccQpCLws.s:317    .text:00000000000001bc .L0 
     /tmp/ccQpCLws.s:319    .text:00000000000001bc .L0 
     /tmp/ccQpCLws.s:320    .text:00000000000001bc .L0 
     /tmp/ccQpCLws.s:323    .text:00000000000001c4 .L0 
     /tmp/ccQpCLws.s:324    .text:00000000000001c8 .L0 
     /tmp/ccQpCLws.s:326    .text:00000000000001cc .L0 
     /tmp/ccQpCLws.s:327    .text:00000000000001cc .L0 
     /tmp/ccQpCLws.s:329    .text:00000000000001d0 .L0 
     /tmp/ccQpCLws.s:331    .text:00000000000001d4 .L0 
     /tmp/ccQpCLws.s:337    .text:00000000000001d4 _ZN3Sem11allocateSemEv
     /tmp/ccQpCLws.s:340    .text:00000000000001d4 .L0 
     /tmp/ccQpCLws.s:341    .text:00000000000001d4 .L0 
     /tmp/ccQpCLws.s:342    .text:00000000000001d8 .L0 
     /tmp/ccQpCLws.s:345    .text:00000000000001e0 .L0 
     /tmp/ccQpCLws.s:346    .text:00000000000001e0 .L0 
     /tmp/ccQpCLws.s:348    .text:00000000000001e4 .L0 
     /tmp/ccQpCLws.s:351    .text:00000000000001e4 .L0 
     /tmp/ccQpCLws.s:352    .text:00000000000001e4 .L0 
     /tmp/ccQpCLws.s:353    .text:00000000000001e4 .L0 
     /tmp/ccQpCLws.s:354    .text:00000000000001e4 .L0 
     /tmp/ccQpCLws.s:355    .text:00000000000001e4 .L0 
     /tmp/ccQpCLws.s:356    .text:00000000000001e4 .L0 
     /tmp/ccQpCLws.s:357    .text:00000000000001e4 .L0 
     /tmp/ccQpCLws.s:361    .text:00000000000001f0 .L0 
     /tmp/ccQpCLws.s:362    .text:00000000000001f0 .L0 
     /tmp/ccQpCLws.s:363    .text:00000000000001f0 .L0 
     /tmp/ccQpCLws.s:364    .text:00000000000001f0 .L0 
GAS LISTING /tmp/ccQpCLws.s 			page 14


     /tmp/ccQpCLws.s:368    .text:00000000000001f8 .L0 
     /tmp/ccQpCLws.s:369    .text:00000000000001f8 .L0 
     /tmp/ccQpCLws.s:370    .text:00000000000001f8 .L0 
     /tmp/ccQpCLws.s:371    .text:00000000000001f8 .L0 
     /tmp/ccQpCLws.s:374    .text:0000000000000200 .L0 
     /tmp/ccQpCLws.s:376    .text:0000000000000204 .L0 
     /tmp/ccQpCLws.s:377    .text:0000000000000204 .L0 
     /tmp/ccQpCLws.s:379    .text:0000000000000208 .L0 
     /tmp/ccQpCLws.s:381    .text:000000000000020c .L0 
     /tmp/ccQpCLws.s:387    .text:000000000000020c _ZN3Sem10deblockAllEv
     /tmp/ccQpCLws.s:390    .text:000000000000020c .L0 
     /tmp/ccQpCLws.s:392    .text:000000000000020c .L0 
     /tmp/ccQpCLws.s:393    .text:0000000000000210 .L0 
     /tmp/ccQpCLws.s:398    .text:0000000000000220 .L0 
     /tmp/ccQpCLws.s:399    .text:0000000000000220 .L0 
     /tmp/ccQpCLws.s:400    .text:0000000000000220 .L0 
     /tmp/ccQpCLws.s:401    .text:0000000000000220 .L0 
     /tmp/ccQpCLws.s:403    .text:0000000000000224 .L0 
     /tmp/ccQpCLws.s:408    .text:0000000000000228 .L0 
     /tmp/ccQpCLws.s:409    .text:0000000000000228 .L0 
     /tmp/ccQpCLws.s:410    .text:0000000000000228 .L0 
     /tmp/ccQpCLws.s:411    .text:0000000000000228 .L0 
     /tmp/ccQpCLws.s:417    .text:0000000000000238 .L0 
     /tmp/ccQpCLws.s:419    .text:000000000000023c .L0 
     /tmp/ccQpCLws.s:420    .text:000000000000023c .L0 
     /tmp/ccQpCLws.s:424    .text:0000000000000248 .L0 
     /tmp/ccQpCLws.s:425    .text:0000000000000248 .L0 
     /tmp/ccQpCLws.s:428    .text:0000000000000250 .L0 
     /tmp/ccQpCLws.s:429    .text:0000000000000250 .L0 
     /tmp/ccQpCLws.s:433    .text:000000000000025c .L0 
     /tmp/ccQpCLws.s:436    .text:0000000000000260 .L0 
     /tmp/ccQpCLws.s:437    .text:0000000000000264 .L0 
     /tmp/ccQpCLws.s:439    .text:0000000000000268 .L0 
     /tmp/ccQpCLws.s:440    .text:0000000000000268 .L0 
     /tmp/ccQpCLws.s:442    .text:000000000000026c .L0 
     /tmp/ccQpCLws.s:445    .text:0000000000000270 .L0 
     /tmp/ccQpCLws.s:448    .text:0000000000000274 .L0 
     /tmp/ccQpCLws.s:450    .text:0000000000000278 .L0 
     /tmp/ccQpCLws.s:461    .text:0000000000000278 .L0 
     /tmp/ccQpCLws.s:155    .text:00000000000000ac .L0 
     /tmp/ccQpCLws.s:169    .text:00000000000000d4 .L0 
     /tmp/ccQpCLws.s:208    .text:0000000000000114 .L15
     /tmp/ccQpCLws.s:274    .text:0000000000000180 .L16
     /tmp/ccQpCLws.s:308    .text:00000000000001ac .L25
     /tmp/ccQpCLws.s:434    .text:0000000000000260 .L28
     /tmp/ccQpCLws.s:406    .text:0000000000000228 .L30
     /tmp/ccQpCLws.s:1892   .debug_abbrev:0000000000000000 .Ldebug_abbrev0
     /tmp/ccQpCLws.s:3370   .debug_str:0000000000000728 .LASF138
     /tmp/ccQpCLws.s:3186   .debug_str:00000000000001e7 .LASF139
     /tmp/ccQpCLws.s:3382   .debug_str:0000000000000838 .LASF140
     /tmp/ccQpCLws.s:5      .text:0000000000000000 .Ltext0
     /tmp/ccQpCLws.s:453    .text:0000000000000278 .Letext0
     /tmp/ccQpCLws.s:3106   .debug_line:0000000000000000 .Ldebug_line0
     /tmp/ccQpCLws.s:3236   .debug_str:0000000000000358 .LASF0
     /tmp/ccQpCLws.s:3256   .debug_str:00000000000003f9 .LASF1
     /tmp/ccQpCLws.s:3320   .debug_str:00000000000005da .LASF2
     /tmp/ccQpCLws.s:3326   .debug_str:000000000000060a .LASF4
GAS LISTING /tmp/ccQpCLws.s 			page 15


     /tmp/ccQpCLws.s:3242   .debug_str:0000000000000382 .LASF3
     /tmp/ccQpCLws.s:3120   .debug_str:0000000000000035 .LASF5
     /tmp/ccQpCLws.s:3312   .debug_str:00000000000005a2 .LASF6
     /tmp/ccQpCLws.s:3304   .debug_str:0000000000000556 .LASF7
     /tmp/ccQpCLws.s:3248   .debug_str:00000000000003c0 .LASF8
     /tmp/ccQpCLws.s:3212   .debug_str:0000000000000296 .LASF9
     /tmp/ccQpCLws.s:3216   .debug_str:00000000000002bd .LASF10
     /tmp/ccQpCLws.s:3156   .debug_str:0000000000000144 .LASF11
     /tmp/ccQpCLws.s:3204   .debug_str:0000000000000261 .LASF12
     /tmp/ccQpCLws.s:3166   .debug_str:0000000000000174 .LASF13
     /tmp/ccQpCLws.s:3154   .debug_str:0000000000000134 .LASF14
     /tmp/ccQpCLws.s:3344   .debug_str:0000000000000689 .LASF15
     /tmp/ccQpCLws.s:3192   .debug_str:0000000000000210 .LASF16
     /tmp/ccQpCLws.s:3340   .debug_str:000000000000066e .LASF17
     /tmp/ccQpCLws.s:3294   .debug_str:0000000000000512 .LASF18
     /tmp/ccQpCLws.s:3296   .debug_str:0000000000000528 .LASF21
     /tmp/ccQpCLws.s:3274   .debug_str:000000000000047a .LASF22
     /tmp/ccQpCLws.s:3124   .debug_str:0000000000000044 .LASF24
     /tmp/ccQpCLws.s:3352   .debug_str:00000000000006ba .LASF57
     /tmp/ccQpCLws.s:3276   .debug_str:0000000000000484 .LASF59
     /tmp/ccQpCLws.s:3374   .debug_str:00000000000007fe .LASF141
     /tmp/ccQpCLws.s:3162   .debug_str:0000000000000160 .LASF19
     /tmp/ccQpCLws.s:3158   .debug_str:0000000000000153 .LASF20
     /tmp/ccQpCLws.s:3160   .debug_str:0000000000000158 .LASF142
     /tmp/ccQpCLws.s:3396   .debug_str:00000000000008ba .LASF26
     /tmp/ccQpCLws.s:3138   .debug_str:00000000000000e7 .LASF30
     /tmp/ccQpCLws.s:3202   .debug_str:000000000000024f .LASF32
     /tmp/ccQpCLws.s:3184   .debug_str:00000000000001df .LASF23
     /tmp/ccQpCLws.s:3380   .debug_str:0000000000000824 .LASF25
     /tmp/ccQpCLws.s:3280   .debug_str:00000000000004ab .LASF97
     /tmp/ccQpCLws.s:3292   .debug_str:000000000000050d .LASF143
     /tmp/ccQpCLws.s:3366   .debug_str:000000000000070d .LASF27
     /tmp/ccQpCLws.s:3144   .debug_str:00000000000000fd .LASF28
     /tmp/ccQpCLws.s:3220   .debug_str:00000000000002d9 .LASF29
     /tmp/ccQpCLws.s:3218   .debug_str:00000000000002cb .LASF31
     /tmp/ccQpCLws.s:3258   .debug_str:000000000000040c .LASF33
     /tmp/ccQpCLws.s:3384   .debug_str:000000000000085b .LASF34
     /tmp/ccQpCLws.s:3214   .debug_str:00000000000002a6 .LASF35
     /tmp/ccQpCLws.s:3232   .debug_str:0000000000000344 .LASF36
     /tmp/ccQpCLws.s:3250   .debug_str:00000000000003d3 .LASF37
     /tmp/ccQpCLws.s:3180   .debug_str:00000000000001d1 .LASF144
     /tmp/ccQpCLws.s:3128   .debug_str:000000000000007b .LASF145
     /tmp/ccQpCLws.s:3122   .debug_str:000000000000003c .LASF38
     /tmp/ccQpCLws.s:3368   .debug_str:0000000000000715 .LASF39
     /tmp/ccQpCLws.s:3300   .debug_str:0000000000000541 .LASF40
     /tmp/ccQpCLws.s:3328   .debug_str:0000000000000611 .LASF41
     /tmp/ccQpCLws.s:3406   .debug_str:000000000000090e .LASF42
     /tmp/ccQpCLws.s:3266   .debug_str:000000000000044e .LASF43
     /tmp/ccQpCLws.s:3196   .debug_str:000000000000022d .LASF62
     /tmp/ccQpCLws.s:3318   .debug_str:00000000000005c3 .LASF64
     /tmp/ccQpCLws.s:3130   .debug_str:000000000000008e .LASF44
     /tmp/ccQpCLws.s:3332   .debug_str:0000000000000635 .LASF45
     /tmp/ccQpCLws.s:3412   .debug_str:000000000000092e .LASF46
     /tmp/ccQpCLws.s:3346   .debug_str:0000000000000695 .LASF47
     /tmp/ccQpCLws.s:3356   .debug_str:00000000000006d2 .LASF48
     /tmp/ccQpCLws.s:3264   .debug_str:0000000000000438 .LASF49
     /tmp/ccQpCLws.s:3350   .debug_str:00000000000006b4 .LASF50
GAS LISTING /tmp/ccQpCLws.s 			page 16


     /tmp/ccQpCLws.s:3360   .debug_str:00000000000006e2 .LASF51
     /tmp/ccQpCLws.s:3364   .debug_str:0000000000000706 .LASF52
     /tmp/ccQpCLws.s:3262   .debug_str:000000000000042b .LASF53
     /tmp/ccQpCLws.s:3170   .debug_str:0000000000000190 .LASF54
     /tmp/ccQpCLws.s:3178   .debug_str:00000000000001c4 .LASF55
     /tmp/ccQpCLws.s:3324   .debug_str:00000000000005f2 .LASF56
     /tmp/ccQpCLws.s:3260   .debug_str:0000000000000425 .LASF58
     /tmp/ccQpCLws.s:3306   .debug_str:0000000000000569 .LASF60
     /tmp/ccQpCLws.s:3302   .debug_str:0000000000000549 .LASF74
     /tmp/ccQpCLws.s:3174   .debug_str:00000000000001b7 .LASF61
     /tmp/ccQpCLws.s:3362   .debug_str:00000000000006f2 .LASF63
     /tmp/ccQpCLws.s:3286   .debug_str:00000000000004d8 .LASF65
     /tmp/ccQpCLws.s:3150   .debug_str:0000000000000123 .LASF66
     /tmp/ccQpCLws.s:3404   .debug_str:00000000000008fd .LASF67
     /tmp/ccQpCLws.s:3176   .debug_str:00000000000001be .LASF68
     /tmp/ccQpCLws.s:3392   .debug_str:00000000000008a5 .LASF69
     /tmp/ccQpCLws.s:3282   .debug_str:00000000000004c2 .LASF70
     /tmp/ccQpCLws.s:3308   .debug_str:0000000000000579 .LASF71
     /tmp/ccQpCLws.s:3118   .debug_str:000000000000002f .LASF72
     /tmp/ccQpCLws.s:3224   .debug_str:00000000000002fb .LASF73
     /tmp/ccQpCLws.s:3270   .debug_str:0000000000000463 .LASF75
     /tmp/ccQpCLws.s:3330   .debug_str:0000000000000623 .LASF76
     /tmp/ccQpCLws.s:3134   .debug_str:00000000000000b2 .LASF77
     /tmp/ccQpCLws.s:3354   .debug_str:00000000000006c3 .LASF78
     /tmp/ccQpCLws.s:3410   .debug_str:0000000000000928 .LASF79
     /tmp/ccQpCLws.s:3388   .debug_str:000000000000087e .LASF80
     /tmp/ccQpCLws.s:3394   .debug_str:00000000000008b5 .LASF81
     /tmp/ccQpCLws.s:3252   .debug_str:00000000000003ec .LASF82
     /tmp/ccQpCLws.s:3378   .debug_str:000000000000081a .LASF83
     /tmp/ccQpCLws.s:3338   .debug_str:0000000000000665 .LASF84
     /tmp/ccQpCLws.s:3322   .debug_str:00000000000005e8 .LASF85
     /tmp/ccQpCLws.s:3222   .debug_str:00000000000002f0 .LASF86
     /tmp/ccQpCLws.s:3278   .debug_str:00000000000004a5 .LASF87
     /tmp/ccQpCLws.s:3114   .debug_str:0000000000000022 .LASF88
     /tmp/ccQpCLws.s:3146   .debug_str:0000000000000109 .LASF146
     /tmp/ccQpCLws.s:3132   .debug_str:0000000000000099 .LASF147
     /tmp/ccQpCLws.s:3172   .debug_str:00000000000001a9 .LASF89
     /tmp/ccQpCLws.s:3136   .debug_str:00000000000000bf .LASF91
     /tmp/ccQpCLws.s:3152   .debug_str:000000000000012a .LASF90
     /tmp/ccQpCLws.s:3208   .debug_str:0000000000000278 .LASF92
     /tmp/ccQpCLws.s:3240   .debug_str:0000000000000378 .LASF148
     /tmp/ccQpCLws.s:3376   .debug_str:0000000000000806 .LASF149
     /tmp/ccQpCLws.s:3298   .debug_str:0000000000000538 .LASF93
     /tmp/ccQpCLws.s:3342   .debug_str:0000000000000684 .LASF94
     /tmp/ccQpCLws.s:3288   .debug_str:00000000000004f7 .LASF95
     /tmp/ccQpCLws.s:3290   .debug_str:00000000000004fc .LASF96
     /tmp/ccQpCLws.s:3230   .debug_str:000000000000032d .LASF98
     /tmp/ccQpCLws.s:3238   .debug_str:0000000000000365 .LASF150
     /tmp/ccQpCLws.s:3206   .debug_str:0000000000000270 .LASF99
     /tmp/ccQpCLws.s:3226   .debug_str:000000000000030b .LASF100
     /tmp/ccQpCLws.s:3400   .debug_str:00000000000008df .LASF101
     /tmp/ccQpCLws.s:3244   .debug_str:0000000000000394 .LASF102
     /tmp/ccQpCLws.s:3316   .debug_str:00000000000005bb .LASF103
     /tmp/ccQpCLws.s:3386   .debug_str:0000000000000867 .LASF104
     /tmp/ccQpCLws.s:3336   .debug_str:000000000000065d .LASF105
     /tmp/ccQpCLws.s:3110   .debug_str:0000000000000006 .LASF106
     /tmp/ccQpCLws.s:3108   .debug_str:0000000000000000 .LASF107
GAS LISTING /tmp/ccQpCLws.s 			page 17


     /tmp/ccQpCLws.s:3168   .debug_str:0000000000000184 .LASF108
     /tmp/ccQpCLws.s:3200   .debug_str:0000000000000243 .LASF109
     /tmp/ccQpCLws.s:3398   .debug_str:00000000000008c8 .LASF110
     /tmp/ccQpCLws.s:3148   .debug_str:0000000000000117 .LASF111
     /tmp/ccQpCLws.s:3182   .debug_str:00000000000001da .LASF112
     /tmp/ccQpCLws.s:3284   .debug_str:00000000000004c9 .LASF113
     /tmp/ccQpCLws.s:3348   .debug_str:00000000000006ad .LASF114
     /tmp/ccQpCLws.s:3334   .debug_str:000000000000064c .LASF115
     /tmp/ccQpCLws.s:3228   .debug_str:0000000000000327 .LASF116
     /tmp/ccQpCLws.s:3190   .debug_str:0000000000000200 .LASF117
     /tmp/ccQpCLws.s:3164   .debug_str:0000000000000169 .LASF118
     /tmp/ccQpCLws.s:3126   .debug_str:0000000000000065 .LASF119
     /tmp/ccQpCLws.s:3234   .debug_str:0000000000000352 .LASF120
     /tmp/ccQpCLws.s:3246   .debug_str:00000000000003b0 .LASF121
     /tmp/ccQpCLws.s:3116   .debug_str:0000000000000027 .LASF122
     /tmp/ccQpCLws.s:3372   .debug_str:00000000000007ec .LASF123
     /tmp/ccQpCLws.s:3268   .debug_str:000000000000045e .LASF124
     /tmp/ccQpCLws.s:3210   .debug_str:000000000000028c .LASF125
     /tmp/ccQpCLws.s:3310   .debug_str:000000000000058a .LASF151
     /tmp/ccQpCLws.s:3408   .debug_str:0000000000000914 .LASF152
     /tmp/ccQpCLws.s:3198   .debug_str:0000000000000239 .LASF126
     /tmp/ccQpCLws.s:3390   .debug_str:000000000000088b .LASF127
     /tmp/ccQpCLws.s:3402   .debug_str:00000000000008eb .LASF128
     /tmp/ccQpCLws.s:3358   .debug_str:00000000000006dd .LASF129
     /tmp/ccQpCLws.s:388    .text:000000000000020c .LFB10
     /tmp/ccQpCLws.s:451    .text:0000000000000278 .LFE10
     /tmp/ccQpCLws.s:3112   .debug_str:000000000000001d .LASF135
     /tmp/ccQpCLws.s:2837   .debug_loc:0000000000000000 .LLST16
     /tmp/ccQpCLws.s:2855   .debug_loc:000000000000004c .LLST17
     /tmp/ccQpCLws.s:413    .text:0000000000000234 .LVL30
     /tmp/ccQpCLws.s:422    .text:0000000000000248 .LVL32
     /tmp/ccQpCLws.s:431    .text:000000000000025c .LVL33
     /tmp/ccQpCLws.s:338    .text:00000000000001d4 .LFB9
     /tmp/ccQpCLws.s:382    .text:000000000000020c .LFE9
     /tmp/ccQpCLws.s:3254   .debug_str:00000000000003f4 .LASF130
     /tmp/ccQpCLws.s:3416   .debug_str:0000000000000942 .LASF131
     /tmp/ccQpCLws.s:2866   .debug_loc:0000000000000082 .LLST12
     /tmp/ccQpCLws.s:3194   .debug_str:0000000000000226 .LASF132
     /tmp/ccQpCLws.s:2880   .debug_loc:00000000000000bb .LLST13
     /tmp/ccQpCLws.s:3414   .debug_str:000000000000093b .LASF133
     /tmp/ccQpCLws.s:2893   .debug_loc:00000000000000f3 .LLST14
     /tmp/ccQpCLws.s:2910   .debug_loc:000000000000013e .LLST15
     /tmp/ccQpCLws.s:359    .text:00000000000001f0 .LVL25
     /tmp/ccQpCLws.s:3142   .debug_str:00000000000000f4 .LASF134
     /tmp/ccQpCLws.s:238    .text:000000000000013c .LFB8
     /tmp/ccQpCLws.s:287    .text:0000000000000194 .LFE8
     /tmp/ccQpCLws.s:2923   .debug_loc:0000000000000176 .LLST9
     /tmp/ccQpCLws.s:2937   .debug_loc:00000000000001af .LLST10
     /tmp/ccQpCLws.s:257    .text:000000000000015c .LVL19
     /tmp/ccQpCLws.s:265    .text:0000000000000170 .LVL20
     /tmp/ccQpCLws.s:273    .text:0000000000000180 .LVL21
     /tmp/ccQpCLws.s:139    .text:0000000000000098 .LFB7
     /tmp/ccQpCLws.s:187    .text:00000000000000fc .LFE7
     /tmp/ccQpCLws.s:2948   .debug_loc:00000000000001e5 .LLST7
     /tmp/ccQpCLws.s:160    .text:00000000000000c4 .LVL12
     /tmp/ccQpCLws.s:166    .text:00000000000000d4 .LVL13
     /tmp/ccQpCLws.s:174    .text:00000000000000e8 .LVL14
GAS LISTING /tmp/ccQpCLws.s 			page 18


     /tmp/ccQpCLws.s:112    .text:000000000000007c .LFB6
     /tmp/ccQpCLws.s:133    .text:0000000000000098 .LFE6
     /tmp/ccQpCLws.s:2962   .debug_loc:000000000000021e .LLST6
     /tmp/ccQpCLws.s:293    .text:0000000000000194 .LFB5
     /tmp/ccQpCLws.s:332    .text:00000000000001d4 .LFE5
     /tmp/ccQpCLws.s:2976   .debug_loc:0000000000000257 .LLST11
     /tmp/ccQpCLws.s:321    .text:00000000000001c4 .LVL23
     /tmp/ccQpCLws.s:193    .text:00000000000000fc .LFB4
     /tmp/ccQpCLws.s:232    .text:000000000000013c .LFE4
     /tmp/ccQpCLws.s:2990   .debug_loc:0000000000000290 .LLST8
     /tmp/ccQpCLws.s:221    .text:000000000000012c .LVL16
     /tmp/ccQpCLws.s:3140   .debug_str:00000000000000ef .LASF153
     /tmp/ccQpCLws.s:3272   .debug_str:000000000000046e .LASF154
     /tmp/ccQpCLws.s:61     .text:0000000000000038 .LFB2
     /tmp/ccQpCLws.s:104    .text:000000000000007c .LFE2
     /tmp/ccQpCLws.s:3004   .debug_loc:00000000000002c9 .LLST4
     /tmp/ccQpCLws.s:3022   .debug_loc:0000000000000315 .LLST5
     /tmp/ccQpCLws.s:83     .text:000000000000005c .LVL5
     /tmp/ccQpCLws.s:89     .text:0000000000000068 .LVL6
     /tmp/ccQpCLws.s:3188   .debug_str:00000000000001f3 .LASF136
     /tmp/ccQpCLws.s:3314   .debug_str:00000000000005a9 .LASF137
     /tmp/ccQpCLws.s:10     .text:0000000000000000 .LFB0
     /tmp/ccQpCLws.s:55     .text:0000000000000038 .LFE0
     /tmp/ccQpCLws.s:3036   .debug_loc:000000000000034e .LLST0
     /tmp/ccQpCLws.s:3050   .debug_loc:0000000000000387 .LLST1
     /tmp/ccQpCLws.s:3063   .debug_loc:00000000000003bf .LLST2
     /tmp/ccQpCLws.s:3080   .debug_loc:000000000000040a .LLST3
     /tmp/ccQpCLws.s:32     .text:000000000000001c .LVL1
     /tmp/ccQpCLws.s:391    .text:000000000000020c .LVL28
     /tmp/ccQpCLws.s:405    .text:0000000000000228 .LVL29
     /tmp/ccQpCLws.s:446    .text:0000000000000270 .LVL35
     /tmp/ccQpCLws.s:415    .text:0000000000000238 .LVL31
     /tmp/ccQpCLws.s:443    .text:000000000000026c .LVL34
     /tmp/ccQpCLws.s:350    .text:00000000000001e4 .LVL24
     /tmp/ccQpCLws.s:372    .text:00000000000001fc .LVL27
     /tmp/ccQpCLws.s:367    .text:00000000000001f8 .LVL26
     /tmp/ccQpCLws.s:241    .text:000000000000013c .LVL17
     /tmp/ccQpCLws.s:255    .text:0000000000000154 .LVL18
     /tmp/ccQpCLws.s:142    .text:0000000000000098 .LVL10
     /tmp/ccQpCLws.s:158    .text:00000000000000bc .LVL11
     /tmp/ccQpCLws.s:115    .text:000000000000007c .LVL8
     /tmp/ccQpCLws.s:125    .text:000000000000008c .LVL9
     /tmp/ccQpCLws.s:296    .text:0000000000000194 .LVL22
     /tmp/ccQpCLws.s:196    .text:00000000000000fc .LVL15
     /tmp/ccQpCLws.s:64     .text:0000000000000038 .LVL4
     /tmp/ccQpCLws.s:99     .text:0000000000000074 .LVL7
     /tmp/ccQpCLws.s:23     .text:0000000000000010 .LVL0
     /tmp/ccQpCLws.s:45     .text:0000000000000028 .LVL3
     /tmp/ccQpCLws.s:40     .text:0000000000000024 .LVL2
     /tmp/ccQpCLws.s:462    .debug_info:0000000000000000 .Ldebug_info0

UNDEFINED SYMBOLS
_ZN15MemoryAllocator9mem_allocEm
_ZN8PCB_List7setNullEv
_ZN3PCB7runningE
_ZN8PCB_List3putEP3PCB
_ZN3PCB10setBlockedEb
GAS LISTING /tmp/ccQpCLws.s 			page 19


_ZN3PCB8timeLeftE
_ZN3PCB8dispatchEv
_ZN8PCB_List3getEv
_ZN9Scheduler3putEP3PCB
