GAS LISTING /tmp/cc7lLgEN.s 			page 1


   1              		.file	"syscall_cpp.cpp"
   2              		.option pic
   3              		.option norelax
   4              		.text
   5              	.Ltext0:
   6              		.section	.text._ZN6Thread3runEv,"axG",@progbits,_ZN6Thread3runEv,comdat
   7              		.align	2
   8              		.weak	_ZN6Thread3runEv
  10              	_ZN6Thread3runEv:
  11              	.LFB0:
  12              		.file 1 "src/../h/syscall_cpp.hpp"
   1:src/../h/syscall_cpp.hpp **** #ifndef _syscall_cpp
   2:src/../h/syscall_cpp.hpp **** #define _syscall_cpp
   3:src/../h/syscall_cpp.hpp **** #include "syscall_c.h"
   4:src/../h/syscall_cpp.hpp **** #include "./PCB.h"
   5:src/../h/syscall_cpp.hpp **** 
   6:src/../h/syscall_cpp.hpp **** //void* ::operator new (size_t n);
   7:src/../h/syscall_cpp.hpp **** //void ::operator delete (void* p);
   8:src/../h/syscall_cpp.hpp **** void wrapper(void *t);
   9:src/../h/syscall_cpp.hpp **** void periodicWrapper(void *t);
  10:src/../h/syscall_cpp.hpp **** class Thread {
  11:src/../h/syscall_cpp.hpp **** public:
  12:src/../h/syscall_cpp.hpp **** 
  13:src/../h/syscall_cpp.hpp ****     friend void wrapper(void * t);
  14:src/../h/syscall_cpp.hpp ****     Thread (void (*body)(void*), void* arg);
  15:src/../h/syscall_cpp.hpp ****     virtual ~Thread ();
  16:src/../h/syscall_cpp.hpp **** 
  17:src/../h/syscall_cpp.hpp ****     static void dispatch();
  18:src/../h/syscall_cpp.hpp ****     static int sleep (time_t);
  19:src/../h/syscall_cpp.hpp **** 
  20:src/../h/syscall_cpp.hpp ****     int start ();
  21:src/../h/syscall_cpp.hpp **** 
  22:src/../h/syscall_cpp.hpp **** protected:
  23:src/../h/syscall_cpp.hpp ****     virtual void run () {}
  13              		.loc 1 23 18
  14              		.cfi_startproc
  15              	.LVL0:
  16 0000 130101FF 		addi	sp,sp,-16
  17              		.cfi_def_cfa_offset 16
  18 0004 23348100 		sd	s0,8(sp)
  19              		.cfi_offset 8, -8
  20 0008 13040101 		addi	s0,sp,16
  21              		.cfi_def_cfa 8, 0
  22              		.loc 1 23 26 is_stmt 0
  23 000c 03348100 		ld	s0,8(sp)
  24              		.cfi_restore 8
  25              		.cfi_def_cfa 2, 16
  26 0010 13010101 		addi	sp,sp,16
  27              		.cfi_def_cfa_offset 0
  28 0014 67800000 		jr	ra
  29              		.cfi_endproc
  30              	.LFE0:
  32              		.section	.text._ZN14PeriodicThread18periodicActivationEv,"axG",@progbits,_ZN14PeriodicThread18peri
  33              		.align	2
  34              		.weak	_ZN14PeriodicThread18periodicActivationEv
  36              	_ZN14PeriodicThread18periodicActivationEv:
  37              	.LFB1:
GAS LISTING /tmp/cc7lLgEN.s 			page 2


  24:src/../h/syscall_cpp.hpp **** 
  25:src/../h/syscall_cpp.hpp ****     Thread ();
  26:src/../h/syscall_cpp.hpp **** 
  27:src/../h/syscall_cpp.hpp ****     thread_t myHandle;
  28:src/../h/syscall_cpp.hpp **** };
  29:src/../h/syscall_cpp.hpp **** 
  30:src/../h/syscall_cpp.hpp **** class Semaphore {
  31:src/../h/syscall_cpp.hpp **** public:
  32:src/../h/syscall_cpp.hpp ****     Semaphore (unsigned init = 1);
  33:src/../h/syscall_cpp.hpp ****     virtual ~Semaphore ();
  34:src/../h/syscall_cpp.hpp ****     int wait ();
  35:src/../h/syscall_cpp.hpp ****     int signal ();
  36:src/../h/syscall_cpp.hpp **** private:
  37:src/../h/syscall_cpp.hpp ****     sem_t myHandle;
  38:src/../h/syscall_cpp.hpp **** };
  39:src/../h/syscall_cpp.hpp **** 
  40:src/../h/syscall_cpp.hpp **** 
  41:src/../h/syscall_cpp.hpp **** class PeriodicThread : public Thread {
  42:src/../h/syscall_cpp.hpp **** public:
  43:src/../h/syscall_cpp.hpp ****     friend void periodicWrapper(void * t);
  44:src/../h/syscall_cpp.hpp **** protected:
  45:src/../h/syscall_cpp.hpp ****     PeriodicThread (time_t period);
  46:src/../h/syscall_cpp.hpp ****     virtual void periodicActivation () {}
  38              		.loc 1 46 18 is_stmt 1
  39              		.cfi_startproc
  40              	.LVL1:
  41 0000 130101FF 		addi	sp,sp,-16
  42              		.cfi_def_cfa_offset 16
  43 0004 23348100 		sd	s0,8(sp)
  44              		.cfi_offset 8, -8
  45 0008 13040101 		addi	s0,sp,16
  46              		.cfi_def_cfa 8, 0
  47              		.loc 1 46 41 is_stmt 0
  48 000c 03348100 		ld	s0,8(sp)
  49              		.cfi_restore 8
  50              		.cfi_def_cfa 2, 16
  51 0010 13010101 		addi	sp,sp,16
  52              		.cfi_def_cfa_offset 0
  53 0014 67800000 		jr	ra
  54              		.cfi_endproc
  55              	.LFE1:
  57              		.text
  58              		.align	2
  59              		.globl	_Z7wrapperPv
  61              	_Z7wrapperPv:
  62              	.LFB11:
  63              		.file 2 "src/syscall_cpp.cpp"
   1:src/syscall_cpp.cpp **** #include "../h/syscall_cpp.hpp"
   2:src/syscall_cpp.cpp **** 
   3:src/syscall_cpp.cpp **** 
   4:src/syscall_cpp.cpp **** 
   5:src/syscall_cpp.cpp **** Thread::Thread(void (*body)(void *), void *arg) {
   6:src/syscall_cpp.cpp ****     int res = thread_init(&myHandle,body,arg);
   7:src/syscall_cpp.cpp ****     if(res < 0){
   8:src/syscall_cpp.cpp ****         ::putc('!');
   9:src/syscall_cpp.cpp ****         ::putc('\n');
  10:src/syscall_cpp.cpp ****     }
GAS LISTING /tmp/cc7lLgEN.s 			page 3


  11:src/syscall_cpp.cpp **** }
  12:src/syscall_cpp.cpp **** Semaphore::Semaphore(unsigned int init) {
  13:src/syscall_cpp.cpp ****     int res = sem_open(&myHandle,init);
  14:src/syscall_cpp.cpp ****     if(res < 0){
  15:src/syscall_cpp.cpp ****         ::putc('!');
  16:src/syscall_cpp.cpp ****         ::putc('\n');
  17:src/syscall_cpp.cpp ****     }
  18:src/syscall_cpp.cpp **** }
  19:src/syscall_cpp.cpp **** 
  20:src/syscall_cpp.cpp **** int Thread::start() {
  21:src/syscall_cpp.cpp ****     if(this->myHandle->PCB == nullptr) return -1;
  22:src/syscall_cpp.cpp ****     ((PCB*)this->myHandle->PCB)->start();
  23:src/syscall_cpp.cpp ****     return 0;
  24:src/syscall_cpp.cpp **** }
  25:src/syscall_cpp.cpp **** 
  26:src/syscall_cpp.cpp **** void Thread::dispatch() {
  27:src/syscall_cpp.cpp ****     thread_dispatch();
  28:src/syscall_cpp.cpp **** }
  29:src/syscall_cpp.cpp **** 
  30:src/syscall_cpp.cpp **** int Thread::sleep(time_t time) {
  31:src/syscall_cpp.cpp ****     int res = time_sleep(time);
  32:src/syscall_cpp.cpp ****     return res;
  33:src/syscall_cpp.cpp **** }
  34:src/syscall_cpp.cpp **** 
  35:src/syscall_cpp.cpp **** 
  36:src/syscall_cpp.cpp **** void wrapper(void *t) {
  64              		.loc 2 36 23 is_stmt 1
  65              		.cfi_startproc
  66              	.LVL2:
  37:src/syscall_cpp.cpp ****     if (t) {
  67              		.loc 2 37 5
  68 0000 63080502 		beqz	a0,.L8
  36:src/syscall_cpp.cpp ****     if (t) {
  69              		.loc 2 36 23 is_stmt 0
  70 0004 130101FF 		addi	sp,sp,-16
  71              		.cfi_def_cfa_offset 16
  72 0008 23341100 		sd	ra,8(sp)
  73 000c 23308100 		sd	s0,0(sp)
  74              		.cfi_offset 1, -8
  75              		.cfi_offset 8, -16
  76 0010 13040101 		addi	s0,sp,16
  77              		.cfi_def_cfa 8, 0
  38:src/syscall_cpp.cpp ****         ((Thread *) t)->run();
  78              		.loc 2 38 9 is_stmt 1
  79              		.loc 2 38 29 is_stmt 0
  80 0014 83370500 		ld	a5,0(a0)
  81 0018 83B70701 		ld	a5,16(a5)
  82              		.loc 2 38 28
  83 001c E7800700 		jalr	a5
  84              	.LVL3:
  39:src/syscall_cpp.cpp ****     }
  40:src/syscall_cpp.cpp **** }
  85              		.loc 2 40 1
  86 0020 83308100 		ld	ra,8(sp)
  87              		.cfi_restore 1
  88 0024 03340100 		ld	s0,0(sp)
  89              		.cfi_restore 8
GAS LISTING /tmp/cc7lLgEN.s 			page 4


  90              		.cfi_def_cfa 2, 16
  91 0028 13010101 		addi	sp,sp,16
  92              		.cfi_def_cfa_offset 0
  93 002c 67800000 		jr	ra
  94              	.LVL4:
  95              	.L8:
  96 0030 67800000 		ret
  97              		.cfi_endproc
  98              	.LFE11:
 100              		.align	2
 101              		.globl	_ZN6ThreadC2EPFvPvES0_
 103              	_ZN6ThreadC2EPFvPvES0_:
 104              	.LFB3:
   5:src/syscall_cpp.cpp ****     int res = thread_init(&myHandle,body,arg);
 105              		.loc 2 5 1 is_stmt 1
 106              		.cfi_startproc
 107              	.LVL5:
 108 0034 130101FF 		addi	sp,sp,-16
 109              		.cfi_def_cfa_offset 16
 110 0038 23341100 		sd	ra,8(sp)
 111 003c 23308100 		sd	s0,0(sp)
 112              		.cfi_offset 1, -8
 113              		.cfi_offset 8, -16
 114 0040 13040101 		addi	s0,sp,16
 115              		.cfi_def_cfa 8, 0
 116              	.LBB5:
   5:src/syscall_cpp.cpp ****     int res = thread_init(&myHandle,body,arg);
 117              		.loc 2 5 47 is_stmt 0
 118 0044 97070000 		lla	a5,_ZTV6Thread+16
 118      93870700 
 119 004c 2330F500 		sd	a5,0(a0)
 120              	.LBB6:
   6:src/syscall_cpp.cpp ****     if(res < 0){
 121              		.loc 2 6 5 is_stmt 1
   6:src/syscall_cpp.cpp ****     if(res < 0){
 122              		.loc 2 6 26 is_stmt 0
 123 0050 13058500 		addi	a0,a0,8
 124              	.LVL6:
 125 0054 97000000 		call	thread_init@plt
 125      E7800000 
 126              	.LVL7:
   7:src/syscall_cpp.cpp ****         ::putc('!');
 127              		.loc 2 7 5 is_stmt 1
 128 005c 634A0500 		bltz	a0,.L14
 129              	.LVL8:
 130              	.L11:
 131              	.LBE6:
 132              	.LBE5:
  11:src/syscall_cpp.cpp **** Semaphore::Semaphore(unsigned int init) {
 133              		.loc 2 11 1 is_stmt 0
 134 0060 83308100 		ld	ra,8(sp)
 135              		.cfi_remember_state
 136              		.cfi_restore 1
 137 0064 03340100 		ld	s0,0(sp)
 138              		.cfi_restore 8
 139              		.cfi_def_cfa 2, 16
 140 0068 13010101 		addi	sp,sp,16
GAS LISTING /tmp/cc7lLgEN.s 			page 5


 141              		.cfi_def_cfa_offset 0
 142 006c 67800000 		jr	ra
 143              	.LVL9:
 144              	.L14:
 145              		.cfi_restore_state
 146              	.LBB8:
 147              	.LBB7:
   8:src/syscall_cpp.cpp ****         ::putc('\n');
 148              		.loc 2 8 9 is_stmt 1
   8:src/syscall_cpp.cpp ****         ::putc('\n');
 149              		.loc 2 8 15 is_stmt 0
 150 0070 13051002 		li	a0,33
 151              	.LVL10:
 152 0074 97000000 		call	putc@plt
 152      E7800000 
 153              	.LVL11:
   9:src/syscall_cpp.cpp ****     }
 154              		.loc 2 9 9 is_stmt 1
   9:src/syscall_cpp.cpp ****     }
 155              		.loc 2 9 15 is_stmt 0
 156 007c 1305A000 		li	a0,10
 157 0080 97000000 		call	putc@plt
 157      E7800000 
 158              	.LVL12:
 159              	.LBE7:
 160              	.LBE8:
  11:src/syscall_cpp.cpp **** Semaphore::Semaphore(unsigned int init) {
 161              		.loc 2 11 1
 162 0088 6FF09FFD 		j	.L11
 163              		.cfi_endproc
 164              	.LFE3:
 166              		.globl	_ZN6ThreadC1EPFvPvES0_
 167              		.set	_ZN6ThreadC1EPFvPvES0_,_ZN6ThreadC2EPFvPvES0_
 168              		.align	2
 169              		.globl	_ZN9SemaphoreC2Ej
 171              	_ZN9SemaphoreC2Ej:
 172              	.LFB6:
  12:src/syscall_cpp.cpp ****     int res = sem_open(&myHandle,init);
 173              		.loc 2 12 1 is_stmt 1
 174              		.cfi_startproc
 175              	.LVL13:
 176 008c 130101FF 		addi	sp,sp,-16
 177              		.cfi_def_cfa_offset 16
 178 0090 23341100 		sd	ra,8(sp)
 179 0094 23308100 		sd	s0,0(sp)
 180              		.cfi_offset 1, -8
 181              		.cfi_offset 8, -16
 182 0098 13040101 		addi	s0,sp,16
 183              		.cfi_def_cfa 8, 0
 184              	.LBB9:
  12:src/syscall_cpp.cpp ****     int res = sem_open(&myHandle,init);
 185              		.loc 2 12 39 is_stmt 0
 186 009c 97070000 		lla	a5,_ZTV9Semaphore+16
 186      93870700 
 187 00a4 2330F500 		sd	a5,0(a0)
 188              	.LBB10:
  13:src/syscall_cpp.cpp ****     if(res < 0){
GAS LISTING /tmp/cc7lLgEN.s 			page 6


 189              		.loc 2 13 5 is_stmt 1
  13:src/syscall_cpp.cpp ****     if(res < 0){
 190              		.loc 2 13 23 is_stmt 0
 191 00a8 13058500 		addi	a0,a0,8
 192              	.LVL14:
 193 00ac 97000000 		call	sem_open@plt
 193      E7800000 
 194              	.LVL15:
  14:src/syscall_cpp.cpp ****         ::putc('!');
 195              		.loc 2 14 5 is_stmt 1
 196 00b4 634A0500 		bltz	a0,.L18
 197              	.LVL16:
 198              	.L15:
 199              	.LBE10:
 200              	.LBE9:
  18:src/syscall_cpp.cpp **** 
 201              		.loc 2 18 1 is_stmt 0
 202 00b8 83308100 		ld	ra,8(sp)
 203              		.cfi_remember_state
 204              		.cfi_restore 1
 205 00bc 03340100 		ld	s0,0(sp)
 206              		.cfi_restore 8
 207              		.cfi_def_cfa 2, 16
 208 00c0 13010101 		addi	sp,sp,16
 209              		.cfi_def_cfa_offset 0
 210 00c4 67800000 		jr	ra
 211              	.LVL17:
 212              	.L18:
 213              		.cfi_restore_state
 214              	.LBB12:
 215              	.LBB11:
  15:src/syscall_cpp.cpp ****         ::putc('\n');
 216              		.loc 2 15 9 is_stmt 1
  15:src/syscall_cpp.cpp ****         ::putc('\n');
 217              		.loc 2 15 15 is_stmt 0
 218 00c8 13051002 		li	a0,33
 219              	.LVL18:
 220 00cc 97000000 		call	putc@plt
 220      E7800000 
 221              	.LVL19:
  16:src/syscall_cpp.cpp ****     }
 222              		.loc 2 16 9 is_stmt 1
  16:src/syscall_cpp.cpp ****     }
 223              		.loc 2 16 15 is_stmt 0
 224 00d4 1305A000 		li	a0,10
 225 00d8 97000000 		call	putc@plt
 225      E7800000 
 226              	.LVL20:
 227              	.LBE11:
 228              	.LBE12:
  18:src/syscall_cpp.cpp **** 
 229              		.loc 2 18 1
 230 00e0 6FF09FFD 		j	.L15
 231              		.cfi_endproc
 232              	.LFE6:
 234              		.globl	_ZN9SemaphoreC1Ej
 235              		.set	_ZN9SemaphoreC1Ej,_ZN9SemaphoreC2Ej
GAS LISTING /tmp/cc7lLgEN.s 			page 7


 236              		.align	2
 237              		.globl	_ZN6Thread5startEv
 239              	_ZN6Thread5startEv:
 240              	.LFB8:
  20:src/syscall_cpp.cpp ****     if(this->myHandle->PCB == nullptr) return -1;
 241              		.loc 2 20 21 is_stmt 1
 242              		.cfi_startproc
 243              	.LVL21:
  21:src/syscall_cpp.cpp ****     ((PCB*)this->myHandle->PCB)->start();
 244              		.loc 2 21 5
  21:src/syscall_cpp.cpp ****     ((PCB*)this->myHandle->PCB)->start();
 245              		.loc 2 21 14 is_stmt 0
 246 00e4 83378500 		ld	a5,8(a0)
  21:src/syscall_cpp.cpp ****     ((PCB*)this->myHandle->PCB)->start();
 247              		.loc 2 21 24
 248 00e8 03B50700 		ld	a0,0(a5)
 249              	.LVL22:
  21:src/syscall_cpp.cpp ****     ((PCB*)this->myHandle->PCB)->start();
 250              		.loc 2 21 5
 251 00ec 63080502 		beqz	a0,.L21
  20:src/syscall_cpp.cpp ****     if(this->myHandle->PCB == nullptr) return -1;
 252              		.loc 2 20 21
 253 00f0 130101FF 		addi	sp,sp,-16
 254              		.cfi_def_cfa_offset 16
 255 00f4 23341100 		sd	ra,8(sp)
 256 00f8 23308100 		sd	s0,0(sp)
 257              		.cfi_offset 1, -8
 258              		.cfi_offset 8, -16
 259 00fc 13040101 		addi	s0,sp,16
 260              		.cfi_def_cfa 8, 0
  22:src/syscall_cpp.cpp ****     return 0;
 261              		.loc 2 22 5 is_stmt 1
  22:src/syscall_cpp.cpp ****     return 0;
 262              		.loc 2 22 39 is_stmt 0
 263 0100 97000000 		call	_ZN3PCB5startEv@plt
 263      E7800000 
 264              	.LVL23:
  23:src/syscall_cpp.cpp **** }
 265              		.loc 2 23 5 is_stmt 1
  23:src/syscall_cpp.cpp **** }
 266              		.loc 2 23 12 is_stmt 0
 267 0108 13050000 		li	a0,0
  24:src/syscall_cpp.cpp **** 
 268              		.loc 2 24 1
 269 010c 83308100 		ld	ra,8(sp)
 270              		.cfi_restore 1
 271 0110 03340100 		ld	s0,0(sp)
 272              		.cfi_restore 8
 273              		.cfi_def_cfa 2, 16
 274 0114 13010101 		addi	sp,sp,16
 275              		.cfi_def_cfa_offset 0
 276 0118 67800000 		jr	ra
 277              	.L21:
  21:src/syscall_cpp.cpp ****     ((PCB*)this->myHandle->PCB)->start();
 278              		.loc 2 21 48
 279 011c 1305F0FF 		li	a0,-1
  24:src/syscall_cpp.cpp **** 
GAS LISTING /tmp/cc7lLgEN.s 			page 8


 280              		.loc 2 24 1
 281 0120 67800000 		ret
 282              		.cfi_endproc
 283              	.LFE8:
 285              		.align	2
 286              		.globl	_ZN6Thread8dispatchEv
 288              	_ZN6Thread8dispatchEv:
 289              	.LFB9:
  26:src/syscall_cpp.cpp ****     thread_dispatch();
 290              		.loc 2 26 25 is_stmt 1
 291              		.cfi_startproc
 292 0124 130101FF 		addi	sp,sp,-16
 293              		.cfi_def_cfa_offset 16
 294 0128 23341100 		sd	ra,8(sp)
 295 012c 23308100 		sd	s0,0(sp)
 296              		.cfi_offset 1, -8
 297              		.cfi_offset 8, -16
 298 0130 13040101 		addi	s0,sp,16
 299              		.cfi_def_cfa 8, 0
  27:src/syscall_cpp.cpp **** }
 300              		.loc 2 27 5
  27:src/syscall_cpp.cpp **** }
 301              		.loc 2 27 20 is_stmt 0
 302 0134 97000000 		call	thread_dispatch@plt
 302      E7800000 
 303              	.LVL24:
  28:src/syscall_cpp.cpp **** 
 304              		.loc 2 28 1
 305 013c 83308100 		ld	ra,8(sp)
 306              		.cfi_restore 1
 307 0140 03340100 		ld	s0,0(sp)
 308              		.cfi_restore 8
 309              		.cfi_def_cfa 2, 16
 310 0144 13010101 		addi	sp,sp,16
 311              		.cfi_def_cfa_offset 0
 312 0148 67800000 		jr	ra
 313              		.cfi_endproc
 314              	.LFE9:
 316              		.align	2
 317              		.globl	_ZN6Thread5sleepEm
 319              	_ZN6Thread5sleepEm:
 320              	.LFB10:
  30:src/syscall_cpp.cpp ****     int res = time_sleep(time);
 321              		.loc 2 30 32 is_stmt 1
 322              		.cfi_startproc
 323              	.LVL25:
 324 014c 130101FF 		addi	sp,sp,-16
 325              		.cfi_def_cfa_offset 16
 326 0150 23341100 		sd	ra,8(sp)
 327 0154 23308100 		sd	s0,0(sp)
 328              		.cfi_offset 1, -8
 329              		.cfi_offset 8, -16
 330 0158 13040101 		addi	s0,sp,16
 331              		.cfi_def_cfa 8, 0
  31:src/syscall_cpp.cpp ****     return res;
 332              		.loc 2 31 5
  31:src/syscall_cpp.cpp ****     return res;
GAS LISTING /tmp/cc7lLgEN.s 			page 9


 333              		.loc 2 31 25 is_stmt 0
 334 015c 97000000 		call	time_sleep@plt
 334      E7800000 
 335              	.LVL26:
  32:src/syscall_cpp.cpp **** }
 336              		.loc 2 32 5 is_stmt 1
  33:src/syscall_cpp.cpp **** 
 337              		.loc 2 33 1 is_stmt 0
 338 0164 83308100 		ld	ra,8(sp)
 339              		.cfi_restore 1
 340 0168 03340100 		ld	s0,0(sp)
 341              		.cfi_restore 8
 342              		.cfi_def_cfa 2, 16
 343 016c 13010101 		addi	sp,sp,16
 344              		.cfi_def_cfa_offset 0
 345 0170 67800000 		jr	ra
 346              		.cfi_endproc
 347              	.LFE10:
 349              		.align	2
 350              		.globl	_Z15periodicWrapperPv
 352              	_Z15periodicWrapperPv:
 353              	.LFB12:
  41:src/syscall_cpp.cpp **** typedef struct {
  42:src/syscall_cpp.cpp ****     PeriodicThread* t;
  43:src/syscall_cpp.cpp ****     time_t time;
  44:src/syscall_cpp.cpp **** } periodicArgs;
  45:src/syscall_cpp.cpp **** void periodicWrapper(void *args){
 354              		.loc 2 45 33 is_stmt 1
 355              		.cfi_startproc
 356              	.LVL27:
 357 0174 130101FE 		addi	sp,sp,-32
 358              		.cfi_def_cfa_offset 32
 359 0178 233C1100 		sd	ra,24(sp)
 360 017c 23388100 		sd	s0,16(sp)
 361 0180 23349100 		sd	s1,8(sp)
 362 0184 23302101 		sd	s2,0(sp)
 363              		.cfi_offset 1, -8
 364              		.cfi_offset 8, -16
 365              		.cfi_offset 9, -24
 366              		.cfi_offset 18, -32
 367 0188 13040102 		addi	s0,sp,32
 368              		.cfi_def_cfa 8, 0
  46:src/syscall_cpp.cpp ****     time_t times = ((periodicArgs*)args)->time;
 369              		.loc 2 46 5
 370              		.loc 2 46 12 is_stmt 0
 371 018c 03398500 		ld	s2,8(a0)
 372              	.LVL28:
  47:src/syscall_cpp.cpp ****     PeriodicThread* threads = (PeriodicThread *) ((periodicArgs*)args)->t;
 373              		.loc 2 47 5 is_stmt 1
 374              		.loc 2 47 21 is_stmt 0
 375 0190 83340500 		ld	s1,0(a0)
 376              	.LVL29:
  48:src/syscall_cpp.cpp ****     if(((periodicArgs*)args)->t){
 377              		.loc 2 48 5 is_stmt 1
 378 0194 63820402 		beqz	s1,.L30
 379              	.LVL30:
 380              	.L32:
GAS LISTING /tmp/cc7lLgEN.s 			page 10


  49:src/syscall_cpp.cpp ****         while (true){
 381              		.loc 2 49 9 discriminator 1
  50:src/syscall_cpp.cpp ****             threads->periodicActivation();
 382              		.loc 2 50 13 discriminator 1
 383              		.loc 2 50 41 is_stmt 0 discriminator 1
 384 0198 83B70400 		ld	a5,0(s1)
 385 019c 83B78701 		ld	a5,24(a5)
 386              		.loc 2 50 40 discriminator 1
 387 01a0 13850400 		mv	a0,s1
 388 01a4 E7800700 		jalr	a5
 389              	.LVL31:
  51:src/syscall_cpp.cpp ****             Thread::sleep(times);
 390              		.loc 2 51 13 is_stmt 1 discriminator 1
 391              		.loc 2 51 26 is_stmt 0 discriminator 1
 392 01a8 13050900 		mv	a0,s2
 393 01ac 97000000 		call	_ZN6Thread5sleepEm
 393      E7800000 
 394              	.LVL32:
  49:src/syscall_cpp.cpp ****         while (true){
 395              		.loc 2 49 9 is_stmt 1 discriminator 1
 396 01b4 6FF05FFE 		j	.L32
 397              	.LVL33:
 398              	.L30:
  52:src/syscall_cpp.cpp ****         }
  53:src/syscall_cpp.cpp ****     }
  54:src/syscall_cpp.cpp **** }
 399              		.loc 2 54 1 is_stmt 0
 400 01b8 83308101 		ld	ra,24(sp)
 401              		.cfi_restore 1
 402 01bc 03340101 		ld	s0,16(sp)
 403              		.cfi_restore 8
 404              		.cfi_def_cfa 2, 32
 405 01c0 83348100 		ld	s1,8(sp)
 406              		.cfi_restore 9
 407              	.LVL34:
 408 01c4 03390100 		ld	s2,0(sp)
 409              		.cfi_restore 18
 410              	.LVL35:
 411 01c8 13010102 		addi	sp,sp,32
 412              		.cfi_def_cfa_offset 0
 413 01cc 67800000 		jr	ra
 414              		.cfi_endproc
 415              	.LFE12:
 417              		.align	2
 418              		.globl	_ZN6ThreadC2Ev
 420              	_ZN6ThreadC2Ev:
 421              	.LFB17:
  55:src/syscall_cpp.cpp **** 
  56:src/syscall_cpp.cpp **** PeriodicThread::PeriodicThread(time_t period) : Thread(&periodicWrapper,new periodicArgs{this,perio
  57:src/syscall_cpp.cpp ****     set_periodic(&myHandle);
  58:src/syscall_cpp.cpp **** }
  59:src/syscall_cpp.cpp **** 
  60:src/syscall_cpp.cpp **** Thread::Thread() {
 422              		.loc 2 60 1 is_stmt 1
 423              		.cfi_startproc
 424              	.LVL36:
 425 01d0 130101FF 		addi	sp,sp,-16
GAS LISTING /tmp/cc7lLgEN.s 			page 11


 426              		.cfi_def_cfa_offset 16
 427 01d4 23341100 		sd	ra,8(sp)
 428 01d8 23308100 		sd	s0,0(sp)
 429              		.cfi_offset 1, -8
 430              		.cfi_offset 8, -16
 431 01dc 13040101 		addi	s0,sp,16
 432              		.cfi_def_cfa 8, 0
 433              	.LBB13:
 434              		.loc 2 60 16 is_stmt 0
 435 01e0 97070000 		lla	a5,_ZTV6Thread+16
 435      93870700 
 436 01e8 2330F500 		sd	a5,0(a0)
 437              	.LBB14:
  61:src/syscall_cpp.cpp ****     int res = thread_init(&myHandle,&wrapper, this);
 438              		.loc 2 61 5 is_stmt 1
 439              		.loc 2 61 26 is_stmt 0
 440 01ec 13060500 		mv	a2,a0
 441 01f0 97050000 		lla	a1,_Z7wrapperPv
 441      93850500 
 442 01f8 13058500 		addi	a0,a0,8
 443              	.LVL37:
 444 01fc 97000000 		call	thread_init@plt
 444      E7800000 
 445              	.LVL38:
  62:src/syscall_cpp.cpp ****     if(res < 0){
 446              		.loc 2 62 5 is_stmt 1
 447 0204 634A0500 		bltz	a0,.L37
 448              	.LVL39:
 449              	.L34:
 450              	.LBE14:
 451              	.LBE13:
  63:src/syscall_cpp.cpp ****         ::putc('!');
  64:src/syscall_cpp.cpp ****         ::putc('\n');
  65:src/syscall_cpp.cpp ****     }
  66:src/syscall_cpp.cpp **** }
 452              		.loc 2 66 1 is_stmt 0
 453 0208 83308100 		ld	ra,8(sp)
 454              		.cfi_remember_state
 455              		.cfi_restore 1
 456 020c 03340100 		ld	s0,0(sp)
 457              		.cfi_restore 8
 458              		.cfi_def_cfa 2, 16
 459 0210 13010101 		addi	sp,sp,16
 460              		.cfi_def_cfa_offset 0
 461 0214 67800000 		jr	ra
 462              	.LVL40:
 463              	.L37:
 464              		.cfi_restore_state
 465              	.LBB16:
 466              	.LBB15:
  63:src/syscall_cpp.cpp ****         ::putc('!');
 467              		.loc 2 63 9 is_stmt 1
  63:src/syscall_cpp.cpp ****         ::putc('!');
 468              		.loc 2 63 15 is_stmt 0
 469 0218 13051002 		li	a0,33
 470              	.LVL41:
 471 021c 97000000 		call	putc@plt
GAS LISTING /tmp/cc7lLgEN.s 			page 12


 471      E7800000 
 472              	.LVL42:
  64:src/syscall_cpp.cpp ****     }
 473              		.loc 2 64 9 is_stmt 1
  64:src/syscall_cpp.cpp ****     }
 474              		.loc 2 64 15 is_stmt 0
 475 0224 1305A000 		li	a0,10
 476 0228 97000000 		call	putc@plt
 476      E7800000 
 477              	.LVL43:
 478              	.LBE15:
 479              	.LBE16:
 480              		.loc 2 66 1
 481 0230 6FF09FFD 		j	.L34
 482              		.cfi_endproc
 483              	.LFE17:
 485              		.globl	_ZN6ThreadC1Ev
 486              		.set	_ZN6ThreadC1Ev,_ZN6ThreadC2Ev
 487              		.align	2
 488              		.globl	_Znwm
 490              	_Znwm:
 491              	.LFB23:
  67:src/syscall_cpp.cpp **** 
  68:src/syscall_cpp.cpp **** 
  69:src/syscall_cpp.cpp **** Thread::~Thread() {
  70:src/syscall_cpp.cpp ****     delete this->myHandle;
  71:src/syscall_cpp.cpp **** }
  72:src/syscall_cpp.cpp **** 
  73:src/syscall_cpp.cpp **** void* operator new(size_t n){
 492              		.loc 2 73 29 is_stmt 1
 493              		.cfi_startproc
 494              	.LVL44:
 495 0234 130101FF 		addi	sp,sp,-16
 496              		.cfi_def_cfa_offset 16
 497 0238 23341100 		sd	ra,8(sp)
 498 023c 23308100 		sd	s0,0(sp)
 499              		.cfi_offset 1, -8
 500              		.cfi_offset 8, -16
 501 0240 13040101 		addi	s0,sp,16
 502              		.cfi_def_cfa 8, 0
  74:src/syscall_cpp.cpp ****     void* ret =  mem_alloc(n);
 503              		.loc 2 74 5
 504              		.loc 2 74 27 is_stmt 0
 505 0244 97000000 		call	mem_alloc@plt
 505      E7800000 
 506              	.LVL45:
  75:src/syscall_cpp.cpp ****     return ret;
 507              		.loc 2 75 5 is_stmt 1
  76:src/syscall_cpp.cpp **** }
 508              		.loc 2 76 1 is_stmt 0
 509 024c 83308100 		ld	ra,8(sp)
 510              		.cfi_restore 1
 511 0250 03340100 		ld	s0,0(sp)
 512              		.cfi_restore 8
 513              		.cfi_def_cfa 2, 16
 514 0254 13010101 		addi	sp,sp,16
 515              		.cfi_def_cfa_offset 0
GAS LISTING /tmp/cc7lLgEN.s 			page 13


 516 0258 67800000 		jr	ra
 517              		.cfi_endproc
 518              	.LFE23:
 520              		.align	2
 521              		.globl	_Znam
 523              	_Znam:
 524              	.LFB24:
  77:src/syscall_cpp.cpp **** void* operator new[](size_t n){
 525              		.loc 2 77 31 is_stmt 1
 526              		.cfi_startproc
 527              	.LVL46:
 528 025c 130101FF 		addi	sp,sp,-16
 529              		.cfi_def_cfa_offset 16
 530 0260 23341100 		sd	ra,8(sp)
 531 0264 23308100 		sd	s0,0(sp)
 532              		.cfi_offset 1, -8
 533              		.cfi_offset 8, -16
 534 0268 13040101 		addi	s0,sp,16
 535              		.cfi_def_cfa 8, 0
  78:src/syscall_cpp.cpp ****     void* ret =  mem_alloc(n);
 536              		.loc 2 78 5
 537              		.loc 2 78 27 is_stmt 0
 538 026c 97000000 		call	mem_alloc@plt
 538      E7800000 
 539              	.LVL47:
  79:src/syscall_cpp.cpp ****     return ret;
 540              		.loc 2 79 5 is_stmt 1
  80:src/syscall_cpp.cpp **** }
 541              		.loc 2 80 1 is_stmt 0
 542 0274 83308100 		ld	ra,8(sp)
 543              		.cfi_restore 1
 544 0278 03340100 		ld	s0,0(sp)
 545              		.cfi_restore 8
 546              		.cfi_def_cfa 2, 16
 547 027c 13010101 		addi	sp,sp,16
 548              		.cfi_def_cfa_offset 0
 549 0280 67800000 		jr	ra
 550              		.cfi_endproc
 551              	.LFE24:
 553              		.align	2
 554              		.globl	_ZdlPv
 556              	_ZdlPv:
 557              	.LFB25:
  81:src/syscall_cpp.cpp **** 
  82:src/syscall_cpp.cpp **** void operator delete (void* p) noexcept{
 558              		.loc 2 82 40 is_stmt 1
 559              		.cfi_startproc
 560              		.cfi_personality 0x9b,DW.ref.__gxx_personality_v0
 561              		.cfi_lsda 0x1b,.LLSDA25
 562              	.LVL48:
 563 0284 130101FF 		addi	sp,sp,-16
 564              		.cfi_def_cfa_offset 16
 565 0288 23341100 		sd	ra,8(sp)
 566 028c 23308100 		sd	s0,0(sp)
 567              		.cfi_offset 1, -8
 568              		.cfi_offset 8, -16
 569 0290 13040101 		addi	s0,sp,16
GAS LISTING /tmp/cc7lLgEN.s 			page 14


 570              		.cfi_def_cfa 8, 0
  83:src/syscall_cpp.cpp ****     mem_free(p);
 571              		.loc 2 83 5
 572              		.loc 2 83 13 is_stmt 0
 573 0294 97000000 		call	mem_free@plt
 573      E7800000 
 574              	.LVL49:
  84:src/syscall_cpp.cpp **** }
 575              		.loc 2 84 1
 576 029c 83308100 		ld	ra,8(sp)
 577              		.cfi_restore 1
 578 02a0 03340100 		ld	s0,0(sp)
 579              		.cfi_restore 8
 580              		.cfi_def_cfa 2, 16
 581 02a4 13010101 		addi	sp,sp,16
 582              		.cfi_def_cfa_offset 0
 583 02a8 67800000 		jr	ra
 584              		.cfi_endproc
 585              	.LFE25:
 586              		.globl	__gxx_personality_v0
 587              		.section	.gcc_except_table,"a",@progbits
 588              	.LLSDA25:
 589 0000 FF       		.byte	0xff
 590 0001 FF       		.byte	0xff
 591 0002 03       		.byte	0x3
 592 0003 00       		.byte	0
 593              		.text
 595              		.align	2
 596              		.globl	_ZN6ThreadD2Ev
 598              	_ZN6ThreadD2Ev:
 599              	.LFB20:
  69:src/syscall_cpp.cpp ****     delete this->myHandle;
 600              		.loc 2 69 1 is_stmt 1
 601              		.cfi_startproc
 602              	.LVL50:
 603              	.LBB17:
  69:src/syscall_cpp.cpp ****     delete this->myHandle;
 604              		.loc 2 69 17 is_stmt 0
 605 02ac 97070000 		lla	a5,_ZTV6Thread+16
 605      93870700 
 606 02b4 2330F500 		sd	a5,0(a0)
  70:src/syscall_cpp.cpp **** }
 607              		.loc 2 70 5 is_stmt 1
  70:src/syscall_cpp.cpp **** }
 608              		.loc 2 70 18 is_stmt 0
 609 02b8 03358500 		ld	a0,8(a0)
 610              	.LVL51:
  70:src/syscall_cpp.cpp **** }
 611              		.loc 2 70 26
 612 02bc 63060502 		beqz	a0,.L47
 613              	.LBE17:
  69:src/syscall_cpp.cpp ****     delete this->myHandle;
 614              		.loc 2 69 1 discriminator 1
 615 02c0 130101FF 		addi	sp,sp,-16
 616              		.cfi_def_cfa_offset 16
 617 02c4 23341100 		sd	ra,8(sp)
 618 02c8 23308100 		sd	s0,0(sp)
GAS LISTING /tmp/cc7lLgEN.s 			page 15


 619              		.cfi_offset 1, -8
 620              		.cfi_offset 8, -16
 621 02cc 13040101 		addi	s0,sp,16
 622              		.cfi_def_cfa 8, 0
 623              	.LBB18:
  70:src/syscall_cpp.cpp **** }
 624              		.loc 2 70 18 discriminator 1
 625 02d0 97000000 		call	_ZdlPv
 625      E7800000 
 626              	.LVL52:
 627              	.LBE18:
  71:src/syscall_cpp.cpp **** 
 628              		.loc 2 71 1 discriminator 1
 629 02d8 83308100 		ld	ra,8(sp)
 630              		.cfi_restore 1
 631 02dc 03340100 		ld	s0,0(sp)
 632              		.cfi_restore 8
 633              		.cfi_def_cfa 2, 16
 634 02e0 13010101 		addi	sp,sp,16
 635              		.cfi_def_cfa_offset 0
 636 02e4 67800000 		jr	ra
 637              	.L47:
 638 02e8 67800000 		ret
 639              		.cfi_endproc
 640              	.LFE20:
 642              		.globl	_ZN6ThreadD1Ev
 643              		.set	_ZN6ThreadD1Ev,_ZN6ThreadD2Ev
 644              		.align	2
 645              		.globl	_ZN14PeriodicThreadC2Em
 647              	_ZN14PeriodicThreadC2Em:
 648              	.LFB14:
  56:src/syscall_cpp.cpp ****     set_periodic(&myHandle);
 649              		.loc 2 56 1 is_stmt 1
 650              		.cfi_startproc
 651              		.cfi_personality 0x9b,DW.ref.__gxx_personality_v0
 652              		.cfi_lsda 0x1b,.LLSDA14
 653              	.LVL53:
 654 02ec 130101FE 		addi	sp,sp,-32
 655              		.cfi_def_cfa_offset 32
 656 02f0 233C1100 		sd	ra,24(sp)
 657 02f4 23388100 		sd	s0,16(sp)
 658 02f8 23349100 		sd	s1,8(sp)
 659 02fc 23302101 		sd	s2,0(sp)
 660              		.cfi_offset 1, -8
 661              		.cfi_offset 8, -16
 662              		.cfi_offset 9, -24
 663              		.cfi_offset 18, -32
 664 0300 13040102 		addi	s0,sp,32
 665              		.cfi_def_cfa 8, 0
 666 0304 93040500 		mv	s1,a0
 667 0308 13890500 		mv	s2,a1
 668              	.LBB19:
  56:src/syscall_cpp.cpp ****     set_periodic(&myHandle);
 669              		.loc 2 56 101 is_stmt 0
 670 030c 13050001 		li	a0,16
 671              	.LVL54:
 672              	.LEHB0:
GAS LISTING /tmp/cc7lLgEN.s 			page 16


 673 0310 97000000 		call	_Znwm
 673      E7800000 
 674              	.LVL55:
 675 0318 13060500 		mv	a2,a0
 676 031c 23309500 		sd	s1,0(a0)
 677 0320 23342501 		sd	s2,8(a0)
  56:src/syscall_cpp.cpp ****     set_periodic(&myHandle);
 678              		.loc 2 56 102
 679 0324 97050000 		lla	a1,_Z15periodicWrapperPv
 679      93850500 
 680 032c 13850400 		mv	a0,s1
 681 0330 97000000 		call	_ZN6ThreadC2EPFvPvES0_
 681      E7800000 
 682              	.LVL56:
 683              	.LEHE0:
 684 0338 97070000 		lla	a5,_ZTV14PeriodicThread+16
 684      93870700 
 685 0340 23B0F400 		sd	a5,0(s1)
  57:src/syscall_cpp.cpp **** }
 686              		.loc 2 57 5 is_stmt 1
  57:src/syscall_cpp.cpp **** }
 687              		.loc 2 57 17 is_stmt 0
 688 0344 13858400 		addi	a0,s1,8
 689              	.LEHB1:
 690 0348 97000000 		call	set_periodic@plt
 690      E7800000 
 691              	.LVL57:
 692              	.LEHE1:
 693 0350 6F000002 		j	.L55
 694              	.L52:
 695 0354 13090500 		mv	s2,a0
 696              	.LVL58:
  56:src/syscall_cpp.cpp ****     set_periodic(&myHandle);
 697              		.loc 2 56 102
 698 0358 13850400 		mv	a0,s1
 699 035c 97000000 		call	_ZN6ThreadD2Ev
 699      E7800000 
 700              	.LVL59:
 701 0364 13050900 		mv	a0,s2
 702              	.LEHB2:
 703 0368 97000000 		call	_Unwind_Resume@plt
 703      E7800000 
 704              	.LVL60:
 705              	.LEHE2:
 706              	.L55:
 707              	.LBE19:
  58:src/syscall_cpp.cpp **** 
 708              		.loc 2 58 1
 709 0370 83308101 		ld	ra,24(sp)
 710              		.cfi_restore 1
 711 0374 03340101 		ld	s0,16(sp)
 712              		.cfi_restore 8
 713              		.cfi_def_cfa 2, 32
 714 0378 83348100 		ld	s1,8(sp)
 715              		.cfi_restore 9
 716              	.LVL61:
 717 037c 03390100 		ld	s2,0(sp)
GAS LISTING /tmp/cc7lLgEN.s 			page 17


 718              		.cfi_restore 18
 719              	.LVL62:
 720 0380 13010102 		addi	sp,sp,32
 721              		.cfi_def_cfa_offset 0
 722 0384 67800000 		jr	ra
 723              		.cfi_endproc
 724              	.LFE14:
 725              		.section	.gcc_except_table
 726              	.LLSDA14:
 727 0004 FF       		.byte	0xff
 728 0005 FF       		.byte	0xff
 729 0006 03       		.byte	0x3
 730 0007 27       		.byte	0x27
 731 0008 00000000 		.4byte	.LEHB0-.LFB14
 732 000c 00000000 		.4byte	.LEHE0-.LEHB0
 733 0010 00000000 		.4byte	0
 734 0014 00       		.byte	0
 735 0015 00000000 		.4byte	.LEHB1-.LFB14
 736 0019 00000000 		.4byte	.LEHE1-.LEHB1
 737 001d 00000000 		.4byte	.L52-.LFB14
 738 0021 00       		.byte	0
 739 0022 00000000 		.4byte	.LEHB2-.LFB14
 740 0026 00000000 		.4byte	.LEHE2-.LEHB2
 741 002a 00000000 		.4byte	0
 742 002e 00       		.byte	0
 743              		.text
 745              		.globl	_ZN14PeriodicThreadC1Em
 746              		.set	_ZN14PeriodicThreadC1Em,_ZN14PeriodicThreadC2Em
 747              		.section	.text._ZN14PeriodicThreadD2Ev,"axG",@progbits,_ZN14PeriodicThreadD5Ev,comdat
 748              		.align	2
 749              		.weak	_ZN14PeriodicThreadD2Ev
 751              	_ZN14PeriodicThreadD2Ev:
 752              	.LFB36:
  41:src/../h/syscall_cpp.hpp **** public:
 753              		.loc 1 41 7 is_stmt 1
 754              		.cfi_startproc
 755              	.LVL63:
 756 0000 130101FF 		addi	sp,sp,-16
 757              		.cfi_def_cfa_offset 16
 758 0004 23341100 		sd	ra,8(sp)
 759 0008 23308100 		sd	s0,0(sp)
 760              		.cfi_offset 1, -8
 761              		.cfi_offset 8, -16
 762 000c 13040101 		addi	s0,sp,16
 763              		.cfi_def_cfa 8, 0
 764              	.LBB20:
  41:src/../h/syscall_cpp.hpp **** public:
 765              		.loc 1 41 7 is_stmt 0
 766 0010 97070000 		lla	a5,_ZTV14PeriodicThread+16
 766      93870700 
 767 0018 2330F500 		sd	a5,0(a0)
 768 001c 97000000 		call	_ZN6ThreadD2Ev
 768      E7800000 
 769              	.LVL64:
 770              	.LBE20:
 771 0024 83308100 		ld	ra,8(sp)
 772              		.cfi_restore 1
GAS LISTING /tmp/cc7lLgEN.s 			page 18


 773 0028 03340100 		ld	s0,0(sp)
 774              		.cfi_restore 8
 775              		.cfi_def_cfa 2, 16
 776 002c 13010101 		addi	sp,sp,16
 777              		.cfi_def_cfa_offset 0
 778 0030 67800000 		jr	ra
 779              		.cfi_endproc
 780              	.LFE36:
 782              		.weak	_ZN14PeriodicThreadD1Ev
 783              		.set	_ZN14PeriodicThreadD1Ev,_ZN14PeriodicThreadD2Ev
 784              		.section	.text._ZN14PeriodicThreadD0Ev,"axG",@progbits,_ZN14PeriodicThreadD5Ev,comdat
 785              		.align	2
 786              		.weak	_ZN14PeriodicThreadD0Ev
 788              	_ZN14PeriodicThreadD0Ev:
 789              	.LFB38:
  41:src/../h/syscall_cpp.hpp **** public:
 790              		.loc 1 41 7 is_stmt 1
 791              		.cfi_startproc
 792              	.LVL65:
 793 0000 130101FE 		addi	sp,sp,-32
 794              		.cfi_def_cfa_offset 32
 795 0004 233C1100 		sd	ra,24(sp)
 796 0008 23388100 		sd	s0,16(sp)
 797 000c 23349100 		sd	s1,8(sp)
 798              		.cfi_offset 1, -8
 799              		.cfi_offset 8, -16
 800              		.cfi_offset 9, -24
 801 0010 13040102 		addi	s0,sp,32
 802              		.cfi_def_cfa 8, 0
 803 0014 93040500 		mv	s1,a0
 804              	.LVL66:
 805              	.LBB21:
 806              	.LBB22:
  41:src/../h/syscall_cpp.hpp **** public:
 807              		.loc 1 41 7 is_stmt 0
 808 0018 97070000 		lla	a5,_ZTV14PeriodicThread+16
 808      93870700 
 809 0020 2330F500 		sd	a5,0(a0)
 810 0024 97000000 		call	_ZN6ThreadD2Ev
 810      E7800000 
 811              	.LVL67:
 812              	.LBE22:
 813              	.LBE21:
 814 002c 13850400 		mv	a0,s1
 815 0030 97000000 		call	_ZdlPv
 815      E7800000 
 816              	.LVL68:
 817 0038 83308101 		ld	ra,24(sp)
 818              		.cfi_restore 1
 819 003c 03340101 		ld	s0,16(sp)
 820              		.cfi_restore 8
 821              		.cfi_def_cfa 2, 32
 822 0040 83348100 		ld	s1,8(sp)
 823              		.cfi_restore 9
 824              	.LVL69:
 825 0044 13010102 		addi	sp,sp,32
 826              		.cfi_def_cfa_offset 0
GAS LISTING /tmp/cc7lLgEN.s 			page 19


 827 0048 67800000 		jr	ra
 828              		.cfi_endproc
 829              	.LFE38:
 831              		.text
 832              		.align	2
 833              		.globl	_ZN6ThreadD0Ev
 835              	_ZN6ThreadD0Ev:
 836              	.LFB22:
  69:src/syscall_cpp.cpp ****     delete this->myHandle;
 837              		.loc 2 69 1 is_stmt 1
 838              		.cfi_startproc
 839              	.LVL70:
 840 0388 130101FE 		addi	sp,sp,-32
 841              		.cfi_def_cfa_offset 32
 842 038c 233C1100 		sd	ra,24(sp)
 843 0390 23388100 		sd	s0,16(sp)
 844 0394 23349100 		sd	s1,8(sp)
 845              		.cfi_offset 1, -8
 846              		.cfi_offset 8, -16
 847              		.cfi_offset 9, -24
 848 0398 13040102 		addi	s0,sp,32
 849              		.cfi_def_cfa 8, 0
 850 039c 93040500 		mv	s1,a0
  71:src/syscall_cpp.cpp **** 
 851              		.loc 2 71 1 is_stmt 0
 852 03a0 97000000 		call	_ZN6ThreadD1Ev
 852      E7800000 
 853              	.LVL71:
 854 03a8 13850400 		mv	a0,s1
 855 03ac 97000000 		call	_ZdlPv
 855      E7800000 
 856              	.LVL72:
 857 03b4 83308101 		ld	ra,24(sp)
 858              		.cfi_restore 1
 859 03b8 03340101 		ld	s0,16(sp)
 860              		.cfi_restore 8
 861              		.cfi_def_cfa 2, 32
 862 03bc 83348100 		ld	s1,8(sp)
 863              		.cfi_restore 9
 864              	.LVL73:
 865 03c0 13010102 		addi	sp,sp,32
 866              		.cfi_def_cfa_offset 0
 867 03c4 67800000 		jr	ra
 868              		.cfi_endproc
 869              	.LFE22:
 871              		.align	2
 872              		.globl	_ZN9SemaphoreD2Ev
 874              	_ZN9SemaphoreD2Ev:
 875              	.LFB30:
  85:src/syscall_cpp.cpp **** 
  86:src/syscall_cpp.cpp **** void operator delete[] (void * p) noexcept{
  87:src/syscall_cpp.cpp ****     mem_free(p);
  88:src/syscall_cpp.cpp **** }
  89:src/syscall_cpp.cpp **** 
  90:src/syscall_cpp.cpp **** 
  91:src/syscall_cpp.cpp **** 
  92:src/syscall_cpp.cpp **** 
GAS LISTING /tmp/cc7lLgEN.s 			page 20


  93:src/syscall_cpp.cpp **** 
  94:src/syscall_cpp.cpp **** int Semaphore::wait() {
  95:src/syscall_cpp.cpp ****     int res = sem_wait(this->myHandle);
  96:src/syscall_cpp.cpp ****     return res;
  97:src/syscall_cpp.cpp **** }
  98:src/syscall_cpp.cpp **** 
  99:src/syscall_cpp.cpp **** int Semaphore::signal() {
 100:src/syscall_cpp.cpp ****     int res = sem_signal(this->myHandle);
 101:src/syscall_cpp.cpp ****     return res;
 102:src/syscall_cpp.cpp **** }
 103:src/syscall_cpp.cpp **** 
 104:src/syscall_cpp.cpp **** Semaphore::~Semaphore() {
 876              		.loc 2 104 1 is_stmt 1
 877              		.cfi_startproc
 878              		.cfi_personality 0x9b,DW.ref.__gxx_personality_v0
 879              		.cfi_lsda 0x1b,.LLSDA30
 880              	.LVL74:
 881 03c8 130101FE 		addi	sp,sp,-32
 882              		.cfi_def_cfa_offset 32
 883 03cc 233C1100 		sd	ra,24(sp)
 884 03d0 23388100 		sd	s0,16(sp)
 885 03d4 23349100 		sd	s1,8(sp)
 886              		.cfi_offset 1, -8
 887              		.cfi_offset 8, -16
 888              		.cfi_offset 9, -24
 889 03d8 13040102 		addi	s0,sp,32
 890              		.cfi_def_cfa 8, 0
 891 03dc 93040500 		mv	s1,a0
 892              	.LBB23:
 893              		.loc 2 104 23 is_stmt 0
 894 03e0 97070000 		lla	a5,_ZTV9Semaphore+16
 894      93870700 
 895 03e8 2330F500 		sd	a5,0(a0)
 105:src/syscall_cpp.cpp ****     sem_close(this->myHandle);
 896              		.loc 2 105 5 is_stmt 1
 897              		.loc 2 105 14 is_stmt 0
 898 03ec 03358500 		ld	a0,8(a0)
 899              	.LVL75:
 900 03f0 97000000 		call	sem_close@plt
 900      E7800000 
 901              	.LVL76:
 106:src/syscall_cpp.cpp ****     delete this->myHandle;
 902              		.loc 2 106 5 is_stmt 1
 903              		.loc 2 106 18 is_stmt 0
 904 03f8 03B58400 		ld	a0,8(s1)
 905              		.loc 2 106 26
 906 03fc 63060500 		beqz	a0,.L62
 907              		.loc 2 106 18 discriminator 1
 908 0400 97000000 		call	_ZdlPv
 908      E7800000 
 909              	.LVL77:
 910              	.L62:
 911              	.LBE23:
 107:src/syscall_cpp.cpp **** 
 108:src/syscall_cpp.cpp **** }
 912              		.loc 2 108 1
 913 0408 83308101 		ld	ra,24(sp)
GAS LISTING /tmp/cc7lLgEN.s 			page 21


 914              		.cfi_restore 1
 915 040c 03340101 		ld	s0,16(sp)
 916              		.cfi_restore 8
 917              		.cfi_def_cfa 2, 32
 918 0410 83348100 		ld	s1,8(sp)
 919              		.cfi_restore 9
 920              	.LVL78:
 921 0414 13010102 		addi	sp,sp,32
 922              		.cfi_def_cfa_offset 0
 923 0418 67800000 		jr	ra
 924              		.cfi_endproc
 925              	.LFE30:
 926              		.section	.gcc_except_table
 927              	.LLSDA30:
 928 002f FF       		.byte	0xff
 929 0030 FF       		.byte	0xff
 930 0031 03       		.byte	0x3
 931 0032 00       		.byte	0
 932              		.text
 934              		.globl	_ZN9SemaphoreD1Ev
 935              		.set	_ZN9SemaphoreD1Ev,_ZN9SemaphoreD2Ev
 936              		.align	2
 937              		.globl	_ZN9SemaphoreD0Ev
 939              	_ZN9SemaphoreD0Ev:
 940              	.LFB32:
 104:src/syscall_cpp.cpp ****     sem_close(this->myHandle);
 941              		.loc 2 104 1 is_stmt 1
 942              		.cfi_startproc
 943              	.LVL79:
 944 041c 130101FE 		addi	sp,sp,-32
 945              		.cfi_def_cfa_offset 32
 946 0420 233C1100 		sd	ra,24(sp)
 947 0424 23388100 		sd	s0,16(sp)
 948 0428 23349100 		sd	s1,8(sp)
 949              		.cfi_offset 1, -8
 950              		.cfi_offset 8, -16
 951              		.cfi_offset 9, -24
 952 042c 13040102 		addi	s0,sp,32
 953              		.cfi_def_cfa 8, 0
 954 0430 93040500 		mv	s1,a0
 955              		.loc 2 108 1 is_stmt 0
 956 0434 97000000 		call	_ZN9SemaphoreD1Ev
 956      E7800000 
 957              	.LVL80:
 958 043c 13850400 		mv	a0,s1
 959 0440 97000000 		call	_ZdlPv
 959      E7800000 
 960              	.LVL81:
 961 0448 83308101 		ld	ra,24(sp)
 962              		.cfi_restore 1
 963 044c 03340101 		ld	s0,16(sp)
 964              		.cfi_restore 8
 965              		.cfi_def_cfa 2, 32
 966 0450 83348100 		ld	s1,8(sp)
 967              		.cfi_restore 9
 968              	.LVL82:
 969 0454 13010102 		addi	sp,sp,32
GAS LISTING /tmp/cc7lLgEN.s 			page 22


 970              		.cfi_def_cfa_offset 0
 971 0458 67800000 		jr	ra
 972              		.cfi_endproc
 973              	.LFE32:
 975              		.align	2
 976              		.globl	_ZdaPv
 978              	_ZdaPv:
 979              	.LFB26:
  86:src/syscall_cpp.cpp ****     mem_free(p);
 980              		.loc 2 86 43 is_stmt 1
 981              		.cfi_startproc
 982              		.cfi_personality 0x9b,DW.ref.__gxx_personality_v0
 983              		.cfi_lsda 0x1b,.LLSDA26
 984              	.LVL83:
 985 045c 130101FF 		addi	sp,sp,-16
 986              		.cfi_def_cfa_offset 16
 987 0460 23341100 		sd	ra,8(sp)
 988 0464 23308100 		sd	s0,0(sp)
 989              		.cfi_offset 1, -8
 990              		.cfi_offset 8, -16
 991 0468 13040101 		addi	s0,sp,16
 992              		.cfi_def_cfa 8, 0
  87:src/syscall_cpp.cpp **** }
 993              		.loc 2 87 5
  87:src/syscall_cpp.cpp **** }
 994              		.loc 2 87 13 is_stmt 0
 995 046c 97000000 		call	mem_free@plt
 995      E7800000 
 996              	.LVL84:
  88:src/syscall_cpp.cpp **** 
 997              		.loc 2 88 1
 998 0474 83308100 		ld	ra,8(sp)
 999              		.cfi_restore 1
 1000 0478 03340100 		ld	s0,0(sp)
 1001              		.cfi_restore 8
 1002              		.cfi_def_cfa 2, 16
 1003 047c 13010101 		addi	sp,sp,16
 1004              		.cfi_def_cfa_offset 0
 1005 0480 67800000 		jr	ra
 1006              		.cfi_endproc
 1007              	.LFE26:
 1008              		.section	.gcc_except_table
 1009              	.LLSDA26:
 1010 0033 FF       		.byte	0xff
 1011 0034 FF       		.byte	0xff
 1012 0035 03       		.byte	0x3
 1013 0036 00       		.byte	0
 1014              		.text
 1016              		.align	2
 1017              		.globl	_ZN9Semaphore4waitEv
 1019              	_ZN9Semaphore4waitEv:
 1020              	.LFB27:
  94:src/syscall_cpp.cpp ****     int res = sem_wait(this->myHandle);
 1021              		.loc 2 94 23 is_stmt 1
 1022              		.cfi_startproc
 1023              	.LVL85:
 1024 0484 130101FF 		addi	sp,sp,-16
GAS LISTING /tmp/cc7lLgEN.s 			page 23


 1025              		.cfi_def_cfa_offset 16
 1026 0488 23341100 		sd	ra,8(sp)
 1027 048c 23308100 		sd	s0,0(sp)
 1028              		.cfi_offset 1, -8
 1029              		.cfi_offset 8, -16
 1030 0490 13040101 		addi	s0,sp,16
 1031              		.cfi_def_cfa 8, 0
  95:src/syscall_cpp.cpp ****     return res;
 1032              		.loc 2 95 5
  95:src/syscall_cpp.cpp ****     return res;
 1033              		.loc 2 95 23 is_stmt 0
 1034 0494 03358500 		ld	a0,8(a0)
 1035              	.LVL86:
 1036 0498 97000000 		call	sem_wait@plt
 1036      E7800000 
 1037              	.LVL87:
  96:src/syscall_cpp.cpp **** }
 1038              		.loc 2 96 5 is_stmt 1
  97:src/syscall_cpp.cpp **** 
 1039              		.loc 2 97 1 is_stmt 0
 1040 04a0 83308100 		ld	ra,8(sp)
 1041              		.cfi_restore 1
 1042 04a4 03340100 		ld	s0,0(sp)
 1043              		.cfi_restore 8
 1044              		.cfi_def_cfa 2, 16
 1045 04a8 13010101 		addi	sp,sp,16
 1046              		.cfi_def_cfa_offset 0
 1047 04ac 67800000 		jr	ra
 1048              		.cfi_endproc
 1049              	.LFE27:
 1051              		.align	2
 1052              		.globl	_ZN9Semaphore6signalEv
 1054              	_ZN9Semaphore6signalEv:
 1055              	.LFB28:
  99:src/syscall_cpp.cpp ****     int res = sem_signal(this->myHandle);
 1056              		.loc 2 99 25 is_stmt 1
 1057              		.cfi_startproc
 1058              	.LVL88:
 1059 04b0 130101FF 		addi	sp,sp,-16
 1060              		.cfi_def_cfa_offset 16
 1061 04b4 23341100 		sd	ra,8(sp)
 1062 04b8 23308100 		sd	s0,0(sp)
 1063              		.cfi_offset 1, -8
 1064              		.cfi_offset 8, -16
 1065 04bc 13040101 		addi	s0,sp,16
 1066              		.cfi_def_cfa 8, 0
 100:src/syscall_cpp.cpp ****     return res;
 1067              		.loc 2 100 5
 100:src/syscall_cpp.cpp ****     return res;
 1068              		.loc 2 100 25 is_stmt 0
 1069 04c0 03358500 		ld	a0,8(a0)
 1070              	.LVL89:
 1071 04c4 97000000 		call	sem_signal@plt
 1071      E7800000 
 1072              	.LVL90:
 101:src/syscall_cpp.cpp **** }
 1073              		.loc 2 101 5 is_stmt 1
GAS LISTING /tmp/cc7lLgEN.s 			page 24


 102:src/syscall_cpp.cpp **** 
 1074              		.loc 2 102 1 is_stmt 0
 1075 04cc 83308100 		ld	ra,8(sp)
 1076              		.cfi_restore 1
 1077 04d0 03340100 		ld	s0,0(sp)
 1078              		.cfi_restore 8
 1079              		.cfi_def_cfa 2, 16
 1080 04d4 13010101 		addi	sp,sp,16
 1081              		.cfi_def_cfa_offset 0
 1082 04d8 67800000 		jr	ra
 1083              		.cfi_endproc
 1084              	.LFE28:
 1086              		.align	2
 1087              		.globl	_ZN7Console4getcEv
 1089              	_ZN7Console4getcEv:
 1090              	.LFB33:
 109:src/syscall_cpp.cpp **** 
 110:src/syscall_cpp.cpp **** 
 111:src/syscall_cpp.cpp **** char Console::getc() {
 1091              		.loc 2 111 22 is_stmt 1
 1092              		.cfi_startproc
 1093 04dc 130101FF 		addi	sp,sp,-16
 1094              		.cfi_def_cfa_offset 16
 1095 04e0 23341100 		sd	ra,8(sp)
 1096 04e4 23308100 		sd	s0,0(sp)
 1097              		.cfi_offset 1, -8
 1098              		.cfi_offset 8, -16
 1099 04e8 13040101 		addi	s0,sp,16
 1100              		.cfi_def_cfa 8, 0
 112:src/syscall_cpp.cpp ****     char c = ::getc();
 1101              		.loc 2 112 5
 1102              		.loc 2 112 20 is_stmt 0
 1103 04ec 97000000 		call	getc@plt
 1103      E7800000 
 1104              	.LVL91:
 113:src/syscall_cpp.cpp ****     return c;
 1105              		.loc 2 113 5 is_stmt 1
 114:src/syscall_cpp.cpp **** }
 1106              		.loc 2 114 1 is_stmt 0
 1107 04f4 83308100 		ld	ra,8(sp)
 1108              		.cfi_restore 1
 1109 04f8 03340100 		ld	s0,0(sp)
 1110              		.cfi_restore 8
 1111              		.cfi_def_cfa 2, 16
 1112 04fc 13010101 		addi	sp,sp,16
 1113              		.cfi_def_cfa_offset 0
 1114 0500 67800000 		jr	ra
 1115              		.cfi_endproc
 1116              	.LFE33:
 1118              		.align	2
 1119              		.globl	_ZN7Console4putcEc
 1121              	_ZN7Console4putcEc:
 1122              	.LFB34:
 115:src/syscall_cpp.cpp **** 
 116:src/syscall_cpp.cpp **** void Console::putc(char c) {
 1123              		.loc 2 116 28 is_stmt 1
 1124              		.cfi_startproc
GAS LISTING /tmp/cc7lLgEN.s 			page 25


 1125              	.LVL92:
 1126 0504 130101FF 		addi	sp,sp,-16
 1127              		.cfi_def_cfa_offset 16
 1128 0508 23341100 		sd	ra,8(sp)
 1129 050c 23308100 		sd	s0,0(sp)
 1130              		.cfi_offset 1, -8
 1131              		.cfi_offset 8, -16
 1132 0510 13040101 		addi	s0,sp,16
 1133              		.cfi_def_cfa 8, 0
 117:src/syscall_cpp.cpp ****     ::putc(c);
 1134              		.loc 2 117 5
 1135              		.loc 2 117 11 is_stmt 0
 1136 0514 97000000 		call	putc@plt
 1136      E7800000 
 1137              	.LVL93:
 118:src/syscall_cpp.cpp **** }
 1138              		.loc 2 118 1
 1139 051c 83308100 		ld	ra,8(sp)
 1140              		.cfi_restore 1
 1141 0520 03340100 		ld	s0,0(sp)
 1142              		.cfi_restore 8
 1143              		.cfi_def_cfa 2, 16
 1144 0524 13010101 		addi	sp,sp,16
 1145              		.cfi_def_cfa_offset 0
 1146 0528 67800000 		jr	ra
 1147              		.cfi_endproc
 1148              	.LFE34:
 1150              		.weak	_ZTV14PeriodicThread
 1151              		.section	.data.rel.ro.local._ZTV14PeriodicThread,"awG",@progbits,_ZTV14PeriodicThread,comdat
 1152              		.align	3
 1155              	_ZTV14PeriodicThread:
 1156 0000 00000000 		.dword	0
 1156      00000000 
 1157 0008 00000000 		.dword	0
 1157      00000000 
 1158 0010 00000000 		.dword	_ZN14PeriodicThreadD1Ev
 1158      00000000 
 1159 0018 00000000 		.dword	_ZN14PeriodicThreadD0Ev
 1159      00000000 
 1160 0020 00000000 		.dword	_ZN6Thread3runEv
 1160      00000000 
 1161 0028 00000000 		.dword	_ZN14PeriodicThread18periodicActivationEv
 1161      00000000 
 1162              		.weak	_ZTV6Thread
 1163              		.section	.data.rel.ro.local._ZTV6Thread,"awG",@progbits,_ZTV6Thread,comdat
 1164              		.align	3
 1167              	_ZTV6Thread:
 1168 0000 00000000 		.dword	0
 1168      00000000 
 1169 0008 00000000 		.dword	0
 1169      00000000 
 1170 0010 00000000 		.dword	_ZN6ThreadD1Ev
 1170      00000000 
 1171 0018 00000000 		.dword	_ZN6ThreadD0Ev
 1171      00000000 
 1172 0020 00000000 		.dword	_ZN6Thread3runEv
 1172      00000000 
GAS LISTING /tmp/cc7lLgEN.s 			page 26


 1173              		.weak	_ZTV9Semaphore
 1174              		.section	.data.rel.ro.local._ZTV9Semaphore,"awG",@progbits,_ZTV9Semaphore,comdat
 1175              		.align	3
 1178              	_ZTV9Semaphore:
 1179 0000 00000000 		.dword	0
 1179      00000000 
 1180 0008 00000000 		.dword	0
 1180      00000000 
 1181 0010 00000000 		.dword	_ZN9SemaphoreD1Ev
 1181      00000000 
 1182 0018 00000000 		.dword	_ZN9SemaphoreD0Ev
 1182      00000000 
 1183              		.text
 1184              	.Letext0:
 1185              		.file 3 "src/../h/../lib/hw.h"
 1186              		.file 4 "src/../h/syscall_c.h"
 1187              		.file 5 "src/../h/./../h/../h/../h/PCB_List.h"
 1188              		.file 6 "src/../h/./PCB.h"
 5856              		.align	3
 5859              	DW.ref.__gxx_personality_v0:
 5860 0000 00000000 		.dword	__gxx_personality_v0
 5860      00000000 
 5861              		.ident	"GCC: (Ubuntu 9.4.0-1ubuntu1~20.04) 9.4.0"
 5862              		.section	.note.GNU-stack,"",@progbits
GAS LISTING /tmp/cc7lLgEN.s 			page 27


DEFINED SYMBOLS
                            *ABS*:0000000000000000 syscall_cpp.cpp
     /tmp/cc7lLgEN.s:10     .text._ZN6Thread3runEv:0000000000000000 _ZN6Thread3runEv
     /tmp/cc7lLgEN.s:14     .text._ZN6Thread3runEv:0000000000000000 .L0 
     /tmp/cc7lLgEN.s:16     .text._ZN6Thread3runEv:0000000000000000 .L0 
     /tmp/cc7lLgEN.s:17     .text._ZN6Thread3runEv:0000000000000004 .L0 
     /tmp/cc7lLgEN.s:19     .text._ZN6Thread3runEv:0000000000000008 .L0 
     /tmp/cc7lLgEN.s:21     .text._ZN6Thread3runEv:000000000000000c .L0 
     /tmp/cc7lLgEN.s:23     .text._ZN6Thread3runEv:000000000000000c .L0 
     /tmp/cc7lLgEN.s:24     .text._ZN6Thread3runEv:0000000000000010 .L0 
     /tmp/cc7lLgEN.s:25     .text._ZN6Thread3runEv:0000000000000010 .L0 
     /tmp/cc7lLgEN.s:27     .text._ZN6Thread3runEv:0000000000000014 .L0 
     /tmp/cc7lLgEN.s:29     .text._ZN6Thread3runEv:0000000000000018 .L0 
     /tmp/cc7lLgEN.s:36     .text._ZN14PeriodicThread18periodicActivationEv:0000000000000000 _ZN14PeriodicThread18periodicActivationEv
     /tmp/cc7lLgEN.s:39     .text._ZN14PeriodicThread18periodicActivationEv:0000000000000000 .L0 
     /tmp/cc7lLgEN.s:41     .text._ZN14PeriodicThread18periodicActivationEv:0000000000000000 .L0 
     /tmp/cc7lLgEN.s:42     .text._ZN14PeriodicThread18periodicActivationEv:0000000000000004 .L0 
     /tmp/cc7lLgEN.s:44     .text._ZN14PeriodicThread18periodicActivationEv:0000000000000008 .L0 
     /tmp/cc7lLgEN.s:46     .text._ZN14PeriodicThread18periodicActivationEv:000000000000000c .L0 
     /tmp/cc7lLgEN.s:48     .text._ZN14PeriodicThread18periodicActivationEv:000000000000000c .L0 
     /tmp/cc7lLgEN.s:49     .text._ZN14PeriodicThread18periodicActivationEv:0000000000000010 .L0 
     /tmp/cc7lLgEN.s:50     .text._ZN14PeriodicThread18periodicActivationEv:0000000000000010 .L0 
     /tmp/cc7lLgEN.s:52     .text._ZN14PeriodicThread18periodicActivationEv:0000000000000014 .L0 
     /tmp/cc7lLgEN.s:54     .text._ZN14PeriodicThread18periodicActivationEv:0000000000000018 .L0 
     /tmp/cc7lLgEN.s:61     .text:0000000000000000 _Z7wrapperPv
     /tmp/cc7lLgEN.s:65     .text:0000000000000000 .L0 
     /tmp/cc7lLgEN.s:67     .text:0000000000000000 .L0 
     /tmp/cc7lLgEN.s:68     .text:0000000000000000 .L0 
     /tmp/cc7lLgEN.s:70     .text:0000000000000004 .L0 
     /tmp/cc7lLgEN.s:71     .text:0000000000000008 .L0 
     /tmp/cc7lLgEN.s:74     .text:0000000000000010 .L0 
     /tmp/cc7lLgEN.s:75     .text:0000000000000010 .L0 
     /tmp/cc7lLgEN.s:77     .text:0000000000000014 .L0 
     /tmp/cc7lLgEN.s:79     .text:0000000000000014 .L0 
     /tmp/cc7lLgEN.s:80     .text:0000000000000014 .L0 
     /tmp/cc7lLgEN.s:83     .text:000000000000001c .L0 
     /tmp/cc7lLgEN.s:86     .text:0000000000000020 .L0 
     /tmp/cc7lLgEN.s:87     .text:0000000000000024 .L0 
     /tmp/cc7lLgEN.s:89     .text:0000000000000028 .L0 
     /tmp/cc7lLgEN.s:90     .text:0000000000000028 .L0 
     /tmp/cc7lLgEN.s:92     .text:000000000000002c .L0 
     /tmp/cc7lLgEN.s:97     .text:0000000000000034 .L0 
     /tmp/cc7lLgEN.s:103    .text:0000000000000034 _ZN6ThreadC2EPFvPvES0_
     /tmp/cc7lLgEN.s:106    .text:0000000000000034 .L0 
     /tmp/cc7lLgEN.s:108    .text:0000000000000034 .L0 
     /tmp/cc7lLgEN.s:109    .text:0000000000000038 .L0 
     /tmp/cc7lLgEN.s:112    .text:0000000000000040 .L0 
     /tmp/cc7lLgEN.s:113    .text:0000000000000040 .L0 
     /tmp/cc7lLgEN.s:115    .text:0000000000000044 .L0 
     /tmp/cc7lLgEN.s:1167   .data.rel.ro.local._ZTV6Thread:0000000000000000 _ZTV6Thread
     /tmp/cc7lLgEN.s:118    .text:0000000000000044 .L0 
     /tmp/cc7lLgEN.s:122    .text:0000000000000050 .L0 
     /tmp/cc7lLgEN.s:123    .text:0000000000000050 .L0 
     /tmp/cc7lLgEN.s:128    .text:000000000000005c .L0 
     /tmp/cc7lLgEN.s:134    .text:0000000000000060 .L0 
     /tmp/cc7lLgEN.s:135    .text:0000000000000064 .L0 
     /tmp/cc7lLgEN.s:136    .text:0000000000000064 .L0 
GAS LISTING /tmp/cc7lLgEN.s 			page 28


     /tmp/cc7lLgEN.s:138    .text:0000000000000068 .L0 
     /tmp/cc7lLgEN.s:139    .text:0000000000000068 .L0 
     /tmp/cc7lLgEN.s:141    .text:000000000000006c .L0 
     /tmp/cc7lLgEN.s:145    .text:0000000000000070 .L0 
     /tmp/cc7lLgEN.s:149    .text:0000000000000070 .L0 
     /tmp/cc7lLgEN.s:150    .text:0000000000000070 .L0 
     /tmp/cc7lLgEN.s:155    .text:000000000000007c .L0 
     /tmp/cc7lLgEN.s:156    .text:000000000000007c .L0 
     /tmp/cc7lLgEN.s:162    .text:0000000000000088 .L0 
     /tmp/cc7lLgEN.s:163    .text:000000000000008c .L0 
     /tmp/cc7lLgEN.s:103    .text:0000000000000034 _ZN6ThreadC1EPFvPvES0_
     /tmp/cc7lLgEN.s:171    .text:000000000000008c _ZN9SemaphoreC2Ej
     /tmp/cc7lLgEN.s:174    .text:000000000000008c .L0 
     /tmp/cc7lLgEN.s:176    .text:000000000000008c .L0 
     /tmp/cc7lLgEN.s:177    .text:0000000000000090 .L0 
     /tmp/cc7lLgEN.s:180    .text:0000000000000098 .L0 
     /tmp/cc7lLgEN.s:181    .text:0000000000000098 .L0 
     /tmp/cc7lLgEN.s:183    .text:000000000000009c .L0 
     /tmp/cc7lLgEN.s:1178   .data.rel.ro.local._ZTV9Semaphore:0000000000000000 _ZTV9Semaphore
     /tmp/cc7lLgEN.s:186    .text:000000000000009c .L0 
     /tmp/cc7lLgEN.s:190    .text:00000000000000a8 .L0 
     /tmp/cc7lLgEN.s:191    .text:00000000000000a8 .L0 
     /tmp/cc7lLgEN.s:196    .text:00000000000000b4 .L0 
     /tmp/cc7lLgEN.s:202    .text:00000000000000b8 .L0 
     /tmp/cc7lLgEN.s:203    .text:00000000000000bc .L0 
     /tmp/cc7lLgEN.s:204    .text:00000000000000bc .L0 
     /tmp/cc7lLgEN.s:206    .text:00000000000000c0 .L0 
     /tmp/cc7lLgEN.s:207    .text:00000000000000c0 .L0 
     /tmp/cc7lLgEN.s:209    .text:00000000000000c4 .L0 
     /tmp/cc7lLgEN.s:213    .text:00000000000000c8 .L0 
     /tmp/cc7lLgEN.s:217    .text:00000000000000c8 .L0 
     /tmp/cc7lLgEN.s:218    .text:00000000000000c8 .L0 
     /tmp/cc7lLgEN.s:223    .text:00000000000000d4 .L0 
     /tmp/cc7lLgEN.s:224    .text:00000000000000d4 .L0 
     /tmp/cc7lLgEN.s:230    .text:00000000000000e0 .L0 
     /tmp/cc7lLgEN.s:231    .text:00000000000000e4 .L0 
     /tmp/cc7lLgEN.s:171    .text:000000000000008c _ZN9SemaphoreC1Ej
     /tmp/cc7lLgEN.s:239    .text:00000000000000e4 _ZN6Thread5startEv
     /tmp/cc7lLgEN.s:242    .text:00000000000000e4 .L0 
     /tmp/cc7lLgEN.s:244    .text:00000000000000e4 .L0 
     /tmp/cc7lLgEN.s:245    .text:00000000000000e4 .L0 
     /tmp/cc7lLgEN.s:246    .text:00000000000000e4 .L0 
     /tmp/cc7lLgEN.s:248    .text:00000000000000e8 .L0 
     /tmp/cc7lLgEN.s:251    .text:00000000000000ec .L0 
     /tmp/cc7lLgEN.s:253    .text:00000000000000f0 .L0 
     /tmp/cc7lLgEN.s:254    .text:00000000000000f4 .L0 
     /tmp/cc7lLgEN.s:257    .text:00000000000000fc .L0 
     /tmp/cc7lLgEN.s:258    .text:00000000000000fc .L0 
     /tmp/cc7lLgEN.s:260    .text:0000000000000100 .L0 
     /tmp/cc7lLgEN.s:262    .text:0000000000000100 .L0 
     /tmp/cc7lLgEN.s:263    .text:0000000000000100 .L0 
     /tmp/cc7lLgEN.s:266    .text:0000000000000108 .L0 
     /tmp/cc7lLgEN.s:267    .text:0000000000000108 .L0 
     /tmp/cc7lLgEN.s:269    .text:000000000000010c .L0 
     /tmp/cc7lLgEN.s:270    .text:0000000000000110 .L0 
     /tmp/cc7lLgEN.s:272    .text:0000000000000114 .L0 
     /tmp/cc7lLgEN.s:273    .text:0000000000000114 .L0 
GAS LISTING /tmp/cc7lLgEN.s 			page 29


     /tmp/cc7lLgEN.s:275    .text:0000000000000118 .L0 
     /tmp/cc7lLgEN.s:279    .text:000000000000011c .L0 
     /tmp/cc7lLgEN.s:281    .text:0000000000000120 .L0 
     /tmp/cc7lLgEN.s:282    .text:0000000000000124 .L0 
     /tmp/cc7lLgEN.s:288    .text:0000000000000124 _ZN6Thread8dispatchEv
     /tmp/cc7lLgEN.s:291    .text:0000000000000124 .L0 
     /tmp/cc7lLgEN.s:292    .text:0000000000000124 .L0 
     /tmp/cc7lLgEN.s:293    .text:0000000000000128 .L0 
     /tmp/cc7lLgEN.s:296    .text:0000000000000130 .L0 
     /tmp/cc7lLgEN.s:297    .text:0000000000000130 .L0 
     /tmp/cc7lLgEN.s:299    .text:0000000000000134 .L0 
     /tmp/cc7lLgEN.s:301    .text:0000000000000134 .L0 
     /tmp/cc7lLgEN.s:302    .text:0000000000000134 .L0 
     /tmp/cc7lLgEN.s:305    .text:000000000000013c .L0 
     /tmp/cc7lLgEN.s:306    .text:0000000000000140 .L0 
     /tmp/cc7lLgEN.s:308    .text:0000000000000144 .L0 
     /tmp/cc7lLgEN.s:309    .text:0000000000000144 .L0 
     /tmp/cc7lLgEN.s:311    .text:0000000000000148 .L0 
     /tmp/cc7lLgEN.s:313    .text:000000000000014c .L0 
     /tmp/cc7lLgEN.s:319    .text:000000000000014c _ZN6Thread5sleepEm
     /tmp/cc7lLgEN.s:322    .text:000000000000014c .L0 
     /tmp/cc7lLgEN.s:324    .text:000000000000014c .L0 
     /tmp/cc7lLgEN.s:325    .text:0000000000000150 .L0 
     /tmp/cc7lLgEN.s:328    .text:0000000000000158 .L0 
     /tmp/cc7lLgEN.s:329    .text:0000000000000158 .L0 
     /tmp/cc7lLgEN.s:331    .text:000000000000015c .L0 
     /tmp/cc7lLgEN.s:333    .text:000000000000015c .L0 
     /tmp/cc7lLgEN.s:334    .text:000000000000015c .L0 
     /tmp/cc7lLgEN.s:337    .text:0000000000000164 .L0 
     /tmp/cc7lLgEN.s:338    .text:0000000000000164 .L0 
     /tmp/cc7lLgEN.s:339    .text:0000000000000168 .L0 
     /tmp/cc7lLgEN.s:341    .text:000000000000016c .L0 
     /tmp/cc7lLgEN.s:342    .text:000000000000016c .L0 
     /tmp/cc7lLgEN.s:344    .text:0000000000000170 .L0 
     /tmp/cc7lLgEN.s:346    .text:0000000000000174 .L0 
     /tmp/cc7lLgEN.s:352    .text:0000000000000174 _Z15periodicWrapperPv
     /tmp/cc7lLgEN.s:355    .text:0000000000000174 .L0 
     /tmp/cc7lLgEN.s:357    .text:0000000000000174 .L0 
     /tmp/cc7lLgEN.s:358    .text:0000000000000178 .L0 
     /tmp/cc7lLgEN.s:363    .text:0000000000000188 .L0 
     /tmp/cc7lLgEN.s:364    .text:0000000000000188 .L0 
     /tmp/cc7lLgEN.s:365    .text:0000000000000188 .L0 
     /tmp/cc7lLgEN.s:366    .text:0000000000000188 .L0 
     /tmp/cc7lLgEN.s:368    .text:000000000000018c .L0 
     /tmp/cc7lLgEN.s:370    .text:000000000000018c .L0 
     /tmp/cc7lLgEN.s:371    .text:000000000000018c .L0 
     /tmp/cc7lLgEN.s:374    .text:0000000000000190 .L0 
     /tmp/cc7lLgEN.s:375    .text:0000000000000190 .L0 
     /tmp/cc7lLgEN.s:378    .text:0000000000000194 .L0 
     /tmp/cc7lLgEN.s:382    .text:0000000000000198 .L0 
     /tmp/cc7lLgEN.s:383    .text:0000000000000198 .L0 
     /tmp/cc7lLgEN.s:384    .text:0000000000000198 .L0 
     /tmp/cc7lLgEN.s:387    .text:00000000000001a0 .L0 
     /tmp/cc7lLgEN.s:391    .text:00000000000001a8 .L0 
     /tmp/cc7lLgEN.s:392    .text:00000000000001a8 .L0 
     /tmp/cc7lLgEN.s:396    .text:00000000000001b4 .L0 
     /tmp/cc7lLgEN.s:400    .text:00000000000001b8 .L0 
GAS LISTING /tmp/cc7lLgEN.s 			page 30


     /tmp/cc7lLgEN.s:401    .text:00000000000001bc .L0 
     /tmp/cc7lLgEN.s:403    .text:00000000000001c0 .L0 
     /tmp/cc7lLgEN.s:404    .text:00000000000001c0 .L0 
     /tmp/cc7lLgEN.s:406    .text:00000000000001c4 .L0 
     /tmp/cc7lLgEN.s:409    .text:00000000000001c8 .L0 
     /tmp/cc7lLgEN.s:412    .text:00000000000001cc .L0 
     /tmp/cc7lLgEN.s:414    .text:00000000000001d0 .L0 
     /tmp/cc7lLgEN.s:420    .text:00000000000001d0 _ZN6ThreadC2Ev
     /tmp/cc7lLgEN.s:423    .text:00000000000001d0 .L0 
     /tmp/cc7lLgEN.s:425    .text:00000000000001d0 .L0 
     /tmp/cc7lLgEN.s:426    .text:00000000000001d4 .L0 
     /tmp/cc7lLgEN.s:429    .text:00000000000001dc .L0 
     /tmp/cc7lLgEN.s:430    .text:00000000000001dc .L0 
     /tmp/cc7lLgEN.s:432    .text:00000000000001e0 .L0 
     /tmp/cc7lLgEN.s:435    .text:00000000000001e0 .L0 
     /tmp/cc7lLgEN.s:439    .text:00000000000001ec .L0 
     /tmp/cc7lLgEN.s:440    .text:00000000000001ec .L0 
     /tmp/cc7lLgEN.s:447    .text:0000000000000204 .L0 
     /tmp/cc7lLgEN.s:453    .text:0000000000000208 .L0 
     /tmp/cc7lLgEN.s:454    .text:000000000000020c .L0 
     /tmp/cc7lLgEN.s:455    .text:000000000000020c .L0 
     /tmp/cc7lLgEN.s:457    .text:0000000000000210 .L0 
     /tmp/cc7lLgEN.s:458    .text:0000000000000210 .L0 
     /tmp/cc7lLgEN.s:460    .text:0000000000000214 .L0 
     /tmp/cc7lLgEN.s:464    .text:0000000000000218 .L0 
     /tmp/cc7lLgEN.s:468    .text:0000000000000218 .L0 
     /tmp/cc7lLgEN.s:469    .text:0000000000000218 .L0 
     /tmp/cc7lLgEN.s:474    .text:0000000000000224 .L0 
     /tmp/cc7lLgEN.s:475    .text:0000000000000224 .L0 
     /tmp/cc7lLgEN.s:481    .text:0000000000000230 .L0 
     /tmp/cc7lLgEN.s:482    .text:0000000000000234 .L0 
     /tmp/cc7lLgEN.s:420    .text:00000000000001d0 _ZN6ThreadC1Ev
     /tmp/cc7lLgEN.s:490    .text:0000000000000234 _Znwm
     /tmp/cc7lLgEN.s:493    .text:0000000000000234 .L0 
     /tmp/cc7lLgEN.s:495    .text:0000000000000234 .L0 
     /tmp/cc7lLgEN.s:496    .text:0000000000000238 .L0 
     /tmp/cc7lLgEN.s:499    .text:0000000000000240 .L0 
     /tmp/cc7lLgEN.s:500    .text:0000000000000240 .L0 
     /tmp/cc7lLgEN.s:502    .text:0000000000000244 .L0 
     /tmp/cc7lLgEN.s:504    .text:0000000000000244 .L0 
     /tmp/cc7lLgEN.s:505    .text:0000000000000244 .L0 
     /tmp/cc7lLgEN.s:508    .text:000000000000024c .L0 
     /tmp/cc7lLgEN.s:509    .text:000000000000024c .L0 
     /tmp/cc7lLgEN.s:510    .text:0000000000000250 .L0 
     /tmp/cc7lLgEN.s:512    .text:0000000000000254 .L0 
     /tmp/cc7lLgEN.s:513    .text:0000000000000254 .L0 
     /tmp/cc7lLgEN.s:515    .text:0000000000000258 .L0 
     /tmp/cc7lLgEN.s:517    .text:000000000000025c .L0 
     /tmp/cc7lLgEN.s:523    .text:000000000000025c _Znam
     /tmp/cc7lLgEN.s:526    .text:000000000000025c .L0 
     /tmp/cc7lLgEN.s:528    .text:000000000000025c .L0 
     /tmp/cc7lLgEN.s:529    .text:0000000000000260 .L0 
     /tmp/cc7lLgEN.s:532    .text:0000000000000268 .L0 
     /tmp/cc7lLgEN.s:533    .text:0000000000000268 .L0 
     /tmp/cc7lLgEN.s:535    .text:000000000000026c .L0 
     /tmp/cc7lLgEN.s:537    .text:000000000000026c .L0 
     /tmp/cc7lLgEN.s:538    .text:000000000000026c .L0 
GAS LISTING /tmp/cc7lLgEN.s 			page 31


     /tmp/cc7lLgEN.s:541    .text:0000000000000274 .L0 
     /tmp/cc7lLgEN.s:542    .text:0000000000000274 .L0 
     /tmp/cc7lLgEN.s:543    .text:0000000000000278 .L0 
     /tmp/cc7lLgEN.s:545    .text:000000000000027c .L0 
     /tmp/cc7lLgEN.s:546    .text:000000000000027c .L0 
     /tmp/cc7lLgEN.s:548    .text:0000000000000280 .L0 
     /tmp/cc7lLgEN.s:550    .text:0000000000000284 .L0 
     /tmp/cc7lLgEN.s:556    .text:0000000000000284 _ZdlPv
     /tmp/cc7lLgEN.s:559    .text:0000000000000284 .L0 
     /tmp/cc7lLgEN.s:5859   .data.rel.local.DW.ref.__gxx_personality_v0:0000000000000000 DW.ref.__gxx_personality_v0
     /tmp/cc7lLgEN.s:563    .text:0000000000000284 .L0 
     /tmp/cc7lLgEN.s:564    .text:0000000000000288 .L0 
     /tmp/cc7lLgEN.s:567    .text:0000000000000290 .L0 
     /tmp/cc7lLgEN.s:568    .text:0000000000000290 .L0 
     /tmp/cc7lLgEN.s:570    .text:0000000000000294 .L0 
     /tmp/cc7lLgEN.s:572    .text:0000000000000294 .L0 
     /tmp/cc7lLgEN.s:573    .text:0000000000000294 .L0 
     /tmp/cc7lLgEN.s:576    .text:000000000000029c .L0 
     /tmp/cc7lLgEN.s:577    .text:00000000000002a0 .L0 
     /tmp/cc7lLgEN.s:579    .text:00000000000002a4 .L0 
     /tmp/cc7lLgEN.s:580    .text:00000000000002a4 .L0 
     /tmp/cc7lLgEN.s:582    .text:00000000000002a8 .L0 
     /tmp/cc7lLgEN.s:584    .text:00000000000002ac .L0 
     /tmp/cc7lLgEN.s:598    .text:00000000000002ac _ZN6ThreadD2Ev
     /tmp/cc7lLgEN.s:601    .text:00000000000002ac .L0 
     /tmp/cc7lLgEN.s:604    .text:00000000000002ac .L0 
     /tmp/cc7lLgEN.s:605    .text:00000000000002ac .L0 
     /tmp/cc7lLgEN.s:608    .text:00000000000002b8 .L0 
     /tmp/cc7lLgEN.s:609    .text:00000000000002b8 .L0 
     /tmp/cc7lLgEN.s:612    .text:00000000000002bc .L0 
     /tmp/cc7lLgEN.s:615    .text:00000000000002c0 .L0 
     /tmp/cc7lLgEN.s:616    .text:00000000000002c4 .L0 
     /tmp/cc7lLgEN.s:619    .text:00000000000002cc .L0 
     /tmp/cc7lLgEN.s:620    .text:00000000000002cc .L0 
     /tmp/cc7lLgEN.s:622    .text:00000000000002d0 .L0 
     /tmp/cc7lLgEN.s:625    .text:00000000000002d0 .L0 
     /tmp/cc7lLgEN.s:629    .text:00000000000002d8 .L0 
     /tmp/cc7lLgEN.s:630    .text:00000000000002dc .L0 
     /tmp/cc7lLgEN.s:632    .text:00000000000002e0 .L0 
     /tmp/cc7lLgEN.s:633    .text:00000000000002e0 .L0 
     /tmp/cc7lLgEN.s:635    .text:00000000000002e4 .L0 
     /tmp/cc7lLgEN.s:639    .text:00000000000002ec .L0 
     /tmp/cc7lLgEN.s:598    .text:00000000000002ac _ZN6ThreadD1Ev
     /tmp/cc7lLgEN.s:647    .text:00000000000002ec _ZN14PeriodicThreadC2Em
     /tmp/cc7lLgEN.s:650    .text:00000000000002ec .L0 
     /tmp/cc7lLgEN.s:654    .text:00000000000002ec .L0 
     /tmp/cc7lLgEN.s:655    .text:00000000000002f0 .L0 
     /tmp/cc7lLgEN.s:660    .text:0000000000000300 .L0 
     /tmp/cc7lLgEN.s:661    .text:0000000000000300 .L0 
     /tmp/cc7lLgEN.s:662    .text:0000000000000300 .L0 
     /tmp/cc7lLgEN.s:663    .text:0000000000000300 .L0 
     /tmp/cc7lLgEN.s:665    .text:0000000000000304 .L0 
     /tmp/cc7lLgEN.s:670    .text:000000000000030c .L0 
     /tmp/cc7lLgEN.s:679    .text:0000000000000324 .L0 
     /tmp/cc7lLgEN.s:1155   .data.rel.ro.local._ZTV14PeriodicThread:0000000000000000 _ZTV14PeriodicThread
     /tmp/cc7lLgEN.s:687    .text:0000000000000344 .L0 
     /tmp/cc7lLgEN.s:688    .text:0000000000000344 .L0 
GAS LISTING /tmp/cc7lLgEN.s 			page 32


     /tmp/cc7lLgEN.s:698    .text:0000000000000358 .L0 
     /tmp/cc7lLgEN.s:709    .text:0000000000000370 .L0 
     /tmp/cc7lLgEN.s:710    .text:0000000000000374 .L0 
     /tmp/cc7lLgEN.s:712    .text:0000000000000378 .L0 
     /tmp/cc7lLgEN.s:713    .text:0000000000000378 .L0 
     /tmp/cc7lLgEN.s:715    .text:000000000000037c .L0 
     /tmp/cc7lLgEN.s:718    .text:0000000000000380 .L0 
     /tmp/cc7lLgEN.s:721    .text:0000000000000384 .L0 
     /tmp/cc7lLgEN.s:723    .text:0000000000000388 .L0 
     /tmp/cc7lLgEN.s:647    .text:00000000000002ec _ZN14PeriodicThreadC1Em
     /tmp/cc7lLgEN.s:751    .text._ZN14PeriodicThreadD2Ev:0000000000000000 _ZN14PeriodicThreadD2Ev
     /tmp/cc7lLgEN.s:754    .text._ZN14PeriodicThreadD2Ev:0000000000000000 .L0 
     /tmp/cc7lLgEN.s:756    .text._ZN14PeriodicThreadD2Ev:0000000000000000 .L0 
     /tmp/cc7lLgEN.s:757    .text._ZN14PeriodicThreadD2Ev:0000000000000004 .L0 
     /tmp/cc7lLgEN.s:760    .text._ZN14PeriodicThreadD2Ev:000000000000000c .L0 
     /tmp/cc7lLgEN.s:761    .text._ZN14PeriodicThreadD2Ev:000000000000000c .L0 
     /tmp/cc7lLgEN.s:763    .text._ZN14PeriodicThreadD2Ev:0000000000000010 .L0 
     /tmp/cc7lLgEN.s:766    .text._ZN14PeriodicThreadD2Ev:0000000000000010 .L0 
     /tmp/cc7lLgEN.s:772    .text._ZN14PeriodicThreadD2Ev:0000000000000028 .L0 
     /tmp/cc7lLgEN.s:774    .text._ZN14PeriodicThreadD2Ev:000000000000002c .L0 
     /tmp/cc7lLgEN.s:775    .text._ZN14PeriodicThreadD2Ev:000000000000002c .L0 
     /tmp/cc7lLgEN.s:777    .text._ZN14PeriodicThreadD2Ev:0000000000000030 .L0 
     /tmp/cc7lLgEN.s:779    .text._ZN14PeriodicThreadD2Ev:0000000000000034 .L0 
     /tmp/cc7lLgEN.s:751    .text._ZN14PeriodicThreadD2Ev:0000000000000000 _ZN14PeriodicThreadD1Ev
     /tmp/cc7lLgEN.s:788    .text._ZN14PeriodicThreadD0Ev:0000000000000000 _ZN14PeriodicThreadD0Ev
     /tmp/cc7lLgEN.s:791    .text._ZN14PeriodicThreadD0Ev:0000000000000000 .L0 
     /tmp/cc7lLgEN.s:793    .text._ZN14PeriodicThreadD0Ev:0000000000000000 .L0 
     /tmp/cc7lLgEN.s:794    .text._ZN14PeriodicThreadD0Ev:0000000000000004 .L0 
     /tmp/cc7lLgEN.s:798    .text._ZN14PeriodicThreadD0Ev:0000000000000010 .L0 
     /tmp/cc7lLgEN.s:799    .text._ZN14PeriodicThreadD0Ev:0000000000000010 .L0 
     /tmp/cc7lLgEN.s:800    .text._ZN14PeriodicThreadD0Ev:0000000000000010 .L0 
     /tmp/cc7lLgEN.s:802    .text._ZN14PeriodicThreadD0Ev:0000000000000014 .L0 
     /tmp/cc7lLgEN.s:808    .text._ZN14PeriodicThreadD0Ev:0000000000000018 .L0 
     /tmp/cc7lLgEN.s:818    .text._ZN14PeriodicThreadD0Ev:000000000000003c .L0 
     /tmp/cc7lLgEN.s:820    .text._ZN14PeriodicThreadD0Ev:0000000000000040 .L0 
     /tmp/cc7lLgEN.s:821    .text._ZN14PeriodicThreadD0Ev:0000000000000040 .L0 
     /tmp/cc7lLgEN.s:823    .text._ZN14PeriodicThreadD0Ev:0000000000000044 .L0 
     /tmp/cc7lLgEN.s:826    .text._ZN14PeriodicThreadD0Ev:0000000000000048 .L0 
     /tmp/cc7lLgEN.s:828    .text._ZN14PeriodicThreadD0Ev:000000000000004c .L0 
     /tmp/cc7lLgEN.s:835    .text:0000000000000388 _ZN6ThreadD0Ev
     /tmp/cc7lLgEN.s:838    .text:0000000000000388 .L0 
     /tmp/cc7lLgEN.s:840    .text:0000000000000388 .L0 
     /tmp/cc7lLgEN.s:841    .text:000000000000038c .L0 
     /tmp/cc7lLgEN.s:845    .text:0000000000000398 .L0 
     /tmp/cc7lLgEN.s:846    .text:0000000000000398 .L0 
     /tmp/cc7lLgEN.s:847    .text:0000000000000398 .L0 
     /tmp/cc7lLgEN.s:849    .text:000000000000039c .L0 
     /tmp/cc7lLgEN.s:852    .text:00000000000003a0 .L0 
     /tmp/cc7lLgEN.s:858    .text:00000000000003b8 .L0 
     /tmp/cc7lLgEN.s:860    .text:00000000000003bc .L0 
     /tmp/cc7lLgEN.s:861    .text:00000000000003bc .L0 
     /tmp/cc7lLgEN.s:863    .text:00000000000003c0 .L0 
     /tmp/cc7lLgEN.s:866    .text:00000000000003c4 .L0 
     /tmp/cc7lLgEN.s:868    .text:00000000000003c8 .L0 
     /tmp/cc7lLgEN.s:874    .text:00000000000003c8 _ZN9SemaphoreD2Ev
     /tmp/cc7lLgEN.s:877    .text:00000000000003c8 .L0 
     /tmp/cc7lLgEN.s:881    .text:00000000000003c8 .L0 
GAS LISTING /tmp/cc7lLgEN.s 			page 33


     /tmp/cc7lLgEN.s:882    .text:00000000000003cc .L0 
     /tmp/cc7lLgEN.s:886    .text:00000000000003d8 .L0 
     /tmp/cc7lLgEN.s:887    .text:00000000000003d8 .L0 
     /tmp/cc7lLgEN.s:888    .text:00000000000003d8 .L0 
     /tmp/cc7lLgEN.s:890    .text:00000000000003dc .L0 
     /tmp/cc7lLgEN.s:894    .text:00000000000003e0 .L0 
     /tmp/cc7lLgEN.s:897    .text:00000000000003ec .L0 
     /tmp/cc7lLgEN.s:898    .text:00000000000003ec .L0 
     /tmp/cc7lLgEN.s:903    .text:00000000000003f8 .L0 
     /tmp/cc7lLgEN.s:904    .text:00000000000003f8 .L0 
     /tmp/cc7lLgEN.s:906    .text:00000000000003fc .L0 
     /tmp/cc7lLgEN.s:908    .text:0000000000000400 .L0 
     /tmp/cc7lLgEN.s:913    .text:0000000000000408 .L0 
     /tmp/cc7lLgEN.s:914    .text:000000000000040c .L0 
     /tmp/cc7lLgEN.s:916    .text:0000000000000410 .L0 
     /tmp/cc7lLgEN.s:917    .text:0000000000000410 .L0 
     /tmp/cc7lLgEN.s:919    .text:0000000000000414 .L0 
     /tmp/cc7lLgEN.s:922    .text:0000000000000418 .L0 
     /tmp/cc7lLgEN.s:924    .text:000000000000041c .L0 
     /tmp/cc7lLgEN.s:874    .text:00000000000003c8 _ZN9SemaphoreD1Ev
     /tmp/cc7lLgEN.s:939    .text:000000000000041c _ZN9SemaphoreD0Ev
     /tmp/cc7lLgEN.s:942    .text:000000000000041c .L0 
     /tmp/cc7lLgEN.s:944    .text:000000000000041c .L0 
     /tmp/cc7lLgEN.s:945    .text:0000000000000420 .L0 
     /tmp/cc7lLgEN.s:949    .text:000000000000042c .L0 
     /tmp/cc7lLgEN.s:950    .text:000000000000042c .L0 
     /tmp/cc7lLgEN.s:951    .text:000000000000042c .L0 
     /tmp/cc7lLgEN.s:953    .text:0000000000000430 .L0 
     /tmp/cc7lLgEN.s:956    .text:0000000000000434 .L0 
     /tmp/cc7lLgEN.s:962    .text:000000000000044c .L0 
     /tmp/cc7lLgEN.s:964    .text:0000000000000450 .L0 
     /tmp/cc7lLgEN.s:965    .text:0000000000000450 .L0 
     /tmp/cc7lLgEN.s:967    .text:0000000000000454 .L0 
     /tmp/cc7lLgEN.s:970    .text:0000000000000458 .L0 
     /tmp/cc7lLgEN.s:972    .text:000000000000045c .L0 
     /tmp/cc7lLgEN.s:978    .text:000000000000045c _ZdaPv
     /tmp/cc7lLgEN.s:981    .text:000000000000045c .L0 
     /tmp/cc7lLgEN.s:985    .text:000000000000045c .L0 
     /tmp/cc7lLgEN.s:986    .text:0000000000000460 .L0 
     /tmp/cc7lLgEN.s:989    .text:0000000000000468 .L0 
     /tmp/cc7lLgEN.s:990    .text:0000000000000468 .L0 
     /tmp/cc7lLgEN.s:992    .text:000000000000046c .L0 
     /tmp/cc7lLgEN.s:994    .text:000000000000046c .L0 
     /tmp/cc7lLgEN.s:995    .text:000000000000046c .L0 
     /tmp/cc7lLgEN.s:998    .text:0000000000000474 .L0 
     /tmp/cc7lLgEN.s:999    .text:0000000000000478 .L0 
     /tmp/cc7lLgEN.s:1001   .text:000000000000047c .L0 
     /tmp/cc7lLgEN.s:1002   .text:000000000000047c .L0 
     /tmp/cc7lLgEN.s:1004   .text:0000000000000480 .L0 
     /tmp/cc7lLgEN.s:1006   .text:0000000000000484 .L0 
     /tmp/cc7lLgEN.s:1019   .text:0000000000000484 _ZN9Semaphore4waitEv
     /tmp/cc7lLgEN.s:1022   .text:0000000000000484 .L0 
     /tmp/cc7lLgEN.s:1024   .text:0000000000000484 .L0 
     /tmp/cc7lLgEN.s:1025   .text:0000000000000488 .L0 
     /tmp/cc7lLgEN.s:1028   .text:0000000000000490 .L0 
     /tmp/cc7lLgEN.s:1029   .text:0000000000000490 .L0 
     /tmp/cc7lLgEN.s:1031   .text:0000000000000494 .L0 
GAS LISTING /tmp/cc7lLgEN.s 			page 34


     /tmp/cc7lLgEN.s:1033   .text:0000000000000494 .L0 
     /tmp/cc7lLgEN.s:1034   .text:0000000000000494 .L0 
     /tmp/cc7lLgEN.s:1039   .text:00000000000004a0 .L0 
     /tmp/cc7lLgEN.s:1040   .text:00000000000004a0 .L0 
     /tmp/cc7lLgEN.s:1041   .text:00000000000004a4 .L0 
     /tmp/cc7lLgEN.s:1043   .text:00000000000004a8 .L0 
     /tmp/cc7lLgEN.s:1044   .text:00000000000004a8 .L0 
     /tmp/cc7lLgEN.s:1046   .text:00000000000004ac .L0 
     /tmp/cc7lLgEN.s:1048   .text:00000000000004b0 .L0 
     /tmp/cc7lLgEN.s:1054   .text:00000000000004b0 _ZN9Semaphore6signalEv
     /tmp/cc7lLgEN.s:1057   .text:00000000000004b0 .L0 
     /tmp/cc7lLgEN.s:1059   .text:00000000000004b0 .L0 
     /tmp/cc7lLgEN.s:1060   .text:00000000000004b4 .L0 
     /tmp/cc7lLgEN.s:1063   .text:00000000000004bc .L0 
     /tmp/cc7lLgEN.s:1064   .text:00000000000004bc .L0 
     /tmp/cc7lLgEN.s:1066   .text:00000000000004c0 .L0 
     /tmp/cc7lLgEN.s:1068   .text:00000000000004c0 .L0 
     /tmp/cc7lLgEN.s:1069   .text:00000000000004c0 .L0 
     /tmp/cc7lLgEN.s:1074   .text:00000000000004cc .L0 
     /tmp/cc7lLgEN.s:1075   .text:00000000000004cc .L0 
     /tmp/cc7lLgEN.s:1076   .text:00000000000004d0 .L0 
     /tmp/cc7lLgEN.s:1078   .text:00000000000004d4 .L0 
     /tmp/cc7lLgEN.s:1079   .text:00000000000004d4 .L0 
     /tmp/cc7lLgEN.s:1081   .text:00000000000004d8 .L0 
     /tmp/cc7lLgEN.s:1083   .text:00000000000004dc .L0 
     /tmp/cc7lLgEN.s:1089   .text:00000000000004dc _ZN7Console4getcEv
     /tmp/cc7lLgEN.s:1092   .text:00000000000004dc .L0 
     /tmp/cc7lLgEN.s:1093   .text:00000000000004dc .L0 
     /tmp/cc7lLgEN.s:1094   .text:00000000000004e0 .L0 
     /tmp/cc7lLgEN.s:1097   .text:00000000000004e8 .L0 
     /tmp/cc7lLgEN.s:1098   .text:00000000000004e8 .L0 
     /tmp/cc7lLgEN.s:1100   .text:00000000000004ec .L0 
     /tmp/cc7lLgEN.s:1102   .text:00000000000004ec .L0 
     /tmp/cc7lLgEN.s:1103   .text:00000000000004ec .L0 
     /tmp/cc7lLgEN.s:1106   .text:00000000000004f4 .L0 
     /tmp/cc7lLgEN.s:1107   .text:00000000000004f4 .L0 
     /tmp/cc7lLgEN.s:1108   .text:00000000000004f8 .L0 
     /tmp/cc7lLgEN.s:1110   .text:00000000000004fc .L0 
     /tmp/cc7lLgEN.s:1111   .text:00000000000004fc .L0 
     /tmp/cc7lLgEN.s:1113   .text:0000000000000500 .L0 
     /tmp/cc7lLgEN.s:1115   .text:0000000000000504 .L0 
     /tmp/cc7lLgEN.s:1121   .text:0000000000000504 _ZN7Console4putcEc
     /tmp/cc7lLgEN.s:1124   .text:0000000000000504 .L0 
     /tmp/cc7lLgEN.s:1126   .text:0000000000000504 .L0 
     /tmp/cc7lLgEN.s:1127   .text:0000000000000508 .L0 
     /tmp/cc7lLgEN.s:1130   .text:0000000000000510 .L0 
     /tmp/cc7lLgEN.s:1131   .text:0000000000000510 .L0 
     /tmp/cc7lLgEN.s:1133   .text:0000000000000514 .L0 
     /tmp/cc7lLgEN.s:1135   .text:0000000000000514 .L0 
     /tmp/cc7lLgEN.s:1136   .text:0000000000000514 .L0 
     /tmp/cc7lLgEN.s:1139   .text:000000000000051c .L0 
     /tmp/cc7lLgEN.s:1140   .text:0000000000000520 .L0 
     /tmp/cc7lLgEN.s:1142   .text:0000000000000524 .L0 
     /tmp/cc7lLgEN.s:1143   .text:0000000000000524 .L0 
     /tmp/cc7lLgEN.s:1145   .text:0000000000000528 .L0 
     /tmp/cc7lLgEN.s:1147   .text:000000000000052c .L0 
     /tmp/cc7lLgEN.s:32     .text._ZN6Thread3runEv:0000000000000018 .L0 
GAS LISTING /tmp/cc7lLgEN.s 			page 35


     /tmp/cc7lLgEN.s:57     .text._ZN14PeriodicThread18periodicActivationEv:0000000000000018 .L0 
     /tmp/cc7lLgEN.s:1189   .text:000000000000052c .L0 
     /tmp/cc7lLgEN.s:784    .text._ZN14PeriodicThreadD2Ev:0000000000000034 .L0 
     /tmp/cc7lLgEN.s:831    .text._ZN14PeriodicThreadD0Ev:000000000000004c .L0 
     /tmp/cc7lLgEN.s:118    .text:0000000000000044 .L0 
     /tmp/cc7lLgEN.s:186    .text:000000000000009c .L0 
     /tmp/cc7lLgEN.s:435    .text:00000000000001e0 .L0 
     /tmp/cc7lLgEN.s:441    .text:00000000000001f0 .L0 
     /tmp/cc7lLgEN.s:605    .text:00000000000002ac .L0 
     /tmp/cc7lLgEN.s:679    .text:0000000000000324 .L0 
     /tmp/cc7lLgEN.s:684    .text:0000000000000338 .L0 
     /tmp/cc7lLgEN.s:894    .text:00000000000003e0 .L0 
     /tmp/cc7lLgEN.s:95     .text:0000000000000030 .L8
     /tmp/cc7lLgEN.s:144    .text:0000000000000070 .L14
     /tmp/cc7lLgEN.s:130    .text:0000000000000060 .L11
     /tmp/cc7lLgEN.s:212    .text:00000000000000c8 .L18
     /tmp/cc7lLgEN.s:198    .text:00000000000000b8 .L15
     /tmp/cc7lLgEN.s:277    .text:000000000000011c .L21
     /tmp/cc7lLgEN.s:398    .text:00000000000001b8 .L30
     /tmp/cc7lLgEN.s:380    .text:0000000000000198 .L32
     /tmp/cc7lLgEN.s:463    .text:0000000000000218 .L37
     /tmp/cc7lLgEN.s:449    .text:0000000000000208 .L34
     /tmp/cc7lLgEN.s:637    .text:00000000000002e8 .L47
     /tmp/cc7lLgEN.s:706    .text:0000000000000370 .L55
     /tmp/cc7lLgEN.s:910    .text:0000000000000408 .L62
     /tmp/cc7lLgEN.s:672    .text:0000000000000310 .LEHB0
     /tmp/cc7lLgEN.s:648    .text:00000000000002ec .LFB14
     /tmp/cc7lLgEN.s:683    .text:0000000000000338 .LEHE0
     /tmp/cc7lLgEN.s:689    .text:0000000000000348 .LEHB1
     /tmp/cc7lLgEN.s:692    .text:0000000000000350 .LEHE1
     /tmp/cc7lLgEN.s:694    .text:0000000000000354 .L52
     /tmp/cc7lLgEN.s:702    .text:0000000000000368 .LEHB2
     /tmp/cc7lLgEN.s:705    .text:0000000000000370 .LEHE2
     /tmp/cc7lLgEN.s:766    .text._ZN14PeriodicThreadD2Ev:0000000000000010 .L0 
     /tmp/cc7lLgEN.s:808    .text._ZN14PeriodicThreadD0Ev:0000000000000018 .L0 
     /tmp/cc7lLgEN.s:3565   .debug_abbrev:0000000000000000 .Ldebug_abbrev0
     /tmp/cc7lLgEN.s:5775   .debug_str:0000000000000915 .LASF185
     /tmp/cc7lLgEN.s:5593   .debug_str:0000000000000421 .LASF186
     /tmp/cc7lLgEN.s:5789   .debug_str:0000000000000a3d .LASF187
     /tmp/cc7lLgEN.s:5415   .debug_ranges:0000000000000000 .Ldebug_ranges0
     /tmp/cc7lLgEN.s:5447   .debug_line:0000000000000000 .Ldebug_line0
     /tmp/cc7lLgEN.s:5583   .debug_str:00000000000003e9 .LASF0
     /tmp/cc7lLgEN.s:5611   .debug_str:00000000000004cd .LASF1
     /tmp/cc7lLgEN.s:5705   .debug_str:0000000000000752 .LASF2
     /tmp/cc7lLgEN.s:5713   .debug_str:0000000000000791 .LASF4
     /tmp/cc7lLgEN.s:5595   .debug_str:0000000000000435 .LASF3
     /tmp/cc7lLgEN.s:5463   .debug_str:000000000000006b .LASF5
     /tmp/cc7lLgEN.s:5685   .debug_str:00000000000006ca .LASF6
     /tmp/cc7lLgEN.s:5675   .debug_str:0000000000000684 .LASF7
     /tmp/cc7lLgEN.s:5603   .debug_str:0000000000000493 .LASF8
     /tmp/cc7lLgEN.s:5551   .debug_str:00000000000002cf .LASF9
     /tmp/cc7lLgEN.s:5561   .debug_str:0000000000000339 .LASF10
     /tmp/cc7lLgEN.s:5501   .debug_str:0000000000000175 .LASF11
     /tmp/cc7lLgEN.s:5545   .debug_str:00000000000002a4 .LASF12
     /tmp/cc7lLgEN.s:5515   .debug_str:00000000000001da .LASF13
     /tmp/cc7lLgEN.s:5499   .debug_str:0000000000000165 .LASF14
     /tmp/cc7lLgEN.s:5741   .debug_str:000000000000083a .LASF15
GAS LISTING /tmp/cc7lLgEN.s 			page 36


     /tmp/cc7lLgEN.s:5537   .debug_str:000000000000026a .LASF16
     /tmp/cc7lLgEN.s:5735   .debug_str:000000000000081a .LASF17
     /tmp/cc7lLgEN.s:5665   .debug_str:000000000000063a .LASF18
     /tmp/cc7lLgEN.s:5651   .debug_str:00000000000005e8 .LASF21
     /tmp/cc7lLgEN.s:5481   .debug_str:0000000000000107 .LASF19
     /tmp/cc7lLgEN.s:5815   .debug_str:0000000000000b0c .LASF20
     /tmp/cc7lLgEN.s:5607   .debug_str:00000000000004bf .LASF22
     /tmp/cc7lLgEN.s:5739   .debug_str:0000000000000835 .LASF23
     /tmp/cc7lLgEN.s:5829   .debug_str:0000000000000b60 .LASF24
     /tmp/cc7lLgEN.s:5779   .debug_str:00000000000009ec .LASF188
     /tmp/cc7lLgEN.s:5511   .debug_str:00000000000001bf .LASF25
     /tmp/cc7lLgEN.s:5503   .debug_str:0000000000000184 .LASF26
     /tmp/cc7lLgEN.s:5749   .debug_str:000000000000086b .LASF189
     /tmp/cc7lLgEN.s:5819   .debug_str:0000000000000b1c .LASF28
     /tmp/cc7lLgEN.s:5627   .debug_str:0000000000000556 .LASF33
     /tmp/cc7lLgEN.s:5541   .debug_str:000000000000028c .LASF35
     /tmp/cc7lLgEN.s:5531   .debug_str:0000000000000239 .LASF27
     /tmp/cc7lLgEN.s:5785   .debug_str:0000000000000a12 .LASF31
     /tmp/cc7lLgEN.s:5645   .debug_str:00000000000005ab .LASF96
     /tmp/cc7lLgEN.s:5663   .debug_str:0000000000000635 .LASF190
     /tmp/cc7lLgEN.s:5771   .debug_str:00000000000008fa .LASF29
     /tmp/cc7lLgEN.s:5487   .debug_str:000000000000011b .LASF30
     /tmp/cc7lLgEN.s:5565   .debug_str:0000000000000355 .LASF32
     /tmp/cc7lLgEN.s:5563   .debug_str:0000000000000347 .LASF34
     /tmp/cc7lLgEN.s:5613   .debug_str:00000000000004e0 .LASF36
     /tmp/cc7lLgEN.s:5793   .debug_str:0000000000000a6c .LASF37
     /tmp/cc7lLgEN.s:5553   .debug_str:00000000000002df .LASF38
     /tmp/cc7lLgEN.s:5581   .debug_str:00000000000003db .LASF39
     /tmp/cc7lLgEN.s:5605   .debug_str:00000000000004a6 .LASF40
     /tmp/cc7lLgEN.s:5527   .debug_str:000000000000022b .LASF140
     /tmp/cc7lLgEN.s:5469   .debug_str:000000000000008c .LASF141
     /tmp/cc7lLgEN.s:5465   .debug_str:0000000000000072 .LASF41
     /tmp/cc7lLgEN.s:5773   .debug_str:0000000000000902 .LASF42
     /tmp/cc7lLgEN.s:5671   .debug_str:000000000000066f .LASF43
     /tmp/cc7lLgEN.s:5715   .debug_str:0000000000000798 .LASF44
     /tmp/cc7lLgEN.s:5835   .debug_str:0000000000000b86 .LASF45
     /tmp/cc7lLgEN.s:5629   .debug_str:000000000000055e .LASF46
     /tmp/cc7lLgEN.s:5539   .debug_str:0000000000000280 .LASF61
     /tmp/cc7lLgEN.s:5697   .debug_str:000000000000070d .LASF63
     /tmp/cc7lLgEN.s:5471   .debug_str:000000000000009f .LASF47
     /tmp/cc7lLgEN.s:5719   .debug_str:00000000000007bc .LASF48
     /tmp/cc7lLgEN.s:5845   .debug_str:0000000000000bc2 .LASF49
     /tmp/cc7lLgEN.s:5743   .debug_str:0000000000000846 .LASF50
     /tmp/cc7lLgEN.s:5753   .debug_str:0000000000000882 .LASF51
     /tmp/cc7lLgEN.s:5623   .debug_str:0000000000000531 .LASF52
     /tmp/cc7lLgEN.s:5747   .debug_str:0000000000000865 .LASF53
     /tmp/cc7lLgEN.s:5759   .debug_str:0000000000000898 .LASF54
     /tmp/cc7lLgEN.s:5769   .debug_str:00000000000008f3 .LASF55
     /tmp/cc7lLgEN.s:5619   .debug_str:0000000000000512 .LASF56
     /tmp/cc7lLgEN.s:5517   .debug_str:00000000000001ea .LASF57
     /tmp/cc7lLgEN.s:5525   .debug_str:000000000000021e .LASF58
     /tmp/cc7lLgEN.s:5711   .debug_str:0000000000000779 .LASF59
     /tmp/cc7lLgEN.s:5615   .debug_str:00000000000004f9 .LASF104
     /tmp/cc7lLgEN.s:5677   .debug_str:0000000000000697 .LASF106
     /tmp/cc7lLgEN.s:5673   .debug_str:0000000000000677 .LASF73
     /tmp/cc7lLgEN.s:5521   .debug_str:0000000000000211 .LASF60
     /tmp/cc7lLgEN.s:5765   .debug_str:00000000000008ca .LASF62
GAS LISTING /tmp/cc7lLgEN.s 			page 37


     /tmp/cc7lLgEN.s:5649   .debug_str:00000000000005c9 .LASF64
     /tmp/cc7lLgEN.s:5495   .debug_str:0000000000000154 .LASF65
     /tmp/cc7lLgEN.s:5831   .debug_str:0000000000000b66 .LASF66
     /tmp/cc7lLgEN.s:5523   .debug_str:0000000000000218 .LASF67
     /tmp/cc7lLgEN.s:5801   .debug_str:0000000000000ab6 .LASF68
     /tmp/cc7lLgEN.s:5647   .debug_str:00000000000005c2 .LASF69
     /tmp/cc7lLgEN.s:5681   .debug_str:00000000000006ac .LASF70
     /tmp/cc7lLgEN.s:5459   .debug_str:000000000000005b .LASF71
     /tmp/cc7lLgEN.s:5571   .debug_str:0000000000000382 .LASF72
     /tmp/cc7lLgEN.s:5635   .debug_str:000000000000057b .LASF74
     /tmp/cc7lLgEN.s:5717   .debug_str:00000000000007aa .LASF75
     /tmp/cc7lLgEN.s:5475   .debug_str:00000000000000c3 .LASF76
     /tmp/cc7lLgEN.s:5751   .debug_str:0000000000000873 .LASF77
     /tmp/cc7lLgEN.s:5837   .debug_str:0000000000000b8c .LASF78
     /tmp/cc7lLgEN.s:5797   .debug_str:0000000000000a8f .LASF79
     /tmp/cc7lLgEN.s:5805   .debug_str:0000000000000ae1 .LASF80
     /tmp/cc7lLgEN.s:5609   .debug_str:00000000000004c5 .LASF81
     /tmp/cc7lLgEN.s:5783   .debug_str:0000000000000a08 .LASF82
     /tmp/cc7lLgEN.s:5733   .debug_str:0000000000000811 .LASF83
     /tmp/cc7lLgEN.s:5709   .debug_str:000000000000076f .LASF84
     /tmp/cc7lLgEN.s:5567   .debug_str:000000000000036c .LASF85
     /tmp/cc7lLgEN.s:5643   .debug_str:00000000000005a5 .LASF86
     /tmp/cc7lLgEN.s:5455   .debug_str:0000000000000046 .LASF87
     /tmp/cc7lLgEN.s:5489   .debug_str:0000000000000127 .LASF191
     /tmp/cc7lLgEN.s:5473   .debug_str:00000000000000aa .LASF192
     /tmp/cc7lLgEN.s:5519   .debug_str:0000000000000203 .LASF88
     /tmp/cc7lLgEN.s:5479   .debug_str:00000000000000df .LASF90
     /tmp/cc7lLgEN.s:5497   .debug_str:000000000000015b .LASF89
     /tmp/cc7lLgEN.s:5549   .debug_str:00000000000002bb .LASF91
     /tmp/cc7lLgEN.s:5591   .debug_str:0000000000000417 .LASF193
     /tmp/cc7lLgEN.s:5781   .debug_str:00000000000009f4 .LASF194
     /tmp/cc7lLgEN.s:5669   .debug_str:0000000000000666 .LASF92
     /tmp/cc7lLgEN.s:5737   .debug_str:0000000000000830 .LASF93
     /tmp/cc7lLgEN.s:5653   .debug_str:00000000000005f1 .LASF94
     /tmp/cc7lLgEN.s:5657   .debug_str:000000000000060d .LASF95
     /tmp/cc7lLgEN.s:5577   .debug_str:00000000000003bb .LASF97
     /tmp/cc7lLgEN.s:5587   .debug_str:00000000000003fb .LASF195
     /tmp/cc7lLgEN.s:5547   .debug_str:00000000000002b3 .LASF98
     /tmp/cc7lLgEN.s:5575   .debug_str:000000000000039f .LASF99
     /tmp/cc7lLgEN.s:5825   .debug_str:0000000000000b43 .LASF100
     /tmp/cc7lLgEN.s:5599   .debug_str:000000000000045f .LASF101
     /tmp/cc7lLgEN.s:5695   .debug_str:0000000000000705 .LASF102
     /tmp/cc7lLgEN.s:5795   .debug_str:0000000000000a78 .LASF103
     /tmp/cc7lLgEN.s:5729   .debug_str:0000000000000801 .LASF105
     /tmp/cc7lLgEN.s:5451   .debug_str:000000000000002a .LASF107
     /tmp/cc7lLgEN.s:5631   .debug_str:000000000000056e .LASF108
     /tmp/cc7lLgEN.s:5757   .debug_str:0000000000000893 .LASF109
     /tmp/cc7lLgEN.s:5633   .debug_str:0000000000000573 .LASF110
     /tmp/cc7lLgEN.s:5585   .debug_str:00000000000003f6 .LASF111
     /tmp/cc7lLgEN.s:5823   .debug_str:0000000000000b30 .LASF112
     /tmp/cc7lLgEN.s:5637   .debug_str:0000000000000586 .LASF113
     /tmp/cc7lLgEN.s:5533   .debug_str:0000000000000241 .LASF114
     /tmp/cc7lLgEN.s:5477   .debug_str:00000000000000d0 .LASF115
     /tmp/cc7lLgEN.s:5679   .debug_str:00000000000006a7 .LASF116
     /tmp/cc7lLgEN.s:5509   .debug_str:00000000000001b0 .LASF117
     /tmp/cc7lLgEN.s:5799   .debug_str:0000000000000a9c .LASF118
     /tmp/cc7lLgEN.s:5803   .debug_str:0000000000000ac6 .LASF119
GAS LISTING /tmp/cc7lLgEN.s 			page 38


     /tmp/cc7lLgEN.s:5601   .debug_str:000000000000047b .LASF120
     /tmp/cc7lLgEN.s:5557   .debug_str:000000000000030e .LASF145
     /tmp/cc7lLgEN.s:5449   .debug_str:0000000000000000 .LASF196
     /tmp/cc7lLgEN.s:5659   .debug_str:000000000000061e .LASF121
     /tmp/cc7lLgEN.s:5555   .debug_str:00000000000002f6 .LASF197
     /tmp/cc7lLgEN.s:5683   .debug_str:00000000000006bd .LASF122
     /tmp/cc7lLgEN.s:5807   .debug_str:0000000000000ae6 .LASF123
     /tmp/cc7lLgEN.s:5767   .debug_str:00000000000008de .LASF124
     /tmp/cc7lLgEN.s:5839   .debug_str:0000000000000b92 .LASF133
     /tmp/cc7lLgEN.s:5761   .debug_str:00000000000008a8 .LASF125
     /tmp/cc7lLgEN.s:5689   .debug_str:00000000000006e0 .LASF136
     /tmp/cc7lLgEN.s:5723   .debug_str:00000000000007db .LASF138
     /tmp/cc7lLgEN.s:5529   .debug_str:0000000000000234 .LASF126
     /tmp/cc7lLgEN.s:5507   .debug_str:000000000000019b .LASF127
     /tmp/cc7lLgEN.s:5745   .debug_str:000000000000085e .LASF128
     /tmp/cc7lLgEN.s:5787   .debug_str:0000000000000a26 .LASF129
     /tmp/cc7lLgEN.s:5589   .debug_str:000000000000040e .LASF130
     /tmp/cc7lLgEN.s:5763   .debug_str:00000000000008ba .LASF198
     /tmp/cc7lLgEN.s:5817   .debug_str:0000000000000b15 .LASF131
     /tmp/cc7lLgEN.s:5513   .debug_str:00000000000001c8 .LASF132
     /tmp/cc7lLgEN.s:5701   .debug_str:000000000000072d .LASF134
     /tmp/cc7lLgEN.s:5849   .debug_str:0000000000000bde .LASF135
     /tmp/cc7lLgEN.s:5731   .debug_str:0000000000000809 .LASF137
     /tmp/cc7lLgEN.s:5493   .debug_str:0000000000000145 .LASF139
     /tmp/cc7lLgEN.s:5667   .debug_str:0000000000000650 .LASF142
     /tmp/cc7lLgEN.s:5777   .debug_str:00000000000009d9 .LASF143
     /tmp/cc7lLgEN.s:5617   .debug_str:00000000000004ff .LASF144
     /tmp/cc7lLgEN.s:5827   .debug_str:0000000000000b4f .LASF199
     /tmp/cc7lLgEN.s:5847   .debug_str:0000000000000bcf .LASF146
     /tmp/cc7lLgEN.s:5453   .debug_str:0000000000000041 .LASF147
     /tmp/cc7lLgEN.s:5461   .debug_str:0000000000000061 .LASF148
     /tmp/cc7lLgEN.s:5851   .debug_str:0000000000000bf5 .LASF149
     /tmp/cc7lLgEN.s:789    .text._ZN14PeriodicThreadD0Ev:0000000000000000 .LFB38
     /tmp/cc7lLgEN.s:829    .text._ZN14PeriodicThreadD0Ev:000000000000004c .LFE38
     /tmp/cc7lLgEN.s:4917   .debug_loc:0000000000000000 .LLST22
     /tmp/cc7lLgEN.s:805    .text._ZN14PeriodicThreadD0Ev:0000000000000018 .LBB21
     /tmp/cc7lLgEN.s:813    .text._ZN14PeriodicThreadD0Ev:000000000000002c .LBE21
     /tmp/cc7lLgEN.s:4935   .debug_loc:000000000000004c .LLST23
     /tmp/cc7lLgEN.s:811    .text._ZN14PeriodicThreadD0Ev:000000000000002c .LVL67
     /tmp/cc7lLgEN.s:816    .text._ZN14PeriodicThreadD0Ev:0000000000000038 .LVL68
     /tmp/cc7lLgEN.s:5703   .debug_str:000000000000073a .LASF150
     /tmp/cc7lLgEN.s:752    .text._ZN14PeriodicThreadD2Ev:0000000000000000 .LFB36
     /tmp/cc7lLgEN.s:780    .text._ZN14PeriodicThreadD2Ev:0000000000000034 .LFE36
     /tmp/cc7lLgEN.s:4946   .debug_loc:0000000000000082 .LLST21
     /tmp/cc7lLgEN.s:769    .text._ZN14PeriodicThreadD2Ev:0000000000000024 .LVL64
     /tmp/cc7lLgEN.s:1122   .text:0000000000000504 .LFB34
     /tmp/cc7lLgEN.s:1148   .text:000000000000052c .LFE34
     /tmp/cc7lLgEN.s:4960   .debug_loc:00000000000000bb .LLST30
     /tmp/cc7lLgEN.s:1137   .text:000000000000051c .LVL93
     /tmp/cc7lLgEN.s:1090   .text:00000000000004dc .LFB33
     /tmp/cc7lLgEN.s:1116   .text:0000000000000504 .LFE33
     /tmp/cc7lLgEN.s:1104   .text:00000000000004f4 .LVL91
     /tmp/cc7lLgEN.s:5621   .debug_str:000000000000051f .LASF151
     /tmp/cc7lLgEN.s:940    .text:000000000000041c .LFB32
     /tmp/cc7lLgEN.s:973    .text:000000000000045c .LFE32
     /tmp/cc7lLgEN.s:4974   .debug_loc:00000000000000f4 .LLST26
     /tmp/cc7lLgEN.s:957    .text:000000000000043c .LVL80
GAS LISTING /tmp/cc7lLgEN.s 			page 39


     /tmp/cc7lLgEN.s:960    .text:0000000000000448 .LVL81
     /tmp/cc7lLgEN.s:5467   .debug_str:000000000000007a .LASF152
     /tmp/cc7lLgEN.s:875    .text:00000000000003c8 .LFB30
     /tmp/cc7lLgEN.s:925    .text:000000000000041c .LFE30
     /tmp/cc7lLgEN.s:4992   .debug_loc:0000000000000140 .LLST25
     /tmp/cc7lLgEN.s:901    .text:00000000000003f8 .LVL76
     /tmp/cc7lLgEN.s:909    .text:0000000000000408 .LVL77
     /tmp/cc7lLgEN.s:1055   .text:00000000000004b0 .LFB28
     /tmp/cc7lLgEN.s:1084   .text:00000000000004dc .LFE28
     /tmp/cc7lLgEN.s:5010   .debug_loc:000000000000018c .LLST29
     /tmp/cc7lLgEN.s:1072   .text:00000000000004cc .LVL90
     /tmp/cc7lLgEN.s:1020   .text:0000000000000484 .LFB27
     /tmp/cc7lLgEN.s:1049   .text:00000000000004b0 .LFE27
     /tmp/cc7lLgEN.s:5024   .debug_loc:00000000000001c5 .LLST28
     /tmp/cc7lLgEN.s:1037   .text:00000000000004a0 .LVL87
     /tmp/cc7lLgEN.s:5841   .debug_str:0000000000000ba2 .LASF153
     /tmp/cc7lLgEN.s:5661   .debug_str:000000000000062e .LASF154
     /tmp/cc7lLgEN.s:979    .text:000000000000045c .LFB26
     /tmp/cc7lLgEN.s:1007   .text:0000000000000484 .LFE26
     /tmp/cc7lLgEN.s:5038   .debug_loc:00000000000001fe .LLST27
     /tmp/cc7lLgEN.s:996    .text:0000000000000474 .LVL84
     /tmp/cc7lLgEN.s:5457   .debug_str:000000000000004b .LASF155
     /tmp/cc7lLgEN.s:5813   .debug_str:0000000000000b05 .LASF156
     /tmp/cc7lLgEN.s:557    .text:0000000000000284 .LFB25
     /tmp/cc7lLgEN.s:585    .text:00000000000002ac .LFE25
     /tmp/cc7lLgEN.s:5052   .debug_loc:0000000000000237 .LLST17
     /tmp/cc7lLgEN.s:574    .text:000000000000029c .LVL49
     /tmp/cc7lLgEN.s:5491   .debug_str:0000000000000135 .LASF157
     /tmp/cc7lLgEN.s:5755   .debug_str:000000000000088d .LASF158
     /tmp/cc7lLgEN.s:524    .text:000000000000025c .LFB24
     /tmp/cc7lLgEN.s:551    .text:0000000000000284 .LFE24
     /tmp/cc7lLgEN.s:5066   .debug_loc:0000000000000270 .LLST16
     /tmp/cc7lLgEN.s:539    .text:0000000000000274 .LVL47
     /tmp/cc7lLgEN.s:5843   .debug_str:0000000000000bb5 .LASF159
     /tmp/cc7lLgEN.s:5543   .debug_str:000000000000029e .LASF160
     /tmp/cc7lLgEN.s:491    .text:0000000000000234 .LFB23
     /tmp/cc7lLgEN.s:518    .text:000000000000025c .LFE23
     /tmp/cc7lLgEN.s:5080   .debug_loc:00000000000002a9 .LLST15
     /tmp/cc7lLgEN.s:506    .text:000000000000024c .LVL45
     /tmp/cc7lLgEN.s:5625   .debug_str:0000000000000547 .LASF161
     /tmp/cc7lLgEN.s:836    .text:0000000000000388 .LFB22
     /tmp/cc7lLgEN.s:869    .text:00000000000003c8 .LFE22
     /tmp/cc7lLgEN.s:5094   .debug_loc:00000000000002e2 .LLST24
     /tmp/cc7lLgEN.s:853    .text:00000000000003a8 .LVL71
     /tmp/cc7lLgEN.s:856    .text:00000000000003b4 .LVL72
     /tmp/cc7lLgEN.s:5687   .debug_str:00000000000006d1 .LASF162
     /tmp/cc7lLgEN.s:599    .text:00000000000002ac .LFB20
     /tmp/cc7lLgEN.s:640    .text:00000000000002ec .LFE20
     /tmp/cc7lLgEN.s:5112   .debug_loc:000000000000032e .LLST18
     /tmp/cc7lLgEN.s:626    .text:00000000000002d8 .LVL52
     /tmp/cc7lLgEN.s:5707   .debug_str:0000000000000760 .LASF163
     /tmp/cc7lLgEN.s:421    .text:00000000000001d0 .LFB17
     /tmp/cc7lLgEN.s:483    .text:0000000000000234 .LFE17
     /tmp/cc7lLgEN.s:5126   .debug_loc:0000000000000367 .LLST13
     /tmp/cc7lLgEN.s:445    .text:0000000000000204 .LVL38
     /tmp/cc7lLgEN.s:472    .text:0000000000000224 .LVL42
     /tmp/cc7lLgEN.s:477    .text:0000000000000230 .LVL43
GAS LISTING /tmp/cc7lLgEN.s 			page 40


     /tmp/cc7lLgEN.s:5144   .debug_loc:00000000000003b3 .LLST14
     /tmp/cc7lLgEN.s:5485   .debug_str:0000000000000114 .LASF171
     /tmp/cc7lLgEN.s:5597   .debug_str:0000000000000447 .LASF164
     /tmp/cc7lLgEN.s:724    .text:0000000000000388 .LFE14
     /tmp/cc7lLgEN.s:5155   .debug_loc:00000000000003e9 .LLST19
     /tmp/cc7lLgEN.s:5173   .debug_loc:0000000000000435 .LLST20
     /tmp/cc7lLgEN.s:674    .text:0000000000000318 .LVL55
     /tmp/cc7lLgEN.s:682    .text:0000000000000338 .LVL56
     /tmp/cc7lLgEN.s:691    .text:0000000000000350 .LVL57
     /tmp/cc7lLgEN.s:700    .text:0000000000000364 .LVL59
     /tmp/cc7lLgEN.s:704    .text:0000000000000370 .LVL60
     /tmp/cc7lLgEN.s:5639   .debug_str:000000000000058b .LASF165
     /tmp/cc7lLgEN.s:5535   .debug_str:0000000000000254 .LASF166
     /tmp/cc7lLgEN.s:353    .text:0000000000000174 .LFB12
     /tmp/cc7lLgEN.s:415    .text:00000000000001d0 .LFE12
     /tmp/cc7lLgEN.s:5202   .debug_loc:00000000000004aa .LLST10
     /tmp/cc7lLgEN.s:5821   .debug_str:0000000000000b2a .LASF167
     /tmp/cc7lLgEN.s:5220   .debug_loc:00000000000004f6 .LLST11
     /tmp/cc7lLgEN.s:5721   .debug_str:00000000000007d3 .LASF168
     /tmp/cc7lLgEN.s:5232   .debug_loc:000000000000052d .LLST12
     /tmp/cc7lLgEN.s:389    .text:00000000000001a8 .LVL31
     /tmp/cc7lLgEN.s:394    .text:00000000000001b4 .LVL32
     /tmp/cc7lLgEN.s:5809   .debug_str:0000000000000af0 .LASF169
     /tmp/cc7lLgEN.s:5573   .debug_str:0000000000000392 .LASF170
     /tmp/cc7lLgEN.s:62     .text:0000000000000000 .LFB11
     /tmp/cc7lLgEN.s:98     .text:0000000000000034 .LFE11
     /tmp/cc7lLgEN.s:5244   .debug_loc:0000000000000564 .LLST0
     /tmp/cc7lLgEN.s:84     .text:0000000000000020 .LVL3
     /tmp/cc7lLgEN.s:320    .text:000000000000014c .LFB10
     /tmp/cc7lLgEN.s:347    .text:0000000000000174 .LFE10
     /tmp/cc7lLgEN.s:5262   .debug_loc:00000000000005b0 .LLST9
     /tmp/cc7lLgEN.s:335    .text:0000000000000164 .LVL26
     /tmp/cc7lLgEN.s:289    .text:0000000000000124 .LFB9
     /tmp/cc7lLgEN.s:314    .text:000000000000014c .LFE9
     /tmp/cc7lLgEN.s:303    .text:000000000000013c .LVL24
     /tmp/cc7lLgEN.s:240    .text:00000000000000e4 .LFB8
     /tmp/cc7lLgEN.s:283    .text:0000000000000124 .LFE8
     /tmp/cc7lLgEN.s:5276   .debug_loc:00000000000005e9 .LLST8
     /tmp/cc7lLgEN.s:264    .text:0000000000000108 .LVL23
     /tmp/cc7lLgEN.s:5483   .debug_str:000000000000010f .LASF172
     /tmp/cc7lLgEN.s:5505   .debug_str:0000000000000189 .LASF173
     /tmp/cc7lLgEN.s:172    .text:000000000000008c .LFB6
     /tmp/cc7lLgEN.s:232    .text:00000000000000e4 .LFE6
     /tmp/cc7lLgEN.s:5290   .debug_loc:0000000000000622 .LLST5
     /tmp/cc7lLgEN.s:5310   .debug_loc:0000000000000670 .LLST6
     /tmp/cc7lLgEN.s:194    .text:00000000000000b4 .LVL15
     /tmp/cc7lLgEN.s:221    .text:00000000000000d4 .LVL19
     /tmp/cc7lLgEN.s:226    .text:00000000000000e0 .LVL20
     /tmp/cc7lLgEN.s:5324   .debug_loc:00000000000006a9 .LLST7
     /tmp/cc7lLgEN.s:5655   .debug_str:00000000000005f6 .LASF174
     /tmp/cc7lLgEN.s:104    .text:0000000000000034 .LFB3
     /tmp/cc7lLgEN.s:164    .text:000000000000008c .LFE3
     /tmp/cc7lLgEN.s:5335   .debug_loc:00000000000006df .LLST1
     /tmp/cc7lLgEN.s:5355   .debug_loc:000000000000072d .LLST2
     /tmp/cc7lLgEN.s:5369   .debug_loc:0000000000000766 .LLST3
     /tmp/cc7lLgEN.s:126    .text:000000000000005c .LVL7
     /tmp/cc7lLgEN.s:153    .text:000000000000007c .LVL11
GAS LISTING /tmp/cc7lLgEN.s 			page 41


     /tmp/cc7lLgEN.s:158    .text:0000000000000088 .LVL12
     /tmp/cc7lLgEN.s:5383   .debug_loc:000000000000079f .LLST4
     /tmp/cc7lLgEN.s:37     .text._ZN14PeriodicThread18periodicActivationEv:0000000000000000 .LFB1
     /tmp/cc7lLgEN.s:55     .text._ZN14PeriodicThread18periodicActivationEv:0000000000000018 .LFE1
     /tmp/cc7lLgEN.s:11     .text._ZN6Thread3runEv:0000000000000000 .LFB0
     /tmp/cc7lLgEN.s:30     .text._ZN6Thread3runEv:0000000000000018 .LFE0
     /tmp/cc7lLgEN.s:5691   .debug_str:00000000000006eb .LASF175
     /tmp/cc7lLgEN.s:5569   .debug_str:0000000000000377 .LASF176
     /tmp/cc7lLgEN.s:5727   .debug_str:00000000000007f8 .LASF177
     /tmp/cc7lLgEN.s:5579   .debug_str:00000000000003d2 .LASF178
     /tmp/cc7lLgEN.s:5641   .debug_str:000000000000059b .LASF179
     /tmp/cc7lLgEN.s:5791   .debug_str:0000000000000a60 .LASF180
     /tmp/cc7lLgEN.s:5811   .debug_str:0000000000000af8 .LASF181
     /tmp/cc7lLgEN.s:5833   .debug_str:0000000000000b77 .LASF200
     /tmp/cc7lLgEN.s:5559   .debug_str:0000000000000321 .LASF201
     /tmp/cc7lLgEN.s:5725   .debug_str:00000000000007ed .LASF182
     /tmp/cc7lLgEN.s:5693   .debug_str:00000000000006f5 .LASF183
     /tmp/cc7lLgEN.s:5699   .debug_str:0000000000000724 .LASF184
     /tmp/cc7lLgEN.s:792    .text._ZN14PeriodicThreadD0Ev:0000000000000000 .LVL65
     /tmp/cc7lLgEN.s:824    .text._ZN14PeriodicThreadD0Ev:0000000000000044 .LVL69
     /tmp/cc7lLgEN.s:804    .text._ZN14PeriodicThreadD0Ev:0000000000000018 .LVL66
     /tmp/cc7lLgEN.s:755    .text._ZN14PeriodicThreadD2Ev:0000000000000000 .LVL63
     /tmp/cc7lLgEN.s:1125   .text:0000000000000504 .LVL92
     /tmp/cc7lLgEN.s:943    .text:000000000000041c .LVL79
     /tmp/cc7lLgEN.s:968    .text:0000000000000454 .LVL82
     /tmp/cc7lLgEN.s:880    .text:00000000000003c8 .LVL74
     /tmp/cc7lLgEN.s:899    .text:00000000000003f0 .LVL75
     /tmp/cc7lLgEN.s:920    .text:0000000000000414 .LVL78
     /tmp/cc7lLgEN.s:1058   .text:00000000000004b0 .LVL88
     /tmp/cc7lLgEN.s:1070   .text:00000000000004c4 .LVL89
     /tmp/cc7lLgEN.s:1023   .text:0000000000000484 .LVL85
     /tmp/cc7lLgEN.s:1035   .text:0000000000000498 .LVL86
     /tmp/cc7lLgEN.s:984    .text:000000000000045c .LVL83
     /tmp/cc7lLgEN.s:562    .text:0000000000000284 .LVL48
     /tmp/cc7lLgEN.s:527    .text:000000000000025c .LVL46
     /tmp/cc7lLgEN.s:494    .text:0000000000000234 .LVL44
     /tmp/cc7lLgEN.s:839    .text:0000000000000388 .LVL70
     /tmp/cc7lLgEN.s:864    .text:00000000000003c0 .LVL73
     /tmp/cc7lLgEN.s:602    .text:00000000000002ac .LVL50
     /tmp/cc7lLgEN.s:610    .text:00000000000002bc .LVL51
     /tmp/cc7lLgEN.s:424    .text:00000000000001d0 .LVL36
     /tmp/cc7lLgEN.s:443    .text:00000000000001fc .LVL37
     /tmp/cc7lLgEN.s:448    .text:0000000000000208 .LVL39
     /tmp/cc7lLgEN.s:462    .text:0000000000000218 .LVL40
     /tmp/cc7lLgEN.s:470    .text:000000000000021c .LVL41
     /tmp/cc7lLgEN.s:653    .text:00000000000002ec .LVL53
     /tmp/cc7lLgEN.s:671    .text:0000000000000310 .LVL54
     /tmp/cc7lLgEN.s:716    .text:000000000000037c .LVL61
     /tmp/cc7lLgEN.s:696    .text:0000000000000358 .LVL58
     /tmp/cc7lLgEN.s:719    .text:0000000000000380 .LVL62
     /tmp/cc7lLgEN.s:356    .text:0000000000000174 .LVL27
     /tmp/cc7lLgEN.s:379    .text:0000000000000198 .LVL30
     /tmp/cc7lLgEN.s:397    .text:00000000000001b8 .LVL33
     /tmp/cc7lLgEN.s:372    .text:0000000000000190 .LVL28
     /tmp/cc7lLgEN.s:410    .text:00000000000001c8 .LVL35
     /tmp/cc7lLgEN.s:376    .text:0000000000000194 .LVL29
     /tmp/cc7lLgEN.s:407    .text:00000000000001c4 .LVL34
GAS LISTING /tmp/cc7lLgEN.s 			page 42


     /tmp/cc7lLgEN.s:66     .text:0000000000000000 .LVL2
     /tmp/cc7lLgEN.s:94     .text:0000000000000030 .LVL4
     /tmp/cc7lLgEN.s:323    .text:000000000000014c .LVL25
     /tmp/cc7lLgEN.s:243    .text:00000000000000e4 .LVL21
     /tmp/cc7lLgEN.s:249    .text:00000000000000ec .LVL22
     /tmp/cc7lLgEN.s:175    .text:000000000000008c .LVL13
     /tmp/cc7lLgEN.s:192    .text:00000000000000ac .LVL14
     /tmp/cc7lLgEN.s:197    .text:00000000000000b8 .LVL16
     /tmp/cc7lLgEN.s:211    .text:00000000000000c8 .LVL17
     /tmp/cc7lLgEN.s:219    .text:00000000000000cc .LVL18
     /tmp/cc7lLgEN.s:107    .text:0000000000000034 .LVL5
     /tmp/cc7lLgEN.s:124    .text:0000000000000054 .LVL6
     /tmp/cc7lLgEN.s:129    .text:0000000000000060 .LVL8
     /tmp/cc7lLgEN.s:143    .text:0000000000000070 .LVL9
     /tmp/cc7lLgEN.s:151    .text:0000000000000074 .LVL10
     /tmp/cc7lLgEN.s:1190   .debug_info:0000000000000000 .Ldebug_info0
     /tmp/cc7lLgEN.s:5      .text:0000000000000000 .Ltext0
     /tmp/cc7lLgEN.s:1184   .text:000000000000052c .Letext0
     /tmp/cc7lLgEN.s:120    .text:0000000000000050 .LBB6
     /tmp/cc7lLgEN.s:131    .text:0000000000000060 .LBE6
     /tmp/cc7lLgEN.s:147    .text:0000000000000070 .LBB7
     /tmp/cc7lLgEN.s:159    .text:0000000000000088 .LBE7
     /tmp/cc7lLgEN.s:188    .text:00000000000000a8 .LBB10
     /tmp/cc7lLgEN.s:199    .text:00000000000000b8 .LBE10
     /tmp/cc7lLgEN.s:215    .text:00000000000000c8 .LBB11
     /tmp/cc7lLgEN.s:227    .text:00000000000000e0 .LBE11
     /tmp/cc7lLgEN.s:437    .text:00000000000001ec .LBB14
     /tmp/cc7lLgEN.s:450    .text:0000000000000208 .LBE14
     /tmp/cc7lLgEN.s:466    .text:0000000000000218 .LBB15
     /tmp/cc7lLgEN.s:478    .text:0000000000000230 .LBE15
     /tmp/cc7lLgEN.s:588    .gcc_except_table:0000000000000000 .LLSDA25
     /tmp/cc7lLgEN.s:726    .gcc_except_table:0000000000000004 .LLSDA14
     /tmp/cc7lLgEN.s:927    .gcc_except_table:000000000000002f .LLSDA30
     /tmp/cc7lLgEN.s:1009   .gcc_except_table:0000000000000033 .LLSDA26
                           .group:0000000000000000 _ZN14PeriodicThreadD5Ev

UNDEFINED SYMBOLS
thread_init
putc
sem_open
_ZN3PCB5startEv
thread_dispatch
time_sleep
mem_alloc
mem_free
__gxx_personality_v0
set_periodic
_Unwind_Resume
sem_close
sem_wait
sem_signal
getc
