GAS LISTING /tmp/ccaOOzD6.s 			page 1


   1              		.file	"test.cpp"
   2              		.option pic
   3              		.option norelax
   4              		.text
   5              	.Ltext0:
   6              		.section	.text._ZN6Thread3runEv,"axG",@progbits,_ZN6Thread3runEv,comdat
   7              		.align	2
   8              		.weak	_ZN6Thread3runEv
  10              	_ZN6Thread3runEv:
  11              	.LFB0:
  12              		.file 1 "src/../h/syscall_cpp.hpp"
   1:src/../h/syscall_cpp.hpp **** #ifndef _syscall_cpp
   2:src/../h/syscall_cpp.hpp **** #define _syscall_cpp
   3:src/../h/syscall_cpp.hpp **** #include "syscall_c.h"
   4:src/../h/syscall_cpp.hpp **** #include "./PCB.h"
   5:src/../h/syscall_cpp.hpp **** 
   6:src/../h/syscall_cpp.hpp **** //void* ::operator new (size_t n);
   7:src/../h/syscall_cpp.hpp **** //void ::operator delete (void* p);
   8:src/../h/syscall_cpp.hpp **** void wrapper(void *t);
   9:src/../h/syscall_cpp.hpp **** void periodicWrapper(void *t);
  10:src/../h/syscall_cpp.hpp **** class Thread {
  11:src/../h/syscall_cpp.hpp **** public:
  12:src/../h/syscall_cpp.hpp **** 
  13:src/../h/syscall_cpp.hpp ****     friend void wrapper(void * t);
  14:src/../h/syscall_cpp.hpp ****     Thread (void (*body)(void*), void* arg);
  15:src/../h/syscall_cpp.hpp ****     virtual ~Thread ();
  16:src/../h/syscall_cpp.hpp **** 
  17:src/../h/syscall_cpp.hpp ****     static void dispatch();
  18:src/../h/syscall_cpp.hpp ****     static int sleep (time_t);
  19:src/../h/syscall_cpp.hpp **** 
  20:src/../h/syscall_cpp.hpp ****     int start ();
  21:src/../h/syscall_cpp.hpp **** 
  22:src/../h/syscall_cpp.hpp **** protected:
  23:src/../h/syscall_cpp.hpp ****     virtual void run () {}
  13              		.loc 1 23 18
  14              		.cfi_startproc
  15              	.LVL0:
  16 0000 130101FF 		addi	sp,sp,-16
  17              		.cfi_def_cfa_offset 16
  18 0004 23348100 		sd	s0,8(sp)
  19              		.cfi_offset 8, -8
  20 0008 13040101 		addi	s0,sp,16
  21              		.cfi_def_cfa 8, 0
  22              		.loc 1 23 26 is_stmt 0
  23 000c 03348100 		ld	s0,8(sp)
  24              		.cfi_restore 8
  25              		.cfi_def_cfa 2, 16
  26 0010 13010101 		addi	sp,sp,16
  27              		.cfi_def_cfa_offset 0
  28 0014 67800000 		jr	ra
  29              		.cfi_endproc
  30              	.LFE0:
  32              		.section	.text._ZN14PeriodicThread18periodicActivationEv,"axG",@progbits,_ZN14PeriodicThread18peri
  33              		.align	2
  34              		.weak	_ZN14PeriodicThread18periodicActivationEv
  36              	_ZN14PeriodicThread18periodicActivationEv:
  37              	.LFB1:
GAS LISTING /tmp/ccaOOzD6.s 			page 2


  24:src/../h/syscall_cpp.hpp **** 
  25:src/../h/syscall_cpp.hpp ****     Thread ();
  26:src/../h/syscall_cpp.hpp **** 
  27:src/../h/syscall_cpp.hpp ****     thread_t myHandle;
  28:src/../h/syscall_cpp.hpp **** };
  29:src/../h/syscall_cpp.hpp **** 
  30:src/../h/syscall_cpp.hpp **** class Semaphore {
  31:src/../h/syscall_cpp.hpp **** public:
  32:src/../h/syscall_cpp.hpp ****     Semaphore (unsigned init = 1);
  33:src/../h/syscall_cpp.hpp ****     virtual ~Semaphore ();
  34:src/../h/syscall_cpp.hpp ****     int wait ();
  35:src/../h/syscall_cpp.hpp ****     int signal ();
  36:src/../h/syscall_cpp.hpp **** private:
  37:src/../h/syscall_cpp.hpp ****     sem_t myHandle;
  38:src/../h/syscall_cpp.hpp **** };
  39:src/../h/syscall_cpp.hpp **** 
  40:src/../h/syscall_cpp.hpp **** 
  41:src/../h/syscall_cpp.hpp **** class PeriodicThread : public Thread {
  42:src/../h/syscall_cpp.hpp **** public:
  43:src/../h/syscall_cpp.hpp ****     friend void periodicWrapper(void * t);
  44:src/../h/syscall_cpp.hpp **** protected:
  45:src/../h/syscall_cpp.hpp ****     PeriodicThread (time_t period);
  46:src/../h/syscall_cpp.hpp ****     virtual void periodicActivation () {}
  38              		.loc 1 46 18 is_stmt 1
  39              		.cfi_startproc
  40              	.LVL1:
  41 0000 130101FF 		addi	sp,sp,-16
  42              		.cfi_def_cfa_offset 16
  43 0004 23348100 		sd	s0,8(sp)
  44              		.cfi_offset 8, -8
  45 0008 13040101 		addi	s0,sp,16
  46              		.cfi_def_cfa 8, 0
  47              		.loc 1 46 41 is_stmt 0
  48 000c 03348100 		ld	s0,8(sp)
  49              		.cfi_restore 8
  50              		.cfi_def_cfa 2, 16
  51 0010 13010101 		addi	sp,sp,16
  52              		.cfi_def_cfa_offset 0
  53 0014 67800000 		jr	ra
  54              		.cfi_endproc
  55              	.LFE1:
  57              		.text
  58              		.align	2
  59              		.globl	_Z6mediumPv
  61              	_Z6mediumPv:
  62              	.LFB22:
  63              		.file 2 "src/test.cpp"
   1:src/test.cpp  **** #include "../lib/hw.h"
   2:src/test.cpp  **** #include "../h/Interrupt.h"
   3:src/test.cpp  **** #include "../h/syscall_cpp.hpp"
   4:src/test.cpp  **** #include "../h/Cons.hpp"
   5:src/test.cpp  **** #include "../h/Sem.h"
   6:src/test.cpp  **** 
   7:src/test.cpp  **** 
   8:src/test.cpp  **** typedef struct {
   9:src/test.cpp  ****     char c;
  10:src/test.cpp  **** }Arguments;
GAS LISTING /tmp/ccaOOzD6.s 			page 3


  11:src/test.cpp  **** 
  12:src/test.cpp  **** class PrintP : public PeriodicThread{
  13:src/test.cpp  **** 
  14:src/test.cpp  **** public:
  15:src/test.cpp  ****     PrintP(time_t time) : PeriodicThread(time){}
  16:src/test.cpp  ****     void periodicActivation () {
  17:src/test.cpp  ****         Console::putc('A');
  18:src/test.cpp  ****         Console::putc(' ');
  19:src/test.cpp  ****     }
  20:src/test.cpp  **** };
  21:src/test.cpp  **** class PrintA : public PeriodicThread{
  22:src/test.cpp  **** 
  23:src/test.cpp  **** public:
  24:src/test.cpp  ****     PrintA(time_t time) : PeriodicThread(time){}
  25:src/test.cpp  ****     void periodicActivation () {
  26:src/test.cpp  ****         Console::putc('B');
  27:src/test.cpp  ****         Console::putc(' ');
  28:src/test.cpp  ****     }
  29:src/test.cpp  **** };
  30:src/test.cpp  **** void medium(void* args){
  64              		.loc 2 30 24 is_stmt 1
  65              		.cfi_startproc
  66              	.LVL2:
  67 0000 130101FF 		addi	sp,sp,-16
  68              		.cfi_def_cfa_offset 16
  69 0004 23341100 		sd	ra,8(sp)
  70 0008 23308100 		sd	s0,0(sp)
  71              		.cfi_offset 1, -8
  72              		.cfi_offset 8, -16
  73 000c 13040101 		addi	s0,sp,16
  74              		.cfi_def_cfa 8, 0
  75              	.LVL3:
  76              	.L6:
  31:src/test.cpp  ****     while (true){
  77              		.loc 2 31 5 discriminator 1
  32:src/test.cpp  ****        Thread::dispatch();
  78              		.loc 2 32 8 discriminator 1
  79              		.loc 2 32 24 is_stmt 0 discriminator 1
  80 0010 97000000 		call	_ZN6Thread8dispatchEv@plt
  80      E7800000 
  81              	.LVL4:
  31:src/test.cpp  ****     while (true){
  82              		.loc 2 31 5 is_stmt 1 discriminator 1
  83 0018 6FF09FFF 		j	.L6
  84              		.cfi_endproc
  85              	.LFE22:
  87              		.section	.text._ZN13GetCharThread3runEv,"axG",@progbits,_ZN13GetCharThread3runEv,comdat
  88              		.align	2
  89              		.weak	_ZN13GetCharThread3runEv
  91              	_ZN13GetCharThread3runEv:
  92              	.LFB9:
  93              		.file 3 "src/../h/Cons.hpp"
   1:src/../h/Cons.hpp **** #include "../h/Sem.h"
   2:src/../h/Cons.hpp **** #include "../h/syscall_cpp.hpp"
   3:src/../h/Cons.hpp **** 
   4:src/../h/Cons.hpp **** 
   5:src/../h/Cons.hpp **** class CharBuffer{
GAS LISTING /tmp/ccaOOzD6.s 			page 4


   6:src/../h/Cons.hpp **** private:
   7:src/../h/Cons.hpp ****     Sem* mutexGet;
   8:src/../h/Cons.hpp ****     Sem* mutexPut;
   9:src/../h/Cons.hpp ****     Sem* getSem;
  10:src/../h/Cons.hpp ****     Sem* putSem;
  11:src/../h/Cons.hpp ****     int head;
  12:src/../h/Cons.hpp ****     int tail;
  13:src/../h/Cons.hpp ****     int size;
  14:src/../h/Cons.hpp ****     int currSize;
  15:src/../h/Cons.hpp ****     char* buffer;
  16:src/../h/Cons.hpp **** public:
  17:src/../h/Cons.hpp ****     CharBuffer(int size);
  18:src/../h/Cons.hpp ****     ~CharBuffer();
  19:src/../h/Cons.hpp ****     char get();
  20:src/../h/Cons.hpp ****     void put(char c);
  21:src/../h/Cons.hpp ****     int getSize();
  22:src/../h/Cons.hpp ****     int getMaxSize();
  23:src/../h/Cons.hpp **** 
  24:src/../h/Cons.hpp **** };
  25:src/../h/Cons.hpp **** class Cons{
  26:src/../h/Cons.hpp **** public:
  27:src/../h/Cons.hpp ****     static Cons* singleton;
  28:src/../h/Cons.hpp ****     Cons();
  29:src/../h/Cons.hpp ****     static CharBuffer* inputBuffer;
  30:src/../h/Cons.hpp ****     static CharBuffer* outputBuffer;
  31:src/../h/Cons.hpp **** };
  32:src/../h/Cons.hpp **** 
  33:src/../h/Cons.hpp **** class PutCharThread : public Thread{
  34:src/../h/Cons.hpp **** 
  35:src/../h/Cons.hpp **** public:
  36:src/../h/Cons.hpp **** 
  37:src/../h/Cons.hpp ****     PutCharThread() : Thread(){
  38:src/../h/Cons.hpp **** 
  39:src/../h/Cons.hpp ****     }
  40:src/../h/Cons.hpp **** private:
  41:src/../h/Cons.hpp ****     void run() override{
  42:src/../h/Cons.hpp ****         while (true){
  43:src/../h/Cons.hpp **** 
  44:src/../h/Cons.hpp ****             volatile char status = *((char *) CONSOLE_STATUS);
  45:src/../h/Cons.hpp ****             while ((status & CONSOLE_TX_STATUS_BIT)) {
  46:src/../h/Cons.hpp ****                 char c = Cons::outputBuffer->get();
  47:src/../h/Cons.hpp ****                 *((char *) CONSOLE_TX_DATA) = c;
  48:src/../h/Cons.hpp ****                 status = *((char *) CONSOLE_STATUS);
  49:src/../h/Cons.hpp ****             }
  50:src/../h/Cons.hpp **** 
  51:src/../h/Cons.hpp **** 
  52:src/../h/Cons.hpp **** 
  53:src/../h/Cons.hpp ****         }
  54:src/../h/Cons.hpp ****     }
  55:src/../h/Cons.hpp **** };
  56:src/../h/Cons.hpp **** 
  57:src/../h/Cons.hpp **** class GetCharThread : public Thread{
  58:src/../h/Cons.hpp **** public:
  59:src/../h/Cons.hpp **** 
  60:src/../h/Cons.hpp ****     GetCharThread() : Thread(){
  61:src/../h/Cons.hpp ****     }
  62:src/../h/Cons.hpp **** protected:
GAS LISTING /tmp/ccaOOzD6.s 			page 5


  63:src/../h/Cons.hpp ****     void run() override{
  94              		.loc 3 63 10
  95              		.cfi_startproc
  96              	.LVL5:
  97 0000 130101FF 		addi	sp,sp,-16
  98              		.cfi_def_cfa_offset 16
  99 0004 23341100 		sd	ra,8(sp)
 100 0008 23308100 		sd	s0,0(sp)
 101              		.cfi_offset 1, -8
 102              		.cfi_offset 8, -16
 103 000c 13040101 		addi	s0,sp,16
 104              		.cfi_def_cfa 8, 0
 105              	.LVL6:
 106              	.L9:
  64:src/../h/Cons.hpp ****         while (true){
 107              		.loc 3 64 9 discriminator 1
  65:src/../h/Cons.hpp ****             Thread::dispatch();
 108              		.loc 3 65 13 discriminator 1
 109              		.loc 3 65 29 is_stmt 0 discriminator 1
 110 0010 97000000 		call	_ZN6Thread8dispatchEv@plt
 110      E7800000 
 111              	.LVL7:
  64:src/../h/Cons.hpp ****         while (true){
 112              		.loc 3 64 9 is_stmt 1 discriminator 1
 113 0018 6FF09FFF 		j	.L9
 114              		.cfi_endproc
 115              	.LFE9:
 117              		.section	.text._ZN13PutCharThread3runEv,"axG",@progbits,_ZN13PutCharThread3runEv,comdat
 118              		.align	2
 119              		.weak	_ZN13PutCharThread3runEv
 121              	_ZN13PutCharThread3runEv:
 122              	.LFB5:
  41:src/../h/Cons.hpp ****         while (true){
 123              		.loc 3 41 10
 124              		.cfi_startproc
 125              	.LVL8:
 126 0000 130101FD 		addi	sp,sp,-48
 127              		.cfi_def_cfa_offset 48
 128 0004 23341102 		sd	ra,40(sp)
 129 0008 23308102 		sd	s0,32(sp)
 130 000c 233C9100 		sd	s1,24(sp)
 131              		.cfi_offset 1, -8
 132              		.cfi_offset 8, -16
 133              		.cfi_offset 9, -24
 134 0010 13040103 		addi	s0,sp,48
 135              		.cfi_def_cfa 8, 0
 136              	.LVL9:
 137              	.L12:
  42:src/../h/Cons.hpp **** 
 138              		.loc 3 42 9
 139              	.LBB63:
  44:src/../h/Cons.hpp ****             while ((status & CONSOLE_TX_STATUS_BIT)) {
 140              		.loc 3 44 13
  44:src/../h/Cons.hpp ****             while ((status & CONSOLE_TX_STATUS_BIT)) {
 141              		.loc 3 44 36 is_stmt 0
 142 0014 97070000 		la	a5,CONSOLE_STATUS
 142      83B70700 
GAS LISTING /tmp/ccaOOzD6.s 			page 6


 143 001c 83B40700 		ld	s1,0(a5)
 144 0020 83C70400 		lbu	a5,0(s1)
  44:src/../h/Cons.hpp ****             while ((status & CONSOLE_TX_STATUS_BIT)) {
 145              		.loc 3 44 27
 146 0024 A30FF4FC 		sb	a5,-33(s0)
 147              	.L13:
  45:src/../h/Cons.hpp ****                 char c = Cons::outputBuffer->get();
 148              		.loc 3 45 13 is_stmt 1
  45:src/../h/Cons.hpp ****                 char c = Cons::outputBuffer->get();
 149              		.loc 3 45 51
  45:src/../h/Cons.hpp ****                 char c = Cons::outputBuffer->get();
 150              		.loc 3 45 21 is_stmt 0
 151 0028 8347F4FD 		lbu	a5,-33(s0)
 152 002c 93F7F70F 		andi	a5,a5,0xff
  45:src/../h/Cons.hpp ****                 char c = Cons::outputBuffer->get();
 153              		.loc 3 45 51
 154 0030 93F70702 		andi	a5,a5,32
 155 0034 E38007FE 		beqz	a5,.L12
 156              	.LBB64:
  46:src/../h/Cons.hpp ****                 *((char *) CONSOLE_TX_DATA) = c;
 157              		.loc 3 46 17 is_stmt 1
  46:src/../h/Cons.hpp ****                 *((char *) CONSOLE_TX_DATA) = c;
 158              		.loc 3 46 49 is_stmt 0
 159 0038 97070000 		la	a5,_ZN4Cons12outputBufferE
 159      83B70700 
 160 0040 03B50700 		ld	a0,0(a5)
 161 0044 97000000 		call	_ZN10CharBuffer3getEv@plt
 161      E7800000 
 162              	.LVL10:
  47:src/../h/Cons.hpp ****                 status = *((char *) CONSOLE_STATUS);
 163              		.loc 3 47 17 is_stmt 1
 164 004c 97070000 		la	a5,CONSOLE_TX_DATA
 164      83B70700 
 165 0054 83B70700 		ld	a5,0(a5)
  47:src/../h/Cons.hpp ****                 status = *((char *) CONSOLE_STATUS);
 166              		.loc 3 47 45 is_stmt 0
 167 0058 2380A700 		sb	a0,0(a5)
  48:src/../h/Cons.hpp ****             }
 168              		.loc 3 48 17 is_stmt 1
  48:src/../h/Cons.hpp ****             }
 169              		.loc 3 48 26 is_stmt 0
 170 005c 83C70400 		lbu	a5,0(s1)
  48:src/../h/Cons.hpp ****             }
 171              		.loc 3 48 24
 172 0060 A30FF4FC 		sb	a5,-33(s0)
 173              	.LBE64:
  45:src/../h/Cons.hpp ****                 char c = Cons::outputBuffer->get();
 174              		.loc 3 45 13
 175 0064 6FF05FFC 		j	.L13
 176              	.LBE63:
 177              		.cfi_endproc
 178              	.LFE5:
 180              		.section	.text._ZN13PutCharThreadD2Ev,"axG",@progbits,_ZN13PutCharThreadD5Ev,comdat
 181              		.align	2
 182              		.weak	_ZN13PutCharThreadD2Ev
 184              	_ZN13PutCharThreadD2Ev:
 185              	.LFB68:
GAS LISTING /tmp/ccaOOzD6.s 			page 7


  33:src/../h/Cons.hpp **** 
 186              		.loc 3 33 7 is_stmt 1
 187              		.cfi_startproc
 188              	.LVL11:
 189 0000 130101FF 		addi	sp,sp,-16
 190              		.cfi_def_cfa_offset 16
 191 0004 23341100 		sd	ra,8(sp)
 192 0008 23308100 		sd	s0,0(sp)
 193              		.cfi_offset 1, -8
 194              		.cfi_offset 8, -16
 195 000c 13040101 		addi	s0,sp,16
 196              		.cfi_def_cfa 8, 0
 197              	.LBB65:
  33:src/../h/Cons.hpp **** 
 198              		.loc 3 33 7 is_stmt 0
 199 0010 97070000 		lla	a5,_ZTV13PutCharThread+16
 199      93870700 
 200 0018 2330F500 		sd	a5,0(a0)
 201 001c 97000000 		call	_ZN6ThreadD2Ev@plt
 201      E7800000 
 202              	.LVL12:
 203              	.LBE65:
 204 0024 83308100 		ld	ra,8(sp)
 205              		.cfi_restore 1
 206 0028 03340100 		ld	s0,0(sp)
 207              		.cfi_restore 8
 208              		.cfi_def_cfa 2, 16
 209 002c 13010101 		addi	sp,sp,16
 210              		.cfi_def_cfa_offset 0
 211 0030 67800000 		jr	ra
 212              		.cfi_endproc
 213              	.LFE68:
 215              		.weak	_ZN13PutCharThreadD1Ev
 216              		.set	_ZN13PutCharThreadD1Ev,_ZN13PutCharThreadD2Ev
 217              		.section	.text._ZN13PutCharThreadD0Ev,"axG",@progbits,_ZN13PutCharThreadD5Ev,comdat
 218              		.align	2
 219              		.weak	_ZN13PutCharThreadD0Ev
 221              	_ZN13PutCharThreadD0Ev:
 222              	.LFB70:
  33:src/../h/Cons.hpp **** 
 223              		.loc 3 33 7 is_stmt 1
 224              		.cfi_startproc
 225              	.LVL13:
 226 0000 130101FE 		addi	sp,sp,-32
 227              		.cfi_def_cfa_offset 32
 228 0004 233C1100 		sd	ra,24(sp)
 229 0008 23388100 		sd	s0,16(sp)
 230 000c 23349100 		sd	s1,8(sp)
 231              		.cfi_offset 1, -8
 232              		.cfi_offset 8, -16
 233              		.cfi_offset 9, -24
 234 0010 13040102 		addi	s0,sp,32
 235              		.cfi_def_cfa 8, 0
 236 0014 93040500 		mv	s1,a0
 237              	.LVL14:
 238              	.LBB66:
 239              	.LBB67:
GAS LISTING /tmp/ccaOOzD6.s 			page 8


  33:src/../h/Cons.hpp **** 
 240              		.loc 3 33 7 is_stmt 0
 241 0018 97070000 		lla	a5,_ZTV13PutCharThread+16
 241      93870700 
 242 0020 2330F500 		sd	a5,0(a0)
 243 0024 97000000 		call	_ZN6ThreadD2Ev@plt
 243      E7800000 
 244              	.LVL15:
 245              	.LBE67:
 246              	.LBE66:
 247 002c 13850400 		mv	a0,s1
 248 0030 97000000 		call	_ZdlPv@plt
 248      E7800000 
 249              	.LVL16:
 250 0038 83308101 		ld	ra,24(sp)
 251              		.cfi_restore 1
 252 003c 03340101 		ld	s0,16(sp)
 253              		.cfi_restore 8
 254              		.cfi_def_cfa 2, 32
 255 0040 83348100 		ld	s1,8(sp)
 256              		.cfi_restore 9
 257              	.LVL17:
 258 0044 13010102 		addi	sp,sp,32
 259              		.cfi_def_cfa_offset 0
 260 0048 67800000 		jr	ra
 261              		.cfi_endproc
 262              	.LFE70:
 264              		.section	.text._ZN13GetCharThreadD2Ev,"axG",@progbits,_ZN13GetCharThreadD5Ev,comdat
 265              		.align	2
 266              		.weak	_ZN13GetCharThreadD2Ev
 268              	_ZN13GetCharThreadD2Ev:
 269              	.LFB64:
  57:src/../h/Cons.hpp **** public:
 270              		.loc 3 57 7 is_stmt 1
 271              		.cfi_startproc
 272              	.LVL18:
 273 0000 130101FF 		addi	sp,sp,-16
 274              		.cfi_def_cfa_offset 16
 275 0004 23341100 		sd	ra,8(sp)
 276 0008 23308100 		sd	s0,0(sp)
 277              		.cfi_offset 1, -8
 278              		.cfi_offset 8, -16
 279 000c 13040101 		addi	s0,sp,16
 280              		.cfi_def_cfa 8, 0
 281              	.LBB68:
  57:src/../h/Cons.hpp **** public:
 282              		.loc 3 57 7 is_stmt 0
 283 0010 97070000 		lla	a5,_ZTV13GetCharThread+16
 283      93870700 
 284 0018 2330F500 		sd	a5,0(a0)
 285 001c 97000000 		call	_ZN6ThreadD2Ev@plt
 285      E7800000 
 286              	.LVL19:
 287              	.LBE68:
 288 0024 83308100 		ld	ra,8(sp)
 289              		.cfi_restore 1
 290 0028 03340100 		ld	s0,0(sp)
GAS LISTING /tmp/ccaOOzD6.s 			page 9


 291              		.cfi_restore 8
 292              		.cfi_def_cfa 2, 16
 293 002c 13010101 		addi	sp,sp,16
 294              		.cfi_def_cfa_offset 0
 295 0030 67800000 		jr	ra
 296              		.cfi_endproc
 297              	.LFE64:
 299              		.weak	_ZN13GetCharThreadD1Ev
 300              		.set	_ZN13GetCharThreadD1Ev,_ZN13GetCharThreadD2Ev
 301              		.section	.text._ZN13GetCharThreadD0Ev,"axG",@progbits,_ZN13GetCharThreadD5Ev,comdat
 302              		.align	2
 303              		.weak	_ZN13GetCharThreadD0Ev
 305              	_ZN13GetCharThreadD0Ev:
 306              	.LFB66:
  57:src/../h/Cons.hpp **** public:
 307              		.loc 3 57 7 is_stmt 1
 308              		.cfi_startproc
 309              	.LVL20:
 310 0000 130101FE 		addi	sp,sp,-32
 311              		.cfi_def_cfa_offset 32
 312 0004 233C1100 		sd	ra,24(sp)
 313 0008 23388100 		sd	s0,16(sp)
 314 000c 23349100 		sd	s1,8(sp)
 315              		.cfi_offset 1, -8
 316              		.cfi_offset 8, -16
 317              		.cfi_offset 9, -24
 318 0010 13040102 		addi	s0,sp,32
 319              		.cfi_def_cfa 8, 0
 320 0014 93040500 		mv	s1,a0
 321              	.LVL21:
 322              	.LBB69:
 323              	.LBB70:
  57:src/../h/Cons.hpp **** public:
 324              		.loc 3 57 7 is_stmt 0
 325 0018 97070000 		lla	a5,_ZTV13GetCharThread+16
 325      93870700 
 326 0020 2330F500 		sd	a5,0(a0)
 327 0024 97000000 		call	_ZN6ThreadD2Ev@plt
 327      E7800000 
 328              	.LVL22:
 329              	.LBE70:
 330              	.LBE69:
 331 002c 13850400 		mv	a0,s1
 332 0030 97000000 		call	_ZdlPv@plt
 332      E7800000 
 333              	.LVL23:
 334 0038 83308101 		ld	ra,24(sp)
 335              		.cfi_restore 1
 336 003c 03340101 		ld	s0,16(sp)
 337              		.cfi_restore 8
 338              		.cfi_def_cfa 2, 32
 339 0040 83348100 		ld	s1,8(sp)
 340              		.cfi_restore 9
 341              	.LVL24:
 342 0044 13010102 		addi	sp,sp,32
 343              		.cfi_def_cfa_offset 0
 344 0048 67800000 		jr	ra
GAS LISTING /tmp/ccaOOzD6.s 			page 10


 345              		.cfi_endproc
 346              	.LFE66:
 348              		.section	.text._ZN8ConsumerD2Ev,"axG",@progbits,_ZN8ConsumerD5Ev,comdat
 349              		.align	2
 350              		.weak	_ZN8ConsumerD2Ev
 352              	_ZN8ConsumerD2Ev:
 353              	.LFB44:
 354              		.file 4 "src/../test/ConsumerProducer_CPP_Sync_API_test.hpp"
   1:src/../test/ConsumerProducer_CPP_Sync_API_test.hpp **** //
   2:src/../test/ConsumerProducer_CPP_Sync_API_test.hpp **** // Created by os on 4/17/22.
   3:src/../test/ConsumerProducer_CPP_Sync_API_test.hpp **** //
   4:src/../test/ConsumerProducer_CPP_Sync_API_test.hpp **** 
   5:src/../test/ConsumerProducer_CPP_Sync_API_test.hpp **** #ifndef XV6_CONSUMERPRODUCER_CPP_Sync_API_TEST_H
   6:src/../test/ConsumerProducer_CPP_Sync_API_test.hpp **** #define XV6_CONSUMERPRODUCER_CPP_Sync_API_TEST_H
   7:src/../test/ConsumerProducer_CPP_Sync_API_test.hpp **** 
   8:src/../test/ConsumerProducer_CPP_Sync_API_test.hpp **** #include "../h/syscall_cpp.hpp"
   9:src/../test/ConsumerProducer_CPP_Sync_API_test.hpp **** 
  10:src/../test/ConsumerProducer_CPP_Sync_API_test.hpp **** #include "buffer_CPP_API.hpp"
  11:src/../test/ConsumerProducer_CPP_Sync_API_test.hpp **** 
  12:src/../test/ConsumerProducer_CPP_Sync_API_test.hpp **** Semaphore* waitForAll;
  13:src/../test/ConsumerProducer_CPP_Sync_API_test.hpp **** 
  14:src/../test/ConsumerProducer_CPP_Sync_API_test.hpp **** struct thread_data {
  15:src/../test/ConsumerProducer_CPP_Sync_API_test.hpp ****     int id;
  16:src/../test/ConsumerProducer_CPP_Sync_API_test.hpp ****     BufferCPP *buffer;
  17:src/../test/ConsumerProducer_CPP_Sync_API_test.hpp ****     Semaphore* wait;
  18:src/../test/ConsumerProducer_CPP_Sync_API_test.hpp **** };
  19:src/../test/ConsumerProducer_CPP_Sync_API_test.hpp **** 
  20:src/../test/ConsumerProducer_CPP_Sync_API_test.hpp **** volatile int threadEnd = 0;
  21:src/../test/ConsumerProducer_CPP_Sync_API_test.hpp **** 
  22:src/../test/ConsumerProducer_CPP_Sync_API_test.hpp **** class ProducerKeyboard:public Thread {
  23:src/../test/ConsumerProducer_CPP_Sync_API_test.hpp ****     thread_data* td;
  24:src/../test/ConsumerProducer_CPP_Sync_API_test.hpp ****     void producerKeyboard(void *arg);
  25:src/../test/ConsumerProducer_CPP_Sync_API_test.hpp **** public:
  26:src/../test/ConsumerProducer_CPP_Sync_API_test.hpp ****     ProducerKeyboard(thread_data* _td):Thread(), td(_td) {}
  27:src/../test/ConsumerProducer_CPP_Sync_API_test.hpp **** 
  28:src/../test/ConsumerProducer_CPP_Sync_API_test.hpp ****     void run() override {
  29:src/../test/ConsumerProducer_CPP_Sync_API_test.hpp ****         producerKeyboard(td);
  30:src/../test/ConsumerProducer_CPP_Sync_API_test.hpp ****     }
  31:src/../test/ConsumerProducer_CPP_Sync_API_test.hpp **** };
  32:src/../test/ConsumerProducer_CPP_Sync_API_test.hpp **** 
  33:src/../test/ConsumerProducer_CPP_Sync_API_test.hpp **** void ProducerKeyboard::producerKeyboard(void *arg) {
  34:src/../test/ConsumerProducer_CPP_Sync_API_test.hpp ****     struct thread_data *data = (struct thread_data *) arg;
  35:src/../test/ConsumerProducer_CPP_Sync_API_test.hpp **** 
  36:src/../test/ConsumerProducer_CPP_Sync_API_test.hpp ****     int key;
  37:src/../test/ConsumerProducer_CPP_Sync_API_test.hpp ****     int i = 0;
  38:src/../test/ConsumerProducer_CPP_Sync_API_test.hpp ****     while ((key = getc()) != 0x1b) {
  39:src/../test/ConsumerProducer_CPP_Sync_API_test.hpp ****         data->buffer->put(key);
  40:src/../test/ConsumerProducer_CPP_Sync_API_test.hpp ****         i++;
  41:src/../test/ConsumerProducer_CPP_Sync_API_test.hpp **** 
  42:src/../test/ConsumerProducer_CPP_Sync_API_test.hpp ****         if (i % (10 * data->id) == 0) {
  43:src/../test/ConsumerProducer_CPP_Sync_API_test.hpp ****             Thread::dispatch();
  44:src/../test/ConsumerProducer_CPP_Sync_API_test.hpp ****         }
  45:src/../test/ConsumerProducer_CPP_Sync_API_test.hpp ****     }
  46:src/../test/ConsumerProducer_CPP_Sync_API_test.hpp **** 
  47:src/../test/ConsumerProducer_CPP_Sync_API_test.hpp ****     threadEnd = 1;
  48:src/../test/ConsumerProducer_CPP_Sync_API_test.hpp ****     td->buffer->put('!');
  49:src/../test/ConsumerProducer_CPP_Sync_API_test.hpp **** 
GAS LISTING /tmp/ccaOOzD6.s 			page 11


  50:src/../test/ConsumerProducer_CPP_Sync_API_test.hpp ****     data->wait->signal();
  51:src/../test/ConsumerProducer_CPP_Sync_API_test.hpp **** }
  52:src/../test/ConsumerProducer_CPP_Sync_API_test.hpp **** 
  53:src/../test/ConsumerProducer_CPP_Sync_API_test.hpp **** class Producer:public Thread {
  54:src/../test/ConsumerProducer_CPP_Sync_API_test.hpp ****     thread_data* td;
  55:src/../test/ConsumerProducer_CPP_Sync_API_test.hpp ****     void producer(void *arg);
  56:src/../test/ConsumerProducer_CPP_Sync_API_test.hpp **** public:
  57:src/../test/ConsumerProducer_CPP_Sync_API_test.hpp ****     Producer(thread_data* _td):Thread(), td(_td) {}
  58:src/../test/ConsumerProducer_CPP_Sync_API_test.hpp **** 
  59:src/../test/ConsumerProducer_CPP_Sync_API_test.hpp ****     void run() override {
  60:src/../test/ConsumerProducer_CPP_Sync_API_test.hpp ****         producer(td);
  61:src/../test/ConsumerProducer_CPP_Sync_API_test.hpp ****     }
  62:src/../test/ConsumerProducer_CPP_Sync_API_test.hpp **** };
  63:src/../test/ConsumerProducer_CPP_Sync_API_test.hpp **** 
  64:src/../test/ConsumerProducer_CPP_Sync_API_test.hpp **** void Producer::producer(void *arg) {
  65:src/../test/ConsumerProducer_CPP_Sync_API_test.hpp ****     struct thread_data *data = (struct thread_data *) arg;
  66:src/../test/ConsumerProducer_CPP_Sync_API_test.hpp **** 
  67:src/../test/ConsumerProducer_CPP_Sync_API_test.hpp ****     int i = 0;
  68:src/../test/ConsumerProducer_CPP_Sync_API_test.hpp ****     while (!threadEnd) {
  69:src/../test/ConsumerProducer_CPP_Sync_API_test.hpp ****         data->buffer->put(data->id + '0');
  70:src/../test/ConsumerProducer_CPP_Sync_API_test.hpp ****         i++;
  71:src/../test/ConsumerProducer_CPP_Sync_API_test.hpp **** 
  72:src/../test/ConsumerProducer_CPP_Sync_API_test.hpp ****         if (i % (10 * data->id) == 0) {
  73:src/../test/ConsumerProducer_CPP_Sync_API_test.hpp ****             Thread::dispatch();
  74:src/../test/ConsumerProducer_CPP_Sync_API_test.hpp ****         }
  75:src/../test/ConsumerProducer_CPP_Sync_API_test.hpp ****     }
  76:src/../test/ConsumerProducer_CPP_Sync_API_test.hpp **** 
  77:src/../test/ConsumerProducer_CPP_Sync_API_test.hpp ****     data->wait->signal();
  78:src/../test/ConsumerProducer_CPP_Sync_API_test.hpp **** }
  79:src/../test/ConsumerProducer_CPP_Sync_API_test.hpp **** 
  80:src/../test/ConsumerProducer_CPP_Sync_API_test.hpp **** class Consumer:public Thread {
 355              		.loc 4 80 7 is_stmt 1
 356              		.cfi_startproc
 357              	.LVL25:
 358 0000 130101FF 		addi	sp,sp,-16
 359              		.cfi_def_cfa_offset 16
 360 0004 23341100 		sd	ra,8(sp)
 361 0008 23308100 		sd	s0,0(sp)
 362              		.cfi_offset 1, -8
 363              		.cfi_offset 8, -16
 364 000c 13040101 		addi	s0,sp,16
 365              		.cfi_def_cfa 8, 0
 366              	.LBB71:
 367              		.loc 4 80 7 is_stmt 0
 368 0010 97070000 		lla	a5,_ZTV8Consumer+16
 368      93870700 
 369 0018 2330F500 		sd	a5,0(a0)
 370 001c 97000000 		call	_ZN6ThreadD2Ev@plt
 370      E7800000 
 371              	.LVL26:
 372              	.LBE71:
 373 0024 83308100 		ld	ra,8(sp)
 374              		.cfi_restore 1
 375 0028 03340100 		ld	s0,0(sp)
 376              		.cfi_restore 8
 377              		.cfi_def_cfa 2, 16
 378 002c 13010101 		addi	sp,sp,16
GAS LISTING /tmp/ccaOOzD6.s 			page 12


 379              		.cfi_def_cfa_offset 0
 380 0030 67800000 		jr	ra
 381              		.cfi_endproc
 382              	.LFE44:
 384              		.weak	_ZN8ConsumerD1Ev
 385              		.set	_ZN8ConsumerD1Ev,_ZN8ConsumerD2Ev
 386              		.section	.text._ZN8ConsumerD0Ev,"axG",@progbits,_ZN8ConsumerD5Ev,comdat
 387              		.align	2
 388              		.weak	_ZN8ConsumerD0Ev
 390              	_ZN8ConsumerD0Ev:
 391              	.LFB46:
 392              		.loc 4 80 7 is_stmt 1
 393              		.cfi_startproc
 394              	.LVL27:
 395 0000 130101FE 		addi	sp,sp,-32
 396              		.cfi_def_cfa_offset 32
 397 0004 233C1100 		sd	ra,24(sp)
 398 0008 23388100 		sd	s0,16(sp)
 399 000c 23349100 		sd	s1,8(sp)
 400              		.cfi_offset 1, -8
 401              		.cfi_offset 8, -16
 402              		.cfi_offset 9, -24
 403 0010 13040102 		addi	s0,sp,32
 404              		.cfi_def_cfa 8, 0
 405 0014 93040500 		mv	s1,a0
 406              	.LVL28:
 407              	.LBB72:
 408              	.LBB73:
 409              		.loc 4 80 7 is_stmt 0
 410 0018 97070000 		lla	a5,_ZTV8Consumer+16
 410      93870700 
 411 0020 2330F500 		sd	a5,0(a0)
 412 0024 97000000 		call	_ZN6ThreadD2Ev@plt
 412      E7800000 
 413              	.LVL29:
 414              	.LBE73:
 415              	.LBE72:
 416 002c 13850400 		mv	a0,s1
 417 0030 97000000 		call	_ZdlPv@plt
 417      E7800000 
 418              	.LVL30:
 419 0038 83308101 		ld	ra,24(sp)
 420              		.cfi_restore 1
 421 003c 03340101 		ld	s0,16(sp)
 422              		.cfi_restore 8
 423              		.cfi_def_cfa 2, 32
 424 0040 83348100 		ld	s1,8(sp)
 425              		.cfi_restore 9
 426              	.LVL31:
 427 0044 13010102 		addi	sp,sp,32
 428              		.cfi_def_cfa_offset 0
 429 0048 67800000 		jr	ra
 430              		.cfi_endproc
 431              	.LFE46:
 433              		.section	.text._ZN8ProducerD2Ev,"axG",@progbits,_ZN8ProducerD5Ev,comdat
 434              		.align	2
 435              		.weak	_ZN8ProducerD2Ev
GAS LISTING /tmp/ccaOOzD6.s 			page 13


 437              	_ZN8ProducerD2Ev:
 438              	.LFB48:
  53:src/../test/ConsumerProducer_CPP_Sync_API_test.hpp ****     thread_data* td;
 439              		.loc 4 53 7 is_stmt 1
 440              		.cfi_startproc
 441              	.LVL32:
 442 0000 130101FF 		addi	sp,sp,-16
 443              		.cfi_def_cfa_offset 16
 444 0004 23341100 		sd	ra,8(sp)
 445 0008 23308100 		sd	s0,0(sp)
 446              		.cfi_offset 1, -8
 447              		.cfi_offset 8, -16
 448 000c 13040101 		addi	s0,sp,16
 449              		.cfi_def_cfa 8, 0
 450              	.LBB74:
  53:src/../test/ConsumerProducer_CPP_Sync_API_test.hpp ****     thread_data* td;
 451              		.loc 4 53 7 is_stmt 0
 452 0010 97070000 		lla	a5,_ZTV8Producer+16
 452      93870700 
 453 0018 2330F500 		sd	a5,0(a0)
 454 001c 97000000 		call	_ZN6ThreadD2Ev@plt
 454      E7800000 
 455              	.LVL33:
 456              	.LBE74:
 457 0024 83308100 		ld	ra,8(sp)
 458              		.cfi_restore 1
 459 0028 03340100 		ld	s0,0(sp)
 460              		.cfi_restore 8
 461              		.cfi_def_cfa 2, 16
 462 002c 13010101 		addi	sp,sp,16
 463              		.cfi_def_cfa_offset 0
 464 0030 67800000 		jr	ra
 465              		.cfi_endproc
 466              	.LFE48:
 468              		.weak	_ZN8ProducerD1Ev
 469              		.set	_ZN8ProducerD1Ev,_ZN8ProducerD2Ev
 470              		.section	.text._ZN8ProducerD0Ev,"axG",@progbits,_ZN8ProducerD5Ev,comdat
 471              		.align	2
 472              		.weak	_ZN8ProducerD0Ev
 474              	_ZN8ProducerD0Ev:
 475              	.LFB50:
  53:src/../test/ConsumerProducer_CPP_Sync_API_test.hpp ****     thread_data* td;
 476              		.loc 4 53 7 is_stmt 1
 477              		.cfi_startproc
 478              	.LVL34:
 479 0000 130101FE 		addi	sp,sp,-32
 480              		.cfi_def_cfa_offset 32
 481 0004 233C1100 		sd	ra,24(sp)
 482 0008 23388100 		sd	s0,16(sp)
 483 000c 23349100 		sd	s1,8(sp)
 484              		.cfi_offset 1, -8
 485              		.cfi_offset 8, -16
 486              		.cfi_offset 9, -24
 487 0010 13040102 		addi	s0,sp,32
 488              		.cfi_def_cfa 8, 0
 489 0014 93040500 		mv	s1,a0
 490              	.LVL35:
GAS LISTING /tmp/ccaOOzD6.s 			page 14


 491              	.LBB75:
 492              	.LBB76:
  53:src/../test/ConsumerProducer_CPP_Sync_API_test.hpp ****     thread_data* td;
 493              		.loc 4 53 7 is_stmt 0
 494 0018 97070000 		lla	a5,_ZTV8Producer+16
 494      93870700 
 495 0020 2330F500 		sd	a5,0(a0)
 496 0024 97000000 		call	_ZN6ThreadD2Ev@plt
 496      E7800000 
 497              	.LVL36:
 498              	.LBE76:
 499              	.LBE75:
 500 002c 13850400 		mv	a0,s1
 501 0030 97000000 		call	_ZdlPv@plt
 501      E7800000 
 502              	.LVL37:
 503 0038 83308101 		ld	ra,24(sp)
 504              		.cfi_restore 1
 505 003c 03340101 		ld	s0,16(sp)
 506              		.cfi_restore 8
 507              		.cfi_def_cfa 2, 32
 508 0040 83348100 		ld	s1,8(sp)
 509              		.cfi_restore 9
 510              	.LVL38:
 511 0044 13010102 		addi	sp,sp,32
 512              		.cfi_def_cfa_offset 0
 513 0048 67800000 		jr	ra
 514              		.cfi_endproc
 515              	.LFE50:
 517              		.section	.text._ZN16ProducerKeyboardD2Ev,"axG",@progbits,_ZN16ProducerKeyboardD5Ev,comdat
 518              		.align	2
 519              		.weak	_ZN16ProducerKeyboardD2Ev
 521              	_ZN16ProducerKeyboardD2Ev:
 522              	.LFB52:
  22:src/../test/ConsumerProducer_CPP_Sync_API_test.hpp ****     thread_data* td;
 523              		.loc 4 22 7 is_stmt 1
 524              		.cfi_startproc
 525              	.LVL39:
 526 0000 130101FF 		addi	sp,sp,-16
 527              		.cfi_def_cfa_offset 16
 528 0004 23341100 		sd	ra,8(sp)
 529 0008 23308100 		sd	s0,0(sp)
 530              		.cfi_offset 1, -8
 531              		.cfi_offset 8, -16
 532 000c 13040101 		addi	s0,sp,16
 533              		.cfi_def_cfa 8, 0
 534              	.LBB77:
  22:src/../test/ConsumerProducer_CPP_Sync_API_test.hpp ****     thread_data* td;
 535              		.loc 4 22 7 is_stmt 0
 536 0010 97070000 		lla	a5,_ZTV16ProducerKeyboard+16
 536      93870700 
 537 0018 2330F500 		sd	a5,0(a0)
 538 001c 97000000 		call	_ZN6ThreadD2Ev@plt
 538      E7800000 
 539              	.LVL40:
 540              	.LBE77:
 541 0024 83308100 		ld	ra,8(sp)
GAS LISTING /tmp/ccaOOzD6.s 			page 15


 542              		.cfi_restore 1
 543 0028 03340100 		ld	s0,0(sp)
 544              		.cfi_restore 8
 545              		.cfi_def_cfa 2, 16
 546 002c 13010101 		addi	sp,sp,16
 547              		.cfi_def_cfa_offset 0
 548 0030 67800000 		jr	ra
 549              		.cfi_endproc
 550              	.LFE52:
 552              		.weak	_ZN16ProducerKeyboardD1Ev
 553              		.set	_ZN16ProducerKeyboardD1Ev,_ZN16ProducerKeyboardD2Ev
 554              		.section	.text._ZN16ProducerKeyboardD0Ev,"axG",@progbits,_ZN16ProducerKeyboardD5Ev,comdat
 555              		.align	2
 556              		.weak	_ZN16ProducerKeyboardD0Ev
 558              	_ZN16ProducerKeyboardD0Ev:
 559              	.LFB54:
  22:src/../test/ConsumerProducer_CPP_Sync_API_test.hpp ****     thread_data* td;
 560              		.loc 4 22 7 is_stmt 1
 561              		.cfi_startproc
 562              	.LVL41:
 563 0000 130101FE 		addi	sp,sp,-32
 564              		.cfi_def_cfa_offset 32
 565 0004 233C1100 		sd	ra,24(sp)
 566 0008 23388100 		sd	s0,16(sp)
 567 000c 23349100 		sd	s1,8(sp)
 568              		.cfi_offset 1, -8
 569              		.cfi_offset 8, -16
 570              		.cfi_offset 9, -24
 571 0010 13040102 		addi	s0,sp,32
 572              		.cfi_def_cfa 8, 0
 573 0014 93040500 		mv	s1,a0
 574              	.LVL42:
 575              	.LBB78:
 576              	.LBB79:
  22:src/../test/ConsumerProducer_CPP_Sync_API_test.hpp ****     thread_data* td;
 577              		.loc 4 22 7 is_stmt 0
 578 0018 97070000 		lla	a5,_ZTV16ProducerKeyboard+16
 578      93870700 
 579 0020 2330F500 		sd	a5,0(a0)
 580 0024 97000000 		call	_ZN6ThreadD2Ev@plt
 580      E7800000 
 581              	.LVL43:
 582              	.LBE79:
 583              	.LBE78:
 584 002c 13850400 		mv	a0,s1
 585 0030 97000000 		call	_ZdlPv@plt
 585      E7800000 
 586              	.LVL44:
 587 0038 83308101 		ld	ra,24(sp)
 588              		.cfi_restore 1
 589 003c 03340101 		ld	s0,16(sp)
 590              		.cfi_restore 8
 591              		.cfi_def_cfa 2, 32
 592 0040 83348100 		ld	s1,8(sp)
 593              		.cfi_restore 9
 594              	.LVL45:
 595 0044 13010102 		addi	sp,sp,32
GAS LISTING /tmp/ccaOOzD6.s 			page 16


 596              		.cfi_def_cfa_offset 0
 597 0048 67800000 		jr	ra
 598              		.cfi_endproc
 599              	.LFE54:
 601              		.section	.text._ZN14PeriodicThreadD2Ev,"axG",@progbits,_ZN14PeriodicThreadD5Ev,comdat
 602              		.align	2
 603              		.weak	_ZN14PeriodicThreadD2Ev
 605              	_ZN14PeriodicThreadD2Ev:
 606              	.LFB12:
  41:src/../h/syscall_cpp.hpp **** public:
 607              		.loc 1 41 7 is_stmt 1
 608              		.cfi_startproc
 609              	.LVL46:
 610 0000 130101FF 		addi	sp,sp,-16
 611              		.cfi_def_cfa_offset 16
 612 0004 23341100 		sd	ra,8(sp)
 613 0008 23308100 		sd	s0,0(sp)
 614              		.cfi_offset 1, -8
 615              		.cfi_offset 8, -16
 616 000c 13040101 		addi	s0,sp,16
 617              		.cfi_def_cfa 8, 0
 618              	.LBB80:
  41:src/../h/syscall_cpp.hpp **** public:
 619              		.loc 1 41 7 is_stmt 0
 620 0010 97070000 		lla	a5,_ZTV14PeriodicThread+16
 620      93870700 
 621 0018 2330F500 		sd	a5,0(a0)
 622 001c 97000000 		call	_ZN6ThreadD2Ev@plt
 622      E7800000 
 623              	.LVL47:
 624              	.LBE80:
 625 0024 83308100 		ld	ra,8(sp)
 626              		.cfi_restore 1
 627 0028 03340100 		ld	s0,0(sp)
 628              		.cfi_restore 8
 629              		.cfi_def_cfa 2, 16
 630 002c 13010101 		addi	sp,sp,16
 631              		.cfi_def_cfa_offset 0
 632 0030 67800000 		jr	ra
 633              		.cfi_endproc
 634              	.LFE12:
 636              		.weak	_ZN14PeriodicThreadD1Ev
 637              		.set	_ZN14PeriodicThreadD1Ev,_ZN14PeriodicThreadD2Ev
 638              		.section	.text._ZN14PeriodicThreadD0Ev,"axG",@progbits,_ZN14PeriodicThreadD5Ev,comdat
 639              		.align	2
 640              		.weak	_ZN14PeriodicThreadD0Ev
 642              	_ZN14PeriodicThreadD0Ev:
 643              	.LFB14:
  41:src/../h/syscall_cpp.hpp **** public:
 644              		.loc 1 41 7 is_stmt 1
 645              		.cfi_startproc
 646              	.LVL48:
 647 0000 130101FE 		addi	sp,sp,-32
 648              		.cfi_def_cfa_offset 32
 649 0004 233C1100 		sd	ra,24(sp)
 650 0008 23388100 		sd	s0,16(sp)
 651 000c 23349100 		sd	s1,8(sp)
GAS LISTING /tmp/ccaOOzD6.s 			page 17


 652              		.cfi_offset 1, -8
 653              		.cfi_offset 8, -16
 654              		.cfi_offset 9, -24
 655 0010 13040102 		addi	s0,sp,32
 656              		.cfi_def_cfa 8, 0
 657 0014 93040500 		mv	s1,a0
 658              	.LVL49:
 659              	.LBB81:
 660              	.LBB82:
  41:src/../h/syscall_cpp.hpp **** public:
 661              		.loc 1 41 7 is_stmt 0
 662 0018 97070000 		lla	a5,_ZTV14PeriodicThread+16
 662      93870700 
 663 0020 2330F500 		sd	a5,0(a0)
 664 0024 97000000 		call	_ZN6ThreadD2Ev@plt
 664      E7800000 
 665              	.LVL50:
 666              	.LBE82:
 667              	.LBE81:
 668 002c 13850400 		mv	a0,s1
 669 0030 97000000 		call	_ZdlPv@plt
 669      E7800000 
 670              	.LVL51:
 671 0038 83308101 		ld	ra,24(sp)
 672              		.cfi_restore 1
 673 003c 03340101 		ld	s0,16(sp)
 674              		.cfi_restore 8
 675              		.cfi_def_cfa 2, 32
 676 0040 83348100 		ld	s1,8(sp)
 677              		.cfi_restore 9
 678              	.LVL52:
 679 0044 13010102 		addi	sp,sp,32
 680              		.cfi_def_cfa_offset 0
 681 0048 67800000 		jr	ra
 682              		.cfi_endproc
 683              	.LFE14:
 685              		.section	.text._ZN6PrintPD2Ev,"axG",@progbits,_ZN6PrintPD5Ev,comdat
 686              		.align	2
 687              		.weak	_ZN6PrintPD2Ev
 689              	_ZN6PrintPD2Ev:
 690              	.LFB60:
  12:src/test.cpp  **** 
 691              		.loc 2 12 7 is_stmt 1
 692              		.cfi_startproc
 693              	.LVL53:
 694 0000 130101FF 		addi	sp,sp,-16
 695              		.cfi_def_cfa_offset 16
 696 0004 23341100 		sd	ra,8(sp)
 697 0008 23308100 		sd	s0,0(sp)
 698              		.cfi_offset 1, -8
 699              		.cfi_offset 8, -16
 700 000c 13040101 		addi	s0,sp,16
 701              		.cfi_def_cfa 8, 0
 702              	.LVL54:
 703              	.LBB83:
 704              	.LBB84:
  41:src/../h/syscall_cpp.hpp **** public:
GAS LISTING /tmp/ccaOOzD6.s 			page 18


 705              		.loc 1 41 7 is_stmt 0
 706 0010 97070000 		lla	a5,_ZTV14PeriodicThread+16
 706      93870700 
 707 0018 2330F500 		sd	a5,0(a0)
 708 001c 97000000 		call	_ZN6ThreadD2Ev@plt
 708      E7800000 
 709              	.LVL55:
 710              	.LBE84:
 711              	.LBE83:
  12:src/test.cpp  **** 
 712              		.loc 2 12 7
 713 0024 83308100 		ld	ra,8(sp)
 714              		.cfi_restore 1
 715 0028 03340100 		ld	s0,0(sp)
 716              		.cfi_restore 8
 717              		.cfi_def_cfa 2, 16
 718 002c 13010101 		addi	sp,sp,16
 719              		.cfi_def_cfa_offset 0
 720 0030 67800000 		jr	ra
 721              		.cfi_endproc
 722              	.LFE60:
 724              		.weak	_ZN6PrintPD1Ev
 725              		.set	_ZN6PrintPD1Ev,_ZN6PrintPD2Ev
 726              		.section	.text._ZN6PrintPD0Ev,"axG",@progbits,_ZN6PrintPD5Ev,comdat
 727              		.align	2
 728              		.weak	_ZN6PrintPD0Ev
 730              	_ZN6PrintPD0Ev:
 731              	.LFB62:
  12:src/test.cpp  **** 
 732              		.loc 2 12 7 is_stmt 1
 733              		.cfi_startproc
 734              	.LVL56:
 735 0000 130101FE 		addi	sp,sp,-32
 736              		.cfi_def_cfa_offset 32
 737 0004 233C1100 		sd	ra,24(sp)
 738 0008 23388100 		sd	s0,16(sp)
 739 000c 23349100 		sd	s1,8(sp)
 740              		.cfi_offset 1, -8
 741              		.cfi_offset 8, -16
 742              		.cfi_offset 9, -24
 743 0010 13040102 		addi	s0,sp,32
 744              		.cfi_def_cfa 8, 0
 745 0014 93040500 		mv	s1,a0
 746              	.LVL57:
 747              	.LBB85:
 748              	.LBB86:
 749              	.LBB87:
  41:src/../h/syscall_cpp.hpp **** public:
 750              		.loc 1 41 7 is_stmt 0
 751 0018 97070000 		lla	a5,_ZTV14PeriodicThread+16
 751      93870700 
 752 0020 2330F500 		sd	a5,0(a0)
 753 0024 97000000 		call	_ZN6ThreadD2Ev@plt
 753      E7800000 
 754              	.LVL58:
 755              	.LBE87:
 756              	.LBE86:
GAS LISTING /tmp/ccaOOzD6.s 			page 19


 757              	.LBE85:
  12:src/test.cpp  **** 
 758              		.loc 2 12 7
 759 002c 13850400 		mv	a0,s1
 760 0030 97000000 		call	_ZdlPv@plt
 760      E7800000 
 761              	.LVL59:
 762 0038 83308101 		ld	ra,24(sp)
 763              		.cfi_restore 1
 764 003c 03340101 		ld	s0,16(sp)
 765              		.cfi_restore 8
 766              		.cfi_def_cfa 2, 32
 767 0040 83348100 		ld	s1,8(sp)
 768              		.cfi_restore 9
 769              	.LVL60:
 770 0044 13010102 		addi	sp,sp,32
 771              		.cfi_def_cfa_offset 0
 772 0048 67800000 		jr	ra
 773              		.cfi_endproc
 774              	.LFE62:
 776              		.section	.text._ZN6PrintAD2Ev,"axG",@progbits,_ZN6PrintAD5Ev,comdat
 777              		.align	2
 778              		.weak	_ZN6PrintAD2Ev
 780              	_ZN6PrintAD2Ev:
 781              	.LFB56:
  21:src/test.cpp  **** 
 782              		.loc 2 21 7 is_stmt 1
 783              		.cfi_startproc
 784              	.LVL61:
 785 0000 130101FF 		addi	sp,sp,-16
 786              		.cfi_def_cfa_offset 16
 787 0004 23341100 		sd	ra,8(sp)
 788 0008 23308100 		sd	s0,0(sp)
 789              		.cfi_offset 1, -8
 790              		.cfi_offset 8, -16
 791 000c 13040101 		addi	s0,sp,16
 792              		.cfi_def_cfa 8, 0
 793              	.LVL62:
 794              	.LBB88:
 795              	.LBB89:
  41:src/../h/syscall_cpp.hpp **** public:
 796              		.loc 1 41 7 is_stmt 0
 797 0010 97070000 		lla	a5,_ZTV14PeriodicThread+16
 797      93870700 
 798 0018 2330F500 		sd	a5,0(a0)
 799 001c 97000000 		call	_ZN6ThreadD2Ev@plt
 799      E7800000 
 800              	.LVL63:
 801              	.LBE89:
 802              	.LBE88:
  21:src/test.cpp  **** 
 803              		.loc 2 21 7
 804 0024 83308100 		ld	ra,8(sp)
 805              		.cfi_restore 1
 806 0028 03340100 		ld	s0,0(sp)
 807              		.cfi_restore 8
 808              		.cfi_def_cfa 2, 16
GAS LISTING /tmp/ccaOOzD6.s 			page 20


 809 002c 13010101 		addi	sp,sp,16
 810              		.cfi_def_cfa_offset 0
 811 0030 67800000 		jr	ra
 812              		.cfi_endproc
 813              	.LFE56:
 815              		.weak	_ZN6PrintAD1Ev
 816              		.set	_ZN6PrintAD1Ev,_ZN6PrintAD2Ev
 817              		.section	.text._ZN6PrintAD0Ev,"axG",@progbits,_ZN6PrintAD5Ev,comdat
 818              		.align	2
 819              		.weak	_ZN6PrintAD0Ev
 821              	_ZN6PrintAD0Ev:
 822              	.LFB58:
  21:src/test.cpp  **** 
 823              		.loc 2 21 7 is_stmt 1
 824              		.cfi_startproc
 825              	.LVL64:
 826 0000 130101FE 		addi	sp,sp,-32
 827              		.cfi_def_cfa_offset 32
 828 0004 233C1100 		sd	ra,24(sp)
 829 0008 23388100 		sd	s0,16(sp)
 830 000c 23349100 		sd	s1,8(sp)
 831              		.cfi_offset 1, -8
 832              		.cfi_offset 8, -16
 833              		.cfi_offset 9, -24
 834 0010 13040102 		addi	s0,sp,32
 835              		.cfi_def_cfa 8, 0
 836 0014 93040500 		mv	s1,a0
 837              	.LVL65:
 838              	.LBB90:
 839              	.LBB91:
 840              	.LBB92:
  41:src/../h/syscall_cpp.hpp **** public:
 841              		.loc 1 41 7 is_stmt 0
 842 0018 97070000 		lla	a5,_ZTV14PeriodicThread+16
 842      93870700 
 843 0020 2330F500 		sd	a5,0(a0)
 844 0024 97000000 		call	_ZN6ThreadD2Ev@plt
 844      E7800000 
 845              	.LVL66:
 846              	.LBE92:
 847              	.LBE91:
 848              	.LBE90:
  21:src/test.cpp  **** 
 849              		.loc 2 21 7
 850 002c 13850400 		mv	a0,s1
 851 0030 97000000 		call	_ZdlPv@plt
 851      E7800000 
 852              	.LVL67:
 853 0038 83308101 		ld	ra,24(sp)
 854              		.cfi_restore 1
 855 003c 03340101 		ld	s0,16(sp)
 856              		.cfi_restore 8
 857              		.cfi_def_cfa 2, 32
 858 0040 83348100 		ld	s1,8(sp)
 859              		.cfi_restore 9
 860              	.LVL68:
 861 0044 13010102 		addi	sp,sp,32
GAS LISTING /tmp/ccaOOzD6.s 			page 21


 862              		.cfi_def_cfa_offset 0
 863 0048 67800000 		jr	ra
 864              		.cfi_endproc
 865              	.LFE58:
 867              		.section	.text._ZN6PrintP18periodicActivationEv,"axG",@progbits,_ZN6PrintP18periodicActivationEv,c
 868              		.align	2
 869              		.weak	_ZN6PrintP18periodicActivationEv
 871              	_ZN6PrintP18periodicActivationEv:
 872              	.LFB17:
  16:src/test.cpp  ****         Console::putc('A');
 873              		.loc 2 16 10 is_stmt 1
 874              		.cfi_startproc
 875              	.LVL69:
 876 0000 130101FF 		addi	sp,sp,-16
 877              		.cfi_def_cfa_offset 16
 878 0004 23341100 		sd	ra,8(sp)
 879 0008 23308100 		sd	s0,0(sp)
 880              		.cfi_offset 1, -8
 881              		.cfi_offset 8, -16
 882 000c 13040101 		addi	s0,sp,16
 883              		.cfi_def_cfa 8, 0
  17:src/test.cpp  ****         Console::putc(' ');
 884              		.loc 2 17 9
  17:src/test.cpp  ****         Console::putc(' ');
 885              		.loc 2 17 22 is_stmt 0
 886 0010 13051004 		li	a0,65
 887              	.LVL70:
 888 0014 97000000 		call	_ZN7Console4putcEc@plt
 888      E7800000 
 889              	.LVL71:
  18:src/test.cpp  ****     }
 890              		.loc 2 18 9 is_stmt 1
  18:src/test.cpp  ****     }
 891              		.loc 2 18 22 is_stmt 0
 892 001c 13050002 		li	a0,32
 893 0020 97000000 		call	_ZN7Console4putcEc@plt
 893      E7800000 
 894              	.LVL72:
  19:src/test.cpp  **** };
 895              		.loc 2 19 5
 896 0028 83308100 		ld	ra,8(sp)
 897              		.cfi_restore 1
 898 002c 03340100 		ld	s0,0(sp)
 899              		.cfi_restore 8
 900              		.cfi_def_cfa 2, 16
 901 0030 13010101 		addi	sp,sp,16
 902              		.cfi_def_cfa_offset 0
 903 0034 67800000 		jr	ra
 904              		.cfi_endproc
 905              	.LFE17:
 907              		.section	.text._ZN6PrintA18periodicActivationEv,"axG",@progbits,_ZN6PrintA18periodicActivationEv,c
 908              		.align	2
 909              		.weak	_ZN6PrintA18periodicActivationEv
 911              	_ZN6PrintA18periodicActivationEv:
 912              	.LFB21:
  25:src/test.cpp  ****         Console::putc('B');
 913              		.loc 2 25 10 is_stmt 1
GAS LISTING /tmp/ccaOOzD6.s 			page 22


 914              		.cfi_startproc
 915              	.LVL73:
 916 0000 130101FF 		addi	sp,sp,-16
 917              		.cfi_def_cfa_offset 16
 918 0004 23341100 		sd	ra,8(sp)
 919 0008 23308100 		sd	s0,0(sp)
 920              		.cfi_offset 1, -8
 921              		.cfi_offset 8, -16
 922 000c 13040101 		addi	s0,sp,16
 923              		.cfi_def_cfa 8, 0
  26:src/test.cpp  ****         Console::putc(' ');
 924              		.loc 2 26 9
  26:src/test.cpp  ****         Console::putc(' ');
 925              		.loc 2 26 22 is_stmt 0
 926 0010 13052004 		li	a0,66
 927              	.LVL74:
 928 0014 97000000 		call	_ZN7Console4putcEc@plt
 928      E7800000 
 929              	.LVL75:
  27:src/test.cpp  ****     }
 930              		.loc 2 27 9 is_stmt 1
  27:src/test.cpp  ****     }
 931              		.loc 2 27 22 is_stmt 0
 932 001c 13050002 		li	a0,32
 933 0020 97000000 		call	_ZN7Console4putcEc@plt
 933      E7800000 
 934              	.LVL76:
  28:src/test.cpp  **** };
 935              		.loc 2 28 5
 936 0028 83308100 		ld	ra,8(sp)
 937              		.cfi_restore 1
 938 002c 03340100 		ld	s0,0(sp)
 939              		.cfi_restore 8
 940              		.cfi_def_cfa 2, 16
 941 0030 13010101 		addi	sp,sp,16
 942              		.cfi_def_cfa_offset 0
 943 0034 67800000 		jr	ra
 944              		.cfi_endproc
 945              	.LFE21:
 947              		.text
 948              		.align	2
 949              		.globl	_Z4initv
 951              	_Z4initv:
 952              	.LFB23:
  33:src/test.cpp  ****     }
  34:src/test.cpp  **** }
  35:src/test.cpp  **** 
  36:src/test.cpp  **** void init(){
 953              		.loc 2 36 12 is_stmt 1
 954              		.cfi_startproc
 955              		.cfi_personality 0x9b,DW.ref.__gxx_personality_v0
 956              		.cfi_lsda 0x1b,.LLSDA23
 957 001c 130101FD 		addi	sp,sp,-48
 958              		.cfi_def_cfa_offset 48
 959 0020 23341102 		sd	ra,40(sp)
 960 0024 23308102 		sd	s0,32(sp)
 961 0028 233C9100 		sd	s1,24(sp)
GAS LISTING /tmp/ccaOOzD6.s 			page 23


 962 002c 23382101 		sd	s2,16(sp)
 963 0030 23343101 		sd	s3,8(sp)
 964              		.cfi_offset 1, -8
 965              		.cfi_offset 8, -16
 966              		.cfi_offset 9, -24
 967              		.cfi_offset 18, -32
 968              		.cfi_offset 19, -40
 969 0034 13040103 		addi	s0,sp,48
 970              		.cfi_def_cfa 8, 0
  37:src/test.cpp  ****     Interrupt::w_stvec((uint64) &Interrupt::callRoutine);
 971              		.loc 2 37 5
 972              		.loc 2 37 23 is_stmt 0
 973 0038 17050000 		la	a0,_ZN9Interrupt11callRoutineEv
 973      03350500 
 974              	.LEHB0:
 975 0040 97000000 		call	_ZN9Interrupt7w_stvecEm@plt
 975      E7800000 
 976              	.LVL77:
  38:src/test.cpp  ****     Thread* startThread = new Thread(&medium, nullptr);
 977              		.loc 2 38 5 is_stmt 1
 978              		.loc 2 38 54 is_stmt 0
 979 0048 13050001 		li	a0,16
 980 004c 97000000 		call	_Znwm@plt
 980      E7800000 
 981              	.LVL78:
 982              	.LEHE0:
 983 0054 93040500 		mv	s1,a0
 984 0058 13060000 		li	a2,0
 985 005c 97050000 		lla	a1,_Z6mediumPv
 985      93850500 
 986              	.LEHB1:
 987 0064 97000000 		call	_ZN6ThreadC1EPFvPvES0_@plt
 987      E7800000 
 988              	.LVL79:
 989              	.LEHE1:
  39:src/test.cpp  ****     startThread->start();
 990              		.loc 2 39 5 is_stmt 1 discriminator 2
 991              		.loc 2 39 23 is_stmt 0 discriminator 2
 992 006c 13850400 		mv	a0,s1
 993              	.LEHB2:
 994 0070 97000000 		call	_ZN6Thread5startEv@plt
 994      E7800000 
 995              	.LVL80:
  40:src/test.cpp  ****     PCB::sleeping_list = new PCB_List();
 996              		.loc 2 40 5 is_stmt 1 discriminator 2
 997              		.loc 2 40 39 is_stmt 0 discriminator 2
 998 0078 13050001 		li	a0,16
 999 007c 97000000 		call	_Znwm@plt
 999      E7800000 
 1000              	.LVL81:
 1001              	.LEHE2:
 1002 0084 93040500 		mv	s1,a0
 1003              	.LVL82:
 1004              	.LEHB3:
 1005 0088 97000000 		call	_ZN8PCB_ListC1Ev@plt
 1005      E7800000 
 1006              	.LVL83:
GAS LISTING /tmp/ccaOOzD6.s 			page 24


 1007              	.LEHE3:
 1008              		.loc 2 40 24 discriminator 2
 1009 0090 97070000 		la	a5,_ZN3PCB13sleeping_listE
 1009      83B70700 
 1010 0098 23B09700 		sd	s1,0(a5)
  41:src/test.cpp  ****     PCB::perioThreads = new PCB_List();
 1011              		.loc 2 41 5 is_stmt 1 discriminator 2
 1012              		.loc 2 41 38 is_stmt 0 discriminator 2
 1013 009c 13050001 		li	a0,16
 1014              	.LEHB4:
 1015 00a0 97000000 		call	_Znwm@plt
 1015      E7800000 
 1016              	.LVL84:
 1017              	.LEHE4:
 1018 00a8 93040500 		mv	s1,a0
 1019              	.LEHB5:
 1020 00ac 97000000 		call	_ZN8PCB_ListC1Ev@plt
 1020      E7800000 
 1021              	.LVL85:
 1022              	.LEHE5:
 1023              		.loc 2 41 23 discriminator 4
 1024 00b4 97070000 		la	a5,_ZN3PCB12perioThreadsE
 1024      83B70700 
 1025 00bc 23B09700 		sd	s1,0(a5)
  42:src/test.cpp  ****     PutCharThread* putCharThread =new PutCharThread();
 1026              		.loc 2 42 5 is_stmt 1 discriminator 4
 1027              		.loc 2 42 53 is_stmt 0 discriminator 4
 1028 00c0 13050001 		li	a0,16
 1029              	.LEHB6:
 1030 00c4 97000000 		call	_Znwm@plt
 1030      E7800000 
 1031              	.LVL86:
 1032              	.LEHE6:
 1033 00cc 13090500 		mv	s2,a0
 1034              	.LVL87:
 1035              	.LEHB7:
 1036              	.LBB93:
 1037              	.LBB94:
  37:src/../h/Cons.hpp **** 
 1038              		.loc 3 37 30 discriminator 4
 1039 00d0 97000000 		call	_ZN6ThreadC2Ev@plt
 1039      E7800000 
 1040              	.LVL88:
 1041              	.LEHE7:
  37:src/../h/Cons.hpp **** 
 1042              		.loc 3 37 30
 1043 00d8 97070000 		lla	a5,_ZTV13PutCharThread+16
 1043      93870700 
 1044 00e0 2330F900 		sd	a5,0(s2)
 1045              	.LVL89:
 1046              	.LBE94:
 1047              	.LBE93:
  43:src/test.cpp  ****     GetCharThread* getCharThread = new GetCharThread();
 1048              		.loc 2 43 5 is_stmt 1
 1049              		.loc 2 43 54 is_stmt 0
 1050 00e4 13050001 		li	a0,16
 1051              	.LEHB8:
GAS LISTING /tmp/ccaOOzD6.s 			page 25


 1052 00e8 97000000 		call	_Znwm@plt
 1052      E7800000 
 1053              	.LVL90:
 1054              	.LEHE8:
 1055 00f0 93040500 		mv	s1,a0
 1056              	.LVL91:
 1057              	.LEHB9:
 1058              	.LBB95:
 1059              	.LBB96:
  60:src/../h/Cons.hpp ****     }
 1060              		.loc 3 60 30
 1061 00f4 97000000 		call	_ZN6ThreadC2Ev@plt
 1061      E7800000 
 1062              	.LVL92:
 1063              	.LEHE9:
 1064 00fc 97070000 		lla	a5,_ZTV13GetCharThread+16
 1064      93870700 
 1065 0104 23B0F400 		sd	a5,0(s1)
 1066              	.LVL93:
 1067              	.LBE96:
 1068              	.LBE95:
  44:src/test.cpp  ****     Cons::outputBuffer = new CharBuffer(128 * sizeof (char));
 1069              		.loc 2 44 5 is_stmt 1
 1070              		.loc 2 44 60 is_stmt 0
 1071 0108 13058003 		li	a0,56
 1072              	.LEHB10:
 1073 010c 97000000 		call	_Znwm@plt
 1073      E7800000 
 1074              	.LVL94:
 1075              	.LEHE10:
 1076 0114 93090500 		mv	s3,a0
 1077 0118 93050008 		li	a1,128
 1078              	.LEHB11:
 1079 011c 97000000 		call	_ZN10CharBufferC1Ei@plt
 1079      E7800000 
 1080              	.LVL95:
 1081              	.LEHE11:
 1082              		.loc 2 44 24 discriminator 2
 1083 0124 97070000 		la	a5,_ZN4Cons12outputBufferE
 1083      83B70700 
 1084 012c 23B03701 		sd	s3,0(a5)
  45:src/test.cpp  ****     Cons::inputBuffer = new CharBuffer(128 * sizeof (char));
 1085              		.loc 2 45 5 is_stmt 1 discriminator 2
 1086              		.loc 2 45 59 is_stmt 0 discriminator 2
 1087 0130 13058003 		li	a0,56
 1088              	.LEHB12:
 1089 0134 97000000 		call	_Znwm@plt
 1089      E7800000 
 1090              	.LVL96:
 1091              	.LEHE12:
 1092 013c 93090500 		mv	s3,a0
 1093 0140 93050008 		li	a1,128
 1094              	.LEHB13:
 1095 0144 97000000 		call	_ZN10CharBufferC1Ei@plt
 1095      E7800000 
 1096              	.LVL97:
 1097              	.LEHE13:
GAS LISTING /tmp/ccaOOzD6.s 			page 26


 1098              		.loc 2 45 23 discriminator 2
 1099 014c 97070000 		la	a5,_ZN4Cons11inputBufferE
 1099      83B70700 
 1100 0154 23B03701 		sd	s3,0(a5)
  46:src/test.cpp  **** 
  47:src/test.cpp  ****     putCharThread->start();
 1101              		.loc 2 47 5 is_stmt 1 discriminator 2
 1102              		.loc 2 47 25 is_stmt 0 discriminator 2
 1103 0158 13050900 		mv	a0,s2
 1104              	.LEHB14:
 1105 015c 97000000 		call	_ZN6Thread5startEv@plt
 1105      E7800000 
 1106              	.LVL98:
  48:src/test.cpp  ****     getCharThread->start();
 1107              		.loc 2 48 5 is_stmt 1 discriminator 2
 1108              		.loc 2 48 25 is_stmt 0 discriminator 2
 1109 0164 13850400 		mv	a0,s1
 1110 0168 97000000 		call	_ZN6Thread5startEv@plt
 1110      E7800000 
 1111              	.LVL99:
  49:src/test.cpp  **** 
  50:src/test.cpp  ****     //Interrupt::userMaskSoft();
  51:src/test.cpp  ****     switchToUserMode();
 1112              		.loc 2 51 5 is_stmt 1 discriminator 2
 1113              		.loc 2 51 21 is_stmt 0 discriminator 2
 1114 0170 97000000 		call	switchToUserMode@plt
 1114      E7800000 
 1115              	.LVL100:
  52:src/test.cpp  **** }
 1116              		.loc 2 52 1 discriminator 2
 1117 0178 83308102 		ld	ra,40(sp)
 1118              		.cfi_remember_state
 1119              		.cfi_restore 1
 1120 017c 03340102 		ld	s0,32(sp)
 1121              		.cfi_restore 8
 1122              		.cfi_def_cfa 2, 48
 1123 0180 83348101 		ld	s1,24(sp)
 1124              		.cfi_restore 9
 1125 0184 03390101 		ld	s2,16(sp)
 1126              		.cfi_restore 18
 1127 0188 83398100 		ld	s3,8(sp)
 1128              		.cfi_restore 19
 1129 018c 13010103 		addi	sp,sp,48
 1130              		.cfi_def_cfa_offset 0
 1131 0190 67800000 		jr	ra
 1132              	.L59:
 1133              		.cfi_restore_state
 1134 0194 13090500 		mv	s2,a0
  38:src/test.cpp  ****     startThread->start();
 1135              		.loc 2 38 54
 1136 0198 13850400 		mv	a0,s1
 1137 019c 97000000 		call	_ZdlPv@plt
 1137      E7800000 
 1138              	.LVL101:
 1139 01a4 13050900 		mv	a0,s2
 1140 01a8 97000000 		call	_Unwind_Resume@plt
 1140      E7800000 
GAS LISTING /tmp/ccaOOzD6.s 			page 27


 1141              	.LVL102:
 1142              	.L60:
 1143 01b0 13090500 		mv	s2,a0
  40:src/test.cpp  ****     PCB::perioThreads = new PCB_List();
 1144              		.loc 2 40 39
 1145 01b4 13850400 		mv	a0,s1
 1146 01b8 97000000 		call	_ZdlPv@plt
 1146      E7800000 
 1147              	.LVL103:
 1148 01c0 13050900 		mv	a0,s2
 1149 01c4 97000000 		call	_Unwind_Resume@plt
 1149      E7800000 
 1150              	.LVL104:
 1151              	.L61:
 1152 01cc 13090500 		mv	s2,a0
  41:src/test.cpp  ****     PutCharThread* putCharThread =new PutCharThread();
 1153              		.loc 2 41 38
 1154 01d0 13850400 		mv	a0,s1
 1155 01d4 97000000 		call	_ZdlPv@plt
 1155      E7800000 
 1156              	.LVL105:
 1157 01dc 13050900 		mv	a0,s2
 1158 01e0 97000000 		call	_Unwind_Resume@plt
 1158      E7800000 
 1159              	.LVL106:
 1160              	.L62:
 1161 01e8 93040500 		mv	s1,a0
  42:src/test.cpp  ****     GetCharThread* getCharThread = new GetCharThread();
 1162              		.loc 2 42 53
 1163 01ec 13050900 		mv	a0,s2
 1164 01f0 97000000 		call	_ZdlPv@plt
 1164      E7800000 
 1165              	.LVL107:
 1166 01f8 13850400 		mv	a0,s1
 1167 01fc 97000000 		call	_Unwind_Resume@plt
 1167      E7800000 
 1168              	.LVL108:
 1169              	.L63:
 1170 0204 13090500 		mv	s2,a0
  43:src/test.cpp  ****     Cons::outputBuffer = new CharBuffer(128 * sizeof (char));
 1171              		.loc 2 43 54
 1172 0208 13850400 		mv	a0,s1
 1173 020c 97000000 		call	_ZdlPv@plt
 1173      E7800000 
 1174              	.LVL109:
 1175 0214 13050900 		mv	a0,s2
 1176 0218 97000000 		call	_Unwind_Resume@plt
 1176      E7800000 
 1177              	.LVL110:
 1178              	.L64:
 1179 0220 93040500 		mv	s1,a0
  44:src/test.cpp  ****     Cons::inputBuffer = new CharBuffer(128 * sizeof (char));
 1180              		.loc 2 44 60
 1181 0224 13850900 		mv	a0,s3
 1182 0228 97000000 		call	_ZdlPv@plt
 1182      E7800000 
 1183              	.LVL111:
GAS LISTING /tmp/ccaOOzD6.s 			page 28


 1184 0230 13850400 		mv	a0,s1
 1185 0234 97000000 		call	_Unwind_Resume@plt
 1185      E7800000 
 1186              	.LVL112:
 1187              	.L65:
 1188 023c 93040500 		mv	s1,a0
  45:src/test.cpp  **** 
 1189              		.loc 2 45 59
 1190 0240 13850900 		mv	a0,s3
 1191 0244 97000000 		call	_ZdlPv@plt
 1191      E7800000 
 1192              	.LVL113:
 1193 024c 13850400 		mv	a0,s1
 1194 0250 97000000 		call	_Unwind_Resume@plt
 1194      E7800000 
 1195              	.LVL114:
 1196              	.LEHE14:
 1197              		.cfi_endproc
 1198              	.LFE23:
 1199              		.globl	__gxx_personality_v0
 1200              		.section	.gcc_except_table,"a",@progbits
 1201              	.LLSDA23:
 1202 0000 FF       		.byte	0xff
 1203 0001 FF       		.byte	0xff
 1204 0002 03       		.byte	0x3
 1205 0003 C301     		.byte	0xc3,0x1
 1206 0005 00000000 		.4byte	.LEHB0-.LFB23
 1207 0009 00000000 		.4byte	.LEHE0-.LEHB0
 1208 000d 00000000 		.4byte	0
 1209 0011 00       		.byte	0
 1210 0012 00000000 		.4byte	.LEHB1-.LFB23
 1211 0016 00000000 		.4byte	.LEHE1-.LEHB1
 1212 001a 00000000 		.4byte	.L59-.LFB23
 1213 001e 00       		.byte	0
 1214 001f 00000000 		.4byte	.LEHB2-.LFB23
 1215 0023 00000000 		.4byte	.LEHE2-.LEHB2
 1216 0027 00000000 		.4byte	0
 1217 002b 00       		.byte	0
 1218 002c 00000000 		.4byte	.LEHB3-.LFB23
 1219 0030 00000000 		.4byte	.LEHE3-.LEHB3
 1220 0034 00000000 		.4byte	.L60-.LFB23
 1221 0038 00       		.byte	0
 1222 0039 00000000 		.4byte	.LEHB4-.LFB23
 1223 003d 00000000 		.4byte	.LEHE4-.LEHB4
 1224 0041 00000000 		.4byte	0
 1225 0045 00       		.byte	0
 1226 0046 00000000 		.4byte	.LEHB5-.LFB23
 1227 004a 00000000 		.4byte	.LEHE5-.LEHB5
 1228 004e 00000000 		.4byte	.L61-.LFB23
 1229 0052 00       		.byte	0
 1230 0053 00000000 		.4byte	.LEHB6-.LFB23
 1231 0057 00000000 		.4byte	.LEHE6-.LEHB6
 1232 005b 00000000 		.4byte	0
 1233 005f 00       		.byte	0
 1234 0060 00000000 		.4byte	.LEHB7-.LFB23
 1235 0064 00000000 		.4byte	.LEHE7-.LEHB7
 1236 0068 00000000 		.4byte	.L62-.LFB23
GAS LISTING /tmp/ccaOOzD6.s 			page 29


 1237 006c 00       		.byte	0
 1238 006d 00000000 		.4byte	.LEHB8-.LFB23
 1239 0071 00000000 		.4byte	.LEHE8-.LEHB8
 1240 0075 00000000 		.4byte	0
 1241 0079 00       		.byte	0
 1242 007a 00000000 		.4byte	.LEHB9-.LFB23
 1243 007e 00000000 		.4byte	.LEHE9-.LEHB9
 1244 0082 00000000 		.4byte	.L63-.LFB23
 1245 0086 00       		.byte	0
 1246 0087 00000000 		.4byte	.LEHB10-.LFB23
 1247 008b 00000000 		.4byte	.LEHE10-.LEHB10
 1248 008f 00000000 		.4byte	0
 1249 0093 00       		.byte	0
 1250 0094 00000000 		.4byte	.LEHB11-.LFB23
 1251 0098 00000000 		.4byte	.LEHE11-.LEHB11
 1252 009c 00000000 		.4byte	.L64-.LFB23
 1253 00a0 00       		.byte	0
 1254 00a1 00000000 		.4byte	.LEHB12-.LFB23
 1255 00a5 00000000 		.4byte	.LEHE12-.LEHB12
 1256 00a9 00000000 		.4byte	0
 1257 00ad 00       		.byte	0
 1258 00ae 00000000 		.4byte	.LEHB13-.LFB23
 1259 00b2 00000000 		.4byte	.LEHE13-.LEHB13
 1260 00b6 00000000 		.4byte	.L65-.LFB23
 1261 00ba 00       		.byte	0
 1262 00bb 00000000 		.4byte	.LEHB14-.LFB23
 1263 00bf 00000000 		.4byte	.LEHE14-.LEHB14
 1264 00c3 00000000 		.4byte	0
 1265 00c7 00       		.byte	0
 1266              		.text
 1268              		.align	2
 1269              		.globl	_Z4destv
 1271              	_Z4destv:
 1272              	.LFB24:
  53:src/test.cpp  **** void dest(){
 1273              		.loc 2 53 12 is_stmt 1
 1274              		.cfi_startproc
 1275 0258 130101FF 		addi	sp,sp,-16
 1276              		.cfi_def_cfa_offset 16
 1277 025c 23341100 		sd	ra,8(sp)
 1278 0260 23308100 		sd	s0,0(sp)
 1279              		.cfi_offset 1, -8
 1280              		.cfi_offset 8, -16
 1281 0264 13040101 		addi	s0,sp,16
 1282              		.cfi_def_cfa 8, 0
 1283              	.L70:
  54:src/test.cpp  ****     while (Cons::outputBuffer->getSize() > 0){Thread::dispatch();}
 1284              		.loc 2 54 5 discriminator 2
 1285              		.loc 2 54 42 discriminator 2
 1286              		.loc 2 54 39 is_stmt 0 discriminator 2
 1287 0268 97070000 		la	a5,_ZN4Cons12outputBufferE
 1287      83B70700 
 1288 0270 03B50700 		ld	a0,0(a5)
 1289 0274 97000000 		call	_ZN10CharBuffer7getSizeEv@plt
 1289      E7800000 
 1290              	.LVL115:
 1291              		.loc 2 54 42 discriminator 2
GAS LISTING /tmp/ccaOOzD6.s 			page 30


 1292 027c 6358A000 		blez	a0,.L68
 1293              		.loc 2 54 47 is_stmt 1 discriminator 1
 1294              		.loc 2 54 63 is_stmt 0 discriminator 1
 1295 0280 97000000 		call	_ZN6Thread8dispatchEv@plt
 1295      E7800000 
 1296              	.LVL116:
 1297              		.loc 2 54 5 discriminator 1
 1298 0288 6FF01FFE 		j	.L70
 1299              	.L68:
  55:src/test.cpp  **** 
  56:src/test.cpp  **** }
 1300              		.loc 2 56 1
 1301 028c 83308100 		ld	ra,8(sp)
 1302              		.cfi_restore 1
 1303 0290 03340100 		ld	s0,0(sp)
 1304              		.cfi_restore 8
 1305              		.cfi_def_cfa 2, 16
 1306 0294 13010101 		addi	sp,sp,16
 1307              		.cfi_def_cfa_offset 0
 1308 0298 67800000 		jr	ra
 1309              		.cfi_endproc
 1310              	.LFE24:
 1312              		.align	2
 1313              		.globl	_ZN16ProducerKeyboard16producerKeyboardEPv
 1315              	_ZN16ProducerKeyboard16producerKeyboardEPv:
 1316              	.LFB29:
  33:src/../test/ConsumerProducer_CPP_Sync_API_test.hpp ****     struct thread_data *data = (struct thread_data *) arg;
 1317              		.loc 4 33 52 is_stmt 1
 1318              		.cfi_startproc
 1319              	.LVL117:
 1320 029c 130101FD 		addi	sp,sp,-48
 1321              		.cfi_def_cfa_offset 48
 1322 02a0 23341102 		sd	ra,40(sp)
 1323 02a4 23308102 		sd	s0,32(sp)
 1324 02a8 233C9100 		sd	s1,24(sp)
 1325 02ac 23382101 		sd	s2,16(sp)
 1326 02b0 23343101 		sd	s3,8(sp)
 1327              		.cfi_offset 1, -8
 1328              		.cfi_offset 8, -16
 1329              		.cfi_offset 9, -24
 1330              		.cfi_offset 18, -32
 1331              		.cfi_offset 19, -40
 1332 02b4 13040103 		addi	s0,sp,48
 1333              		.cfi_def_cfa 8, 0
 1334 02b8 93090500 		mv	s3,a0
 1335 02bc 93840500 		mv	s1,a1
  34:src/../test/ConsumerProducer_CPP_Sync_API_test.hpp **** 
 1336              		.loc 4 34 5
 1337              	.LVL118:
  36:src/../test/ConsumerProducer_CPP_Sync_API_test.hpp ****     int i = 0;
 1338              		.loc 4 36 5
  37:src/../test/ConsumerProducer_CPP_Sync_API_test.hpp ****     while ((key = getc()) != 0x1b) {
 1339              		.loc 4 37 5
  37:src/../test/ConsumerProducer_CPP_Sync_API_test.hpp ****     while ((key = getc()) != 0x1b) {
 1340              		.loc 4 37 9 is_stmt 0
 1341 02c0 13090000 		li	s2,0
 1342 02c4 6F00C000 		j	.L73
GAS LISTING /tmp/ccaOOzD6.s 			page 31


 1343              	.LVL119:
 1344              	.L77:
  43:src/../test/ConsumerProducer_CPP_Sync_API_test.hpp ****         }
 1345              		.loc 4 43 13 is_stmt 1
  43:src/../test/ConsumerProducer_CPP_Sync_API_test.hpp ****         }
 1346              		.loc 4 43 29 is_stmt 0
 1347 02c8 97000000 		call	_ZN6Thread8dispatchEv@plt
 1347      E7800000 
 1348              	.LVL120:
 1349              	.L73:
  38:src/../test/ConsumerProducer_CPP_Sync_API_test.hpp ****         data->buffer->put(key);
 1350              		.loc 4 38 5 is_stmt 1
  38:src/../test/ConsumerProducer_CPP_Sync_API_test.hpp ****         data->buffer->put(key);
 1351              		.loc 4 38 27
  38:src/../test/ConsumerProducer_CPP_Sync_API_test.hpp ****         data->buffer->put(key);
 1352              		.loc 4 38 23 is_stmt 0
 1353 02d0 97000000 		call	getc@plt
 1353      E7800000 
 1354              	.LVL121:
  38:src/../test/ConsumerProducer_CPP_Sync_API_test.hpp ****         data->buffer->put(key);
 1355              		.loc 4 38 17
 1356 02d8 9B050500 		sext.w	a1,a0
 1357              	.LVL122:
  38:src/../test/ConsumerProducer_CPP_Sync_API_test.hpp ****         data->buffer->put(key);
 1358              		.loc 4 38 27
 1359 02dc 9307B001 		li	a5,27
 1360 02e0 638AF502 		beq	a1,a5,.L74
  39:src/../test/ConsumerProducer_CPP_Sync_API_test.hpp ****         i++;
 1361              		.loc 4 39 9 is_stmt 1
  39:src/../test/ConsumerProducer_CPP_Sync_API_test.hpp ****         i++;
 1362              		.loc 4 39 26 is_stmt 0
 1363 02e4 03B58400 		ld	a0,8(s1)
 1364 02e8 97000000 		call	_ZN9BufferCPP3putEi@plt
 1364      E7800000 
 1365              	.LVL123:
  40:src/../test/ConsumerProducer_CPP_Sync_API_test.hpp **** 
 1366              		.loc 4 40 9 is_stmt 1
  40:src/../test/ConsumerProducer_CPP_Sync_API_test.hpp **** 
 1367              		.loc 4 40 10 is_stmt 0
 1368 02f0 1B071900 		addiw	a4,s2,1
 1369 02f4 1B090700 		sext.w	s2,a4
 1370              	.LVL124:
  42:src/../test/ConsumerProducer_CPP_Sync_API_test.hpp ****             Thread::dispatch();
 1371              		.loc 4 42 9 is_stmt 1
  42:src/../test/ConsumerProducer_CPP_Sync_API_test.hpp ****             Thread::dispatch();
 1372              		.loc 4 42 29 is_stmt 0
 1373 02f8 83A60400 		lw	a3,0(s1)
  42:src/../test/ConsumerProducer_CPP_Sync_API_test.hpp ****             Thread::dispatch();
 1374              		.loc 4 42 21
 1375 02fc 9B972600 		slliw	a5,a3,2
 1376 0300 BB87D700 		addw	a5,a5,a3
 1377 0304 9B971700 		slliw	a5,a5,1
  42:src/../test/ConsumerProducer_CPP_Sync_API_test.hpp ****             Thread::dispatch();
 1378              		.loc 4 42 15
 1379 0308 BB67F702 		remw	a5,a4,a5
  42:src/../test/ConsumerProducer_CPP_Sync_API_test.hpp ****             Thread::dispatch();
 1380              		.loc 4 42 9
GAS LISTING /tmp/ccaOOzD6.s 			page 32


 1381 030c E39207FC 		bnez	a5,.L73
 1382 0310 6FF09FFB 		j	.L77
 1383              	.LVL125:
 1384              	.L74:
  47:src/../test/ConsumerProducer_CPP_Sync_API_test.hpp ****     td->buffer->put('!');
 1385              		.loc 4 47 5 is_stmt 1
  47:src/../test/ConsumerProducer_CPP_Sync_API_test.hpp ****     td->buffer->put('!');
 1386              		.loc 4 47 15 is_stmt 0
 1387 0314 93071000 		li	a5,1
 1388 0318 17070000 		sw	a5,.LANCHOR0,a4
 1388      2320F700 
  48:src/../test/ConsumerProducer_CPP_Sync_API_test.hpp **** 
 1389              		.loc 4 48 5 is_stmt 1
 1390 0320 83B70901 		ld	a5,16(s3)
  48:src/../test/ConsumerProducer_CPP_Sync_API_test.hpp **** 
 1391              		.loc 4 48 20 is_stmt 0
 1392 0324 93051002 		li	a1,33
 1393              	.LVL126:
 1394 0328 03B58700 		ld	a0,8(a5)
 1395              	.LVL127:
 1396 032c 97000000 		call	_ZN9BufferCPP3putEi@plt
 1396      E7800000 
 1397              	.LVL128:
  50:src/../test/ConsumerProducer_CPP_Sync_API_test.hpp **** }
 1398              		.loc 4 50 5 is_stmt 1
  50:src/../test/ConsumerProducer_CPP_Sync_API_test.hpp **** }
 1399              		.loc 4 50 23 is_stmt 0
 1400 0334 03B50401 		ld	a0,16(s1)
 1401 0338 97000000 		call	_ZN9Semaphore6signalEv@plt
 1401      E7800000 
 1402              	.LVL129:
  51:src/../test/ConsumerProducer_CPP_Sync_API_test.hpp **** 
 1403              		.loc 4 51 1
 1404 0340 83308102 		ld	ra,40(sp)
 1405              		.cfi_restore 1
 1406 0344 03340102 		ld	s0,32(sp)
 1407              		.cfi_restore 8
 1408              		.cfi_def_cfa 2, 48
 1409 0348 83348101 		ld	s1,24(sp)
 1410              		.cfi_restore 9
 1411              	.LVL130:
 1412 034c 03390101 		ld	s2,16(sp)
 1413              		.cfi_restore 18
 1414              	.LVL131:
 1415 0350 83398100 		ld	s3,8(sp)
 1416              		.cfi_restore 19
 1417              	.LVL132:
 1418 0354 13010103 		addi	sp,sp,48
 1419              		.cfi_def_cfa_offset 0
 1420 0358 67800000 		jr	ra
 1421              		.cfi_endproc
 1422              	.LFE29:
 1424              		.section	.text._ZN16ProducerKeyboard3runEv,"axG",@progbits,_ZN16ProducerKeyboard3runEv,comdat
 1425              		.align	2
 1426              		.weak	_ZN16ProducerKeyboard3runEv
 1428              	_ZN16ProducerKeyboard3runEv:
 1429              	.LFB28:
GAS LISTING /tmp/ccaOOzD6.s 			page 33


  28:src/../test/ConsumerProducer_CPP_Sync_API_test.hpp ****         producerKeyboard(td);
 1430              		.loc 4 28 10 is_stmt 1
 1431              		.cfi_startproc
 1432              	.LVL133:
 1433 0000 130101FF 		addi	sp,sp,-16
 1434              		.cfi_def_cfa_offset 16
 1435 0004 23341100 		sd	ra,8(sp)
 1436 0008 23308100 		sd	s0,0(sp)
 1437              		.cfi_offset 1, -8
 1438              		.cfi_offset 8, -16
 1439 000c 13040101 		addi	s0,sp,16
 1440              		.cfi_def_cfa 8, 0
  29:src/../test/ConsumerProducer_CPP_Sync_API_test.hpp ****     }
 1441              		.loc 4 29 9
  29:src/../test/ConsumerProducer_CPP_Sync_API_test.hpp ****     }
 1442              		.loc 4 29 25 is_stmt 0
 1443 0010 83350501 		ld	a1,16(a0)
 1444 0014 97000000 		call	_ZN16ProducerKeyboard16producerKeyboardEPv
 1444      E7800000 
 1445              	.LVL134:
  30:src/../test/ConsumerProducer_CPP_Sync_API_test.hpp **** };
 1446              		.loc 4 30 5
 1447 001c 83308100 		ld	ra,8(sp)
 1448              		.cfi_restore 1
 1449 0020 03340100 		ld	s0,0(sp)
 1450              		.cfi_restore 8
 1451              		.cfi_def_cfa 2, 16
 1452 0024 13010101 		addi	sp,sp,16
 1453              		.cfi_def_cfa_offset 0
 1454 0028 67800000 		jr	ra
 1455              		.cfi_endproc
 1456              	.LFE28:
 1458              		.text
 1459              		.align	2
 1460              		.globl	_ZN8Producer8producerEPv
 1462              	_ZN8Producer8producerEPv:
 1463              	.LFB34:
  64:src/../test/ConsumerProducer_CPP_Sync_API_test.hpp ****     struct thread_data *data = (struct thread_data *) arg;
 1464              		.loc 4 64 36 is_stmt 1
 1465              		.cfi_startproc
 1466              	.LVL135:
 1467 035c 130101FE 		addi	sp,sp,-32
 1468              		.cfi_def_cfa_offset 32
 1469 0360 233C1100 		sd	ra,24(sp)
 1470 0364 23388100 		sd	s0,16(sp)
 1471 0368 23349100 		sd	s1,8(sp)
 1472 036c 23302101 		sd	s2,0(sp)
 1473              		.cfi_offset 1, -8
 1474              		.cfi_offset 8, -16
 1475              		.cfi_offset 9, -24
 1476              		.cfi_offset 18, -32
 1477 0370 13040102 		addi	s0,sp,32
 1478              		.cfi_def_cfa 8, 0
 1479 0374 93840500 		mv	s1,a1
  65:src/../test/ConsumerProducer_CPP_Sync_API_test.hpp **** 
 1480              		.loc 4 65 5
 1481              	.LVL136:
GAS LISTING /tmp/ccaOOzD6.s 			page 34


  67:src/../test/ConsumerProducer_CPP_Sync_API_test.hpp ****     while (!threadEnd) {
 1482              		.loc 4 67 5
  67:src/../test/ConsumerProducer_CPP_Sync_API_test.hpp ****     while (!threadEnd) {
 1483              		.loc 4 67 9 is_stmt 0
 1484 0378 13090000 		li	s2,0
 1485 037c 6F00C000 		j	.L81
 1486              	.LVL137:
 1487              	.L85:
  73:src/../test/ConsumerProducer_CPP_Sync_API_test.hpp ****         }
 1488              		.loc 4 73 13 is_stmt 1
  73:src/../test/ConsumerProducer_CPP_Sync_API_test.hpp ****         }
 1489              		.loc 4 73 29 is_stmt 0
 1490 0380 97000000 		call	_ZN6Thread8dispatchEv@plt
 1490      E7800000 
 1491              	.LVL138:
 1492              	.L81:
  68:src/../test/ConsumerProducer_CPP_Sync_API_test.hpp ****         data->buffer->put(data->id + '0');
 1493              		.loc 4 68 5 is_stmt 1
  68:src/../test/ConsumerProducer_CPP_Sync_API_test.hpp ****         data->buffer->put(data->id + '0');
 1494              		.loc 4 68 12
 1495 0388 97070000 		lw	a5,.LANCHOR0
 1495      83A70700 
 1496 0390 639E0702 		bnez	a5,.L82
  69:src/../test/ConsumerProducer_CPP_Sync_API_test.hpp ****         i++;
 1497              		.loc 4 69 9
  69:src/../test/ConsumerProducer_CPP_Sync_API_test.hpp ****         i++;
 1498              		.loc 4 69 33 is_stmt 0
 1499 0394 83A50400 		lw	a1,0(s1)
  69:src/../test/ConsumerProducer_CPP_Sync_API_test.hpp ****         i++;
 1500              		.loc 4 69 26
 1501 0398 9B850503 		addiw	a1,a1,48
 1502 039c 03B58400 		ld	a0,8(s1)
 1503 03a0 97000000 		call	_ZN9BufferCPP3putEi@plt
 1503      E7800000 
 1504              	.LVL139:
  70:src/../test/ConsumerProducer_CPP_Sync_API_test.hpp **** 
 1505              		.loc 4 70 9 is_stmt 1
  70:src/../test/ConsumerProducer_CPP_Sync_API_test.hpp **** 
 1506              		.loc 4 70 10 is_stmt 0
 1507 03a8 1B071900 		addiw	a4,s2,1
 1508 03ac 1B090700 		sext.w	s2,a4
 1509              	.LVL140:
  72:src/../test/ConsumerProducer_CPP_Sync_API_test.hpp ****             Thread::dispatch();
 1510              		.loc 4 72 9 is_stmt 1
  72:src/../test/ConsumerProducer_CPP_Sync_API_test.hpp ****             Thread::dispatch();
 1511              		.loc 4 72 29 is_stmt 0
 1512 03b0 83A60400 		lw	a3,0(s1)
  72:src/../test/ConsumerProducer_CPP_Sync_API_test.hpp ****             Thread::dispatch();
 1513              		.loc 4 72 21
 1514 03b4 9B972600 		slliw	a5,a3,2
 1515 03b8 BB87D700 		addw	a5,a5,a3
 1516 03bc 9B971700 		slliw	a5,a5,1
  72:src/../test/ConsumerProducer_CPP_Sync_API_test.hpp ****             Thread::dispatch();
 1517              		.loc 4 72 15
 1518 03c0 BB67F702 		remw	a5,a4,a5
  72:src/../test/ConsumerProducer_CPP_Sync_API_test.hpp ****             Thread::dispatch();
 1519              		.loc 4 72 9
GAS LISTING /tmp/ccaOOzD6.s 			page 35


 1520 03c4 E39207FC 		bnez	a5,.L81
 1521 03c8 6FF09FFB 		j	.L85
 1522              	.LVL141:
 1523              	.L82:
  77:src/../test/ConsumerProducer_CPP_Sync_API_test.hpp **** }
 1524              		.loc 4 77 5 is_stmt 1
  77:src/../test/ConsumerProducer_CPP_Sync_API_test.hpp **** }
 1525              		.loc 4 77 23 is_stmt 0
 1526 03cc 03B50401 		ld	a0,16(s1)
 1527 03d0 97000000 		call	_ZN9Semaphore6signalEv@plt
 1527      E7800000 
 1528              	.LVL142:
  78:src/../test/ConsumerProducer_CPP_Sync_API_test.hpp **** 
 1529              		.loc 4 78 1
 1530 03d8 83308101 		ld	ra,24(sp)
 1531              		.cfi_restore 1
 1532 03dc 03340101 		ld	s0,16(sp)
 1533              		.cfi_restore 8
 1534              		.cfi_def_cfa 2, 32
 1535 03e0 83348100 		ld	s1,8(sp)
 1536              		.cfi_restore 9
 1537              	.LVL143:
 1538 03e4 03390100 		ld	s2,0(sp)
 1539              		.cfi_restore 18
 1540              	.LVL144:
 1541 03e8 13010102 		addi	sp,sp,32
 1542              		.cfi_def_cfa_offset 0
 1543 03ec 67800000 		jr	ra
 1544              		.cfi_endproc
 1545              	.LFE34:
 1547              		.section	.text._ZN8Producer3runEv,"axG",@progbits,_ZN8Producer3runEv,comdat
 1548              		.align	2
 1549              		.weak	_ZN8Producer3runEv
 1551              	_ZN8Producer3runEv:
 1552              	.LFB33:
  59:src/../test/ConsumerProducer_CPP_Sync_API_test.hpp ****         producer(td);
 1553              		.loc 4 59 10 is_stmt 1
 1554              		.cfi_startproc
 1555              	.LVL145:
 1556 0000 130101FF 		addi	sp,sp,-16
 1557              		.cfi_def_cfa_offset 16
 1558 0004 23341100 		sd	ra,8(sp)
 1559 0008 23308100 		sd	s0,0(sp)
 1560              		.cfi_offset 1, -8
 1561              		.cfi_offset 8, -16
 1562 000c 13040101 		addi	s0,sp,16
 1563              		.cfi_def_cfa 8, 0
  60:src/../test/ConsumerProducer_CPP_Sync_API_test.hpp ****     }
 1564              		.loc 4 60 9
  60:src/../test/ConsumerProducer_CPP_Sync_API_test.hpp ****     }
 1565              		.loc 4 60 17 is_stmt 0
 1566 0010 83350501 		ld	a1,16(a0)
 1567 0014 97000000 		call	_ZN8Producer8producerEPv
 1567      E7800000 
 1568              	.LVL146:
  61:src/../test/ConsumerProducer_CPP_Sync_API_test.hpp **** };
 1569              		.loc 4 61 5
GAS LISTING /tmp/ccaOOzD6.s 			page 36


 1570 001c 83308100 		ld	ra,8(sp)
 1571              		.cfi_restore 1
 1572 0020 03340100 		ld	s0,0(sp)
 1573              		.cfi_restore 8
 1574              		.cfi_def_cfa 2, 16
 1575 0024 13010101 		addi	sp,sp,16
 1576              		.cfi_def_cfa_offset 0
 1577 0028 67800000 		jr	ra
 1578              		.cfi_endproc
 1579              	.LFE33:
 1581              		.text
 1582              		.align	2
 1583              		.globl	_ZN8Consumer8consumerEPv
 1585              	_ZN8Consumer8consumerEPv:
 1586              	.LFB39:
  81:src/../test/ConsumerProducer_CPP_Sync_API_test.hpp ****     thread_data* td;
  82:src/../test/ConsumerProducer_CPP_Sync_API_test.hpp ****     void consumer(void *arg);
  83:src/../test/ConsumerProducer_CPP_Sync_API_test.hpp **** public:
  84:src/../test/ConsumerProducer_CPP_Sync_API_test.hpp ****     Consumer(thread_data* _td):Thread(), td(_td) {}
  85:src/../test/ConsumerProducer_CPP_Sync_API_test.hpp **** 
  86:src/../test/ConsumerProducer_CPP_Sync_API_test.hpp ****     void run() override {
  87:src/../test/ConsumerProducer_CPP_Sync_API_test.hpp ****         consumer(td);
  88:src/../test/ConsumerProducer_CPP_Sync_API_test.hpp ****     }
  89:src/../test/ConsumerProducer_CPP_Sync_API_test.hpp **** };
  90:src/../test/ConsumerProducer_CPP_Sync_API_test.hpp **** 
  91:src/../test/ConsumerProducer_CPP_Sync_API_test.hpp **** void Consumer::consumer(void *arg) {
 1587              		.loc 4 91 36 is_stmt 1
 1588              		.cfi_startproc
 1589              	.LVL147:
 1590 03f0 130101FD 		addi	sp,sp,-48
 1591              		.cfi_def_cfa_offset 48
 1592 03f4 23341102 		sd	ra,40(sp)
 1593 03f8 23308102 		sd	s0,32(sp)
 1594 03fc 233C9100 		sd	s1,24(sp)
 1595 0400 23382101 		sd	s2,16(sp)
 1596 0404 23343101 		sd	s3,8(sp)
 1597 0408 23304101 		sd	s4,0(sp)
 1598              		.cfi_offset 1, -8
 1599              		.cfi_offset 8, -16
 1600              		.cfi_offset 9, -24
 1601              		.cfi_offset 18, -32
 1602              		.cfi_offset 19, -40
 1603              		.cfi_offset 20, -48
 1604 040c 13040103 		addi	s0,sp,48
 1605              		.cfi_def_cfa 8, 0
 1606 0410 93090500 		mv	s3,a0
 1607 0414 13890500 		mv	s2,a1
  92:src/../test/ConsumerProducer_CPP_Sync_API_test.hpp ****     struct thread_data *data = (struct thread_data *) arg;
 1608              		.loc 4 92 5
 1609              	.LVL148:
  93:src/../test/ConsumerProducer_CPP_Sync_API_test.hpp **** 
  94:src/../test/ConsumerProducer_CPP_Sync_API_test.hpp ****     int i = 0;
 1610              		.loc 4 94 5
 1611              		.loc 4 94 9 is_stmt 0
 1612 0418 130A0000 		li	s4,0
 1613 041c 6F00C001 		j	.L89
 1614              	.LVL149:
GAS LISTING /tmp/ccaOOzD6.s 			page 37


 1615              	.L95:
 1616              	.LBB97:
  95:src/../test/ConsumerProducer_CPP_Sync_API_test.hpp ****     while (!threadEnd) {
  96:src/../test/ConsumerProducer_CPP_Sync_API_test.hpp ****         int key = data->buffer->get();
  97:src/../test/ConsumerProducer_CPP_Sync_API_test.hpp ****         i++;
  98:src/../test/ConsumerProducer_CPP_Sync_API_test.hpp **** 
  99:src/../test/ConsumerProducer_CPP_Sync_API_test.hpp ****         putc(key);
 100:src/../test/ConsumerProducer_CPP_Sync_API_test.hpp **** 
 101:src/../test/ConsumerProducer_CPP_Sync_API_test.hpp ****         if (i % (5 * data->id) == 0) {
 102:src/../test/ConsumerProducer_CPP_Sync_API_test.hpp ****             Thread::dispatch();
 1617              		.loc 4 102 13 is_stmt 1
 1618              		.loc 4 102 29 is_stmt 0
 1619 0420 97000000 		call	_ZN6Thread8dispatchEv@plt
 1619      E7800000 
 1620              	.LVL150:
 1621 0428 6F000005 		j	.L91
 1622              	.LVL151:
 1623              	.L96:
 103:src/../test/ConsumerProducer_CPP_Sync_API_test.hpp ****         }
 104:src/../test/ConsumerProducer_CPP_Sync_API_test.hpp **** 
 105:src/../test/ConsumerProducer_CPP_Sync_API_test.hpp ****         if (i % 80 == 0) {
 106:src/../test/ConsumerProducer_CPP_Sync_API_test.hpp ****             putc('\n');
 1624              		.loc 4 106 13 is_stmt 1
 1625              		.loc 4 106 17 is_stmt 0
 1626 042c 1305A000 		li	a0,10
 1627 0430 97000000 		call	putc@plt
 1627      E7800000 
 1628              	.LVL152:
 1629              	.L89:
 1630              	.LBE97:
  95:src/../test/ConsumerProducer_CPP_Sync_API_test.hpp ****     while (!threadEnd) {
 1631              		.loc 4 95 5 is_stmt 1
  95:src/../test/ConsumerProducer_CPP_Sync_API_test.hpp ****     while (!threadEnd) {
 1632              		.loc 4 95 12
 1633 0438 97070000 		lw	a5,.LANCHOR0
 1633      83A70700 
 1634 0440 63920706 		bnez	a5,.L90
 1635              	.LBB98:
  96:src/../test/ConsumerProducer_CPP_Sync_API_test.hpp ****         i++;
 1636              		.loc 4 96 9
  96:src/../test/ConsumerProducer_CPP_Sync_API_test.hpp ****         i++;
 1637              		.loc 4 96 36 is_stmt 0
 1638 0444 03358900 		ld	a0,8(s2)
 1639 0448 97000000 		call	_ZN9BufferCPP3getEv@plt
 1639      E7800000 
 1640              	.LVL153:
  97:src/../test/ConsumerProducer_CPP_Sync_API_test.hpp **** 
 1641              		.loc 4 97 9 is_stmt 1
  97:src/../test/ConsumerProducer_CPP_Sync_API_test.hpp **** 
 1642              		.loc 4 97 10 is_stmt 0
 1643 0450 9B041A00 		addiw	s1,s4,1
 1644 0454 1B8A0400 		sext.w	s4,s1
 1645              	.LVL154:
  99:src/../test/ConsumerProducer_CPP_Sync_API_test.hpp **** 
 1646              		.loc 4 99 9 is_stmt 1
  99:src/../test/ConsumerProducer_CPP_Sync_API_test.hpp **** 
 1647              		.loc 4 99 13 is_stmt 0
GAS LISTING /tmp/ccaOOzD6.s 			page 38


 1648 0458 1375F50F 		andi	a0,a0,0xff
 1649              	.LVL155:
 1650 045c 97000000 		call	putc@plt
 1650      E7800000 
 1651              	.LVL156:
 101:src/../test/ConsumerProducer_CPP_Sync_API_test.hpp ****             Thread::dispatch();
 1652              		.loc 4 101 9 is_stmt 1
 101:src/../test/ConsumerProducer_CPP_Sync_API_test.hpp ****             Thread::dispatch();
 1653              		.loc 4 101 28 is_stmt 0
 1654 0464 03270900 		lw	a4,0(s2)
 101:src/../test/ConsumerProducer_CPP_Sync_API_test.hpp ****             Thread::dispatch();
 1655              		.loc 4 101 20
 1656 0468 9B172700 		slliw	a5,a4,2
 1657 046c BB87E700 		addw	a5,a5,a4
 101:src/../test/ConsumerProducer_CPP_Sync_API_test.hpp ****             Thread::dispatch();
 1658              		.loc 4 101 15
 1659 0470 BBE7F402 		remw	a5,s1,a5
 101:src/../test/ConsumerProducer_CPP_Sync_API_test.hpp ****             Thread::dispatch();
 1660              		.loc 4 101 9
 1661 0474 E38607FA 		beqz	a5,.L95
 1662              	.L91:
 105:src/../test/ConsumerProducer_CPP_Sync_API_test.hpp ****             putc('\n');
 1663              		.loc 4 105 9 is_stmt 1
 105:src/../test/ConsumerProducer_CPP_Sync_API_test.hpp ****             putc('\n');
 1664              		.loc 4 105 15 is_stmt 0
 1665 0478 93070005 		li	a5,80
 1666 047c BBE4F402 		remw	s1,s1,a5
 1667              	.LVL157:
 105:src/../test/ConsumerProducer_CPP_Sync_API_test.hpp ****             putc('\n');
 1668              		.loc 4 105 9
 1669 0480 E39C04FA 		bnez	s1,.L89
 1670 0484 6FF09FFA 		j	.L96
 1671              	.L97:
 1672              	.LBE98:
 1673              	.LBB99:
 107:src/../test/ConsumerProducer_CPP_Sync_API_test.hpp ****         }
 108:src/../test/ConsumerProducer_CPP_Sync_API_test.hpp ****     }
 109:src/../test/ConsumerProducer_CPP_Sync_API_test.hpp **** 
 110:src/../test/ConsumerProducer_CPP_Sync_API_test.hpp **** 
 111:src/../test/ConsumerProducer_CPP_Sync_API_test.hpp ****     while (td->buffer->getCnt() > 0) {
 112:src/../test/ConsumerProducer_CPP_Sync_API_test.hpp ****         int key = td->buffer->get();
 1674              		.loc 4 112 9 is_stmt 1
 1675              		.loc 4 112 19 is_stmt 0
 1676 0488 83B70901 		ld	a5,16(s3)
 1677              		.loc 4 112 34
 1678 048c 03B58700 		ld	a0,8(a5)
 1679 0490 97000000 		call	_ZN9BufferCPP3getEv@plt
 1679      E7800000 
 1680              	.LVL158:
 113:src/../test/ConsumerProducer_CPP_Sync_API_test.hpp ****         Console::putc(key);
 1681              		.loc 4 113 9 is_stmt 1
 1682              		.loc 4 113 22 is_stmt 0
 1683 0498 1375F50F 		andi	a0,a0,0xff
 1684              	.LVL159:
 1685 049c 97000000 		call	_ZN7Console4putcEc@plt
 1685      E7800000 
 1686              	.LVL160:
GAS LISTING /tmp/ccaOOzD6.s 			page 39


 1687              	.L90:
 1688              	.LBE99:
 111:src/../test/ConsumerProducer_CPP_Sync_API_test.hpp ****         int key = td->buffer->get();
 1689              		.loc 4 111 5 is_stmt 1
 111:src/../test/ConsumerProducer_CPP_Sync_API_test.hpp ****         int key = td->buffer->get();
 1690              		.loc 4 111 33
 111:src/../test/ConsumerProducer_CPP_Sync_API_test.hpp ****         int key = td->buffer->get();
 1691              		.loc 4 111 12 is_stmt 0
 1692 04a4 83B70901 		ld	a5,16(s3)
 111:src/../test/ConsumerProducer_CPP_Sync_API_test.hpp ****         int key = td->buffer->get();
 1693              		.loc 4 111 30
 1694 04a8 03B58700 		ld	a0,8(a5)
 1695 04ac 97000000 		call	_ZN9BufferCPP6getCntEv@plt
 1695      E7800000 
 1696              	.LVL161:
 111:src/../test/ConsumerProducer_CPP_Sync_API_test.hpp ****         int key = td->buffer->get();
 1697              		.loc 4 111 33
 1698 04b4 E34AA0FC 		bgtz	a0,.L97
 114:src/../test/ConsumerProducer_CPP_Sync_API_test.hpp ****     }
 115:src/../test/ConsumerProducer_CPP_Sync_API_test.hpp **** 
 116:src/../test/ConsumerProducer_CPP_Sync_API_test.hpp ****     data->wait->signal();
 1699              		.loc 4 116 5 is_stmt 1
 1700              		.loc 4 116 23 is_stmt 0
 1701 04b8 03350901 		ld	a0,16(s2)
 1702 04bc 97000000 		call	_ZN9Semaphore6signalEv@plt
 1702      E7800000 
 1703              	.LVL162:
 117:src/../test/ConsumerProducer_CPP_Sync_API_test.hpp **** }
 1704              		.loc 4 117 1
 1705 04c4 83308102 		ld	ra,40(sp)
 1706              		.cfi_restore 1
 1707 04c8 03340102 		ld	s0,32(sp)
 1708              		.cfi_restore 8
 1709              		.cfi_def_cfa 2, 48
 1710 04cc 83348101 		ld	s1,24(sp)
 1711              		.cfi_restore 9
 1712 04d0 03390101 		ld	s2,16(sp)
 1713              		.cfi_restore 18
 1714              	.LVL163:
 1715 04d4 83398100 		ld	s3,8(sp)
 1716              		.cfi_restore 19
 1717              	.LVL164:
 1718 04d8 033A0100 		ld	s4,0(sp)
 1719              		.cfi_restore 20
 1720              	.LVL165:
 1721 04dc 13010103 		addi	sp,sp,48
 1722              		.cfi_def_cfa_offset 0
 1723 04e0 67800000 		jr	ra
 1724              		.cfi_endproc
 1725              	.LFE39:
 1727              		.section	.text._ZN8Consumer3runEv,"axG",@progbits,_ZN8Consumer3runEv,comdat
 1728              		.align	2
 1729              		.weak	_ZN8Consumer3runEv
 1731              	_ZN8Consumer3runEv:
 1732              	.LFB38:
  86:src/../test/ConsumerProducer_CPP_Sync_API_test.hpp ****         consumer(td);
 1733              		.loc 4 86 10 is_stmt 1
GAS LISTING /tmp/ccaOOzD6.s 			page 40


 1734              		.cfi_startproc
 1735              	.LVL166:
 1736 0000 130101FF 		addi	sp,sp,-16
 1737              		.cfi_def_cfa_offset 16
 1738 0004 23341100 		sd	ra,8(sp)
 1739 0008 23308100 		sd	s0,0(sp)
 1740              		.cfi_offset 1, -8
 1741              		.cfi_offset 8, -16
 1742 000c 13040101 		addi	s0,sp,16
 1743              		.cfi_def_cfa 8, 0
  87:src/../test/ConsumerProducer_CPP_Sync_API_test.hpp ****     }
 1744              		.loc 4 87 9
  87:src/../test/ConsumerProducer_CPP_Sync_API_test.hpp ****     }
 1745              		.loc 4 87 17 is_stmt 0
 1746 0010 83350501 		ld	a1,16(a0)
 1747 0014 97000000 		call	_ZN8Consumer8consumerEPv
 1747      E7800000 
 1748              	.LVL167:
  88:src/../test/ConsumerProducer_CPP_Sync_API_test.hpp **** };
 1749              		.loc 4 88 5
 1750 001c 83308100 		ld	ra,8(sp)
 1751              		.cfi_restore 1
 1752 0020 03340100 		ld	s0,0(sp)
 1753              		.cfi_restore 8
 1754              		.cfi_def_cfa 2, 16
 1755 0024 13010101 		addi	sp,sp,16
 1756              		.cfi_def_cfa_offset 0
 1757 0028 67800000 		jr	ra
 1758              		.cfi_endproc
 1759              	.LFE38:
 1761              		.section	.rodata.str1.8,"aMS",@progbits,1
 1762              		.align	3
 1763              	.LC0:
 1764 0000 556E6573 		.string	"Unesite broj proizvodjaca?\n"
 1764      69746520 
 1764      62726F6A 
 1764      2070726F 
 1764      697A766F 
 1765 001c 00000000 		.align	3
 1766              	.LC1:
 1767 0020 556E6573 		.string	"Unesite velicinu bafera?\n"
 1767      69746520 
 1767      76656C69 
 1767      63696E75 
 1767      20626166 
 1768 003a 00000000 		.align	3
 1768      0000
 1769              	.LC2:
 1770 0040 42726F6A 		.string	"Broj proizvodjaca "
 1770      2070726F 
 1770      697A766F 
 1770      646A6163 
 1770      612000
 1771 0053 00000000 		.align	3
 1771      00
 1772              	.LC3:
 1773 0058 20692076 		.string	" i velicina bafera "
GAS LISTING /tmp/ccaOOzD6.s 			page 41


 1773      656C6963 
 1773      696E6120 
 1773      62616665 
 1773      72612000 
 1774 006c 00000000 		.align	3
 1775              	.LC4:
 1776 0070 2E0A00   		.string	".\n"
 1777 0073 00000000 		.align	3
 1777      00
 1778              	.LC5:
 1779 0078 42726F6A 		.string	"Broj proizvodjaca ne sme biti manji od velicine bafera!\n"
 1779      2070726F 
 1779      697A766F 
 1779      646A6163 
 1779      61206E65 
 1780 00b1 00000000 		.align	3
 1780      000000
 1781              	.LC6:
 1782 00b8 42726F6A 		.string	"Broj proizvodjaca mora biti veci od nula!\n"
 1782      2070726F 
 1782      697A766F 
 1782      646A6163 
 1782      61206D6F 
 1783              		.text
 1784              		.align	2
 1785              		.globl	_Z29producerConsumer_CPP_Sync_APIv
 1787              	_Z29producerConsumer_CPP_Sync_APIv:
 1788              	.LFB40:
 118:src/../test/ConsumerProducer_CPP_Sync_API_test.hpp **** 
 119:src/../test/ConsumerProducer_CPP_Sync_API_test.hpp **** void producerConsumer_CPP_Sync_API() {
 1789              		.loc 4 119 38 is_stmt 1
 1790              		.cfi_startproc
 1791              		.cfi_personality 0x9b,DW.ref.__gxx_personality_v0
 1792              		.cfi_lsda 0x1b,.LLSDA40
 1793 04e4 130101F8 		addi	sp,sp,-128
 1794              		.cfi_def_cfa_offset 128
 1795 04e8 233C1106 		sd	ra,120(sp)
 1796 04ec 23388106 		sd	s0,112(sp)
 1797 04f0 23349106 		sd	s1,104(sp)
 1798 04f4 23302107 		sd	s2,96(sp)
 1799 04f8 233C3105 		sd	s3,88(sp)
 1800 04fc 23384105 		sd	s4,80(sp)
 1801 0500 23345105 		sd	s5,72(sp)
 1802 0504 23306105 		sd	s6,64(sp)
 1803 0508 233C7103 		sd	s7,56(sp)
 1804 050c 23388103 		sd	s8,48(sp)
 1805 0510 23349103 		sd	s9,40(sp)
 1806              		.cfi_offset 1, -8
 1807              		.cfi_offset 8, -16
 1808              		.cfi_offset 9, -24
 1809              		.cfi_offset 18, -32
 1810              		.cfi_offset 19, -40
 1811              		.cfi_offset 20, -48
 1812              		.cfi_offset 21, -56
 1813              		.cfi_offset 22, -64
 1814              		.cfi_offset 23, -72
 1815              		.cfi_offset 24, -80
GAS LISTING /tmp/ccaOOzD6.s 			page 42


 1816              		.cfi_offset 25, -88
 1817 0514 13040108 		addi	s0,sp,128
 1818              		.cfi_def_cfa 8, 0
 120:src/../test/ConsumerProducer_CPP_Sync_API_test.hpp ****     char input[30];
 121:src/../test/ConsumerProducer_CPP_Sync_API_test.hpp ****     int n, threadNum;
 122:src/../test/ConsumerProducer_CPP_Sync_API_test.hpp **** 
 123:src/../test/ConsumerProducer_CPP_Sync_API_test.hpp ****     printString("Unesite broj proizvodjaca?\n");
 124:src/../test/ConsumerProducer_CPP_Sync_API_test.hpp ****     getString(input, 30);
 125:src/../test/ConsumerProducer_CPP_Sync_API_test.hpp ****     threadNum = stringToInt(input);
 126:src/../test/ConsumerProducer_CPP_Sync_API_test.hpp **** 
 127:src/../test/ConsumerProducer_CPP_Sync_API_test.hpp ****     printString("Unesite velicinu bafera?\n");
 128:src/../test/ConsumerProducer_CPP_Sync_API_test.hpp ****     getString(input, 30);
 129:src/../test/ConsumerProducer_CPP_Sync_API_test.hpp ****     n = stringToInt(input);
 130:src/../test/ConsumerProducer_CPP_Sync_API_test.hpp **** 
 131:src/../test/ConsumerProducer_CPP_Sync_API_test.hpp ****     printString("Broj proizvodjaca "); printInt(threadNum);
 132:src/../test/ConsumerProducer_CPP_Sync_API_test.hpp ****     printString(" i velicina bafera "); printInt(n);
 133:src/../test/ConsumerProducer_CPP_Sync_API_test.hpp ****     printString(".\n");
 134:src/../test/ConsumerProducer_CPP_Sync_API_test.hpp **** 
 135:src/../test/ConsumerProducer_CPP_Sync_API_test.hpp ****     if(threadNum > n) {
 136:src/../test/ConsumerProducer_CPP_Sync_API_test.hpp ****         printString("Broj proizvodjaca ne sme biti manji od velicine bafera!\n");
 137:src/../test/ConsumerProducer_CPP_Sync_API_test.hpp ****         return;
 138:src/../test/ConsumerProducer_CPP_Sync_API_test.hpp ****     } else if (threadNum < 1) {
 139:src/../test/ConsumerProducer_CPP_Sync_API_test.hpp ****         printString("Broj proizvodjaca mora biti veci od nula!\n");
 140:src/../test/ConsumerProducer_CPP_Sync_API_test.hpp ****         return;
 141:src/../test/ConsumerProducer_CPP_Sync_API_test.hpp ****     }
 142:src/../test/ConsumerProducer_CPP_Sync_API_test.hpp **** 
 143:src/../test/ConsumerProducer_CPP_Sync_API_test.hpp ****     BufferCPP *buffer = new BufferCPP(n);
 144:src/../test/ConsumerProducer_CPP_Sync_API_test.hpp **** 
 145:src/../test/ConsumerProducer_CPP_Sync_API_test.hpp ****     waitForAll = new Semaphore(0);
 146:src/../test/ConsumerProducer_CPP_Sync_API_test.hpp **** 
 147:src/../test/ConsumerProducer_CPP_Sync_API_test.hpp ****     Thread* threads[threadNum];
 148:src/../test/ConsumerProducer_CPP_Sync_API_test.hpp ****     Thread* consumerThread;
 149:src/../test/ConsumerProducer_CPP_Sync_API_test.hpp **** 
 150:src/../test/ConsumerProducer_CPP_Sync_API_test.hpp ****     struct thread_data data[threadNum + 1];
 151:src/../test/ConsumerProducer_CPP_Sync_API_test.hpp **** 
 152:src/../test/ConsumerProducer_CPP_Sync_API_test.hpp ****     data[threadNum].id = threadNum;
 153:src/../test/ConsumerProducer_CPP_Sync_API_test.hpp ****     data[threadNum].buffer = buffer;
 154:src/../test/ConsumerProducer_CPP_Sync_API_test.hpp ****     data[threadNum].wait = waitForAll;
 155:src/../test/ConsumerProducer_CPP_Sync_API_test.hpp ****     consumerThread = new Consumer(data+threadNum);
 156:src/../test/ConsumerProducer_CPP_Sync_API_test.hpp ****     consumerThread->start();
 157:src/../test/ConsumerProducer_CPP_Sync_API_test.hpp **** 
 158:src/../test/ConsumerProducer_CPP_Sync_API_test.hpp ****     for (int i = 0; i < threadNum; i++) {
 159:src/../test/ConsumerProducer_CPP_Sync_API_test.hpp ****         data[i].id = i;
 160:src/../test/ConsumerProducer_CPP_Sync_API_test.hpp ****         data[i].buffer = buffer;
 161:src/../test/ConsumerProducer_CPP_Sync_API_test.hpp ****         data[i].wait = waitForAll;
 162:src/../test/ConsumerProducer_CPP_Sync_API_test.hpp **** 
 163:src/../test/ConsumerProducer_CPP_Sync_API_test.hpp ****         if(i>0) {
 164:src/../test/ConsumerProducer_CPP_Sync_API_test.hpp ****             threads[i] = new Producer(data+i);
 165:src/../test/ConsumerProducer_CPP_Sync_API_test.hpp ****         } else {
 166:src/../test/ConsumerProducer_CPP_Sync_API_test.hpp ****             threads[i] = new ProducerKeyboard(data+i);
 167:src/../test/ConsumerProducer_CPP_Sync_API_test.hpp ****         }
 168:src/../test/ConsumerProducer_CPP_Sync_API_test.hpp **** 
 169:src/../test/ConsumerProducer_CPP_Sync_API_test.hpp ****         threads[i]->start();
 170:src/../test/ConsumerProducer_CPP_Sync_API_test.hpp ****     }
 171:src/../test/ConsumerProducer_CPP_Sync_API_test.hpp **** 
 172:src/../test/ConsumerProducer_CPP_Sync_API_test.hpp ****     Thread::dispatch();
 173:src/../test/ConsumerProducer_CPP_Sync_API_test.hpp **** 
GAS LISTING /tmp/ccaOOzD6.s 			page 43


 174:src/../test/ConsumerProducer_CPP_Sync_API_test.hpp ****     for (int i = 0; i <= threadNum; i++) {
 175:src/../test/ConsumerProducer_CPP_Sync_API_test.hpp ****         waitForAll->wait();
 176:src/../test/ConsumerProducer_CPP_Sync_API_test.hpp ****     }
 177:src/../test/ConsumerProducer_CPP_Sync_API_test.hpp **** 
 178:src/../test/ConsumerProducer_CPP_Sync_API_test.hpp ****     for (int i = 0; i < threadNum; i++) {
 179:src/../test/ConsumerProducer_CPP_Sync_API_test.hpp ****         delete threads[i];
 180:src/../test/ConsumerProducer_CPP_Sync_API_test.hpp ****     }
 181:src/../test/ConsumerProducer_CPP_Sync_API_test.hpp ****     delete consumerThread;
 182:src/../test/ConsumerProducer_CPP_Sync_API_test.hpp ****     delete waitForAll;
 183:src/../test/ConsumerProducer_CPP_Sync_API_test.hpp ****     delete buffer;
 1819              		.loc 4 183 18 is_stmt 0
 1820 0518 930B0100 		mv	s7,sp
 120:src/../test/ConsumerProducer_CPP_Sync_API_test.hpp ****     char input[30];
 1821              		.loc 4 120 5 is_stmt 1
 121:src/../test/ConsumerProducer_CPP_Sync_API_test.hpp **** 
 1822              		.loc 4 121 5
 123:src/../test/ConsumerProducer_CPP_Sync_API_test.hpp ****     getString(input, 30);
 1823              		.loc 4 123 5
 123:src/../test/ConsumerProducer_CPP_Sync_API_test.hpp ****     getString(input, 30);
 1824              		.loc 4 123 16 is_stmt 0
 1825 051c 17050000 		lla	a0,.LC0
 1825      13050500 
 1826              	.LEHB15:
 1827 0524 97000000 		call	_Z11printStringPKc@plt
 1827      E7800000 
 1828              	.LVL168:
 124:src/../test/ConsumerProducer_CPP_Sync_API_test.hpp ****     threadNum = stringToInt(input);
 1829              		.loc 4 124 5 is_stmt 1
 124:src/../test/ConsumerProducer_CPP_Sync_API_test.hpp ****     threadNum = stringToInt(input);
 1830              		.loc 4 124 14 is_stmt 0
 1831 052c 9305E001 		li	a1,30
 1832 0530 930404F8 		addi	s1,s0,-128
 1833 0534 13850400 		mv	a0,s1
 1834 0538 97000000 		call	_Z9getStringPci@plt
 1834      E7800000 
 1835              	.LVL169:
 125:src/../test/ConsumerProducer_CPP_Sync_API_test.hpp **** 
 1836              		.loc 4 125 5 is_stmt 1
 125:src/../test/ConsumerProducer_CPP_Sync_API_test.hpp **** 
 1837              		.loc 4 125 28 is_stmt 0
 1838 0540 13850400 		mv	a0,s1
 1839 0544 97000000 		call	_Z11stringToIntPKc@plt
 1839      E7800000 
 1840              	.LVL170:
 1841 054c 13090500 		mv	s2,a0
 1842              	.LVL171:
 127:src/../test/ConsumerProducer_CPP_Sync_API_test.hpp ****     getString(input, 30);
 1843              		.loc 4 127 5 is_stmt 1
 127:src/../test/ConsumerProducer_CPP_Sync_API_test.hpp ****     getString(input, 30);
 1844              		.loc 4 127 16 is_stmt 0
 1845 0550 17050000 		lla	a0,.LC1
 1845      13050500 
 1846 0558 97000000 		call	_Z11printStringPKc@plt
 1846      E7800000 
 1847              	.LVL172:
 128:src/../test/ConsumerProducer_CPP_Sync_API_test.hpp ****     n = stringToInt(input);
 1848              		.loc 4 128 5 is_stmt 1
GAS LISTING /tmp/ccaOOzD6.s 			page 44


 128:src/../test/ConsumerProducer_CPP_Sync_API_test.hpp ****     n = stringToInt(input);
 1849              		.loc 4 128 14 is_stmt 0
 1850 0560 9305E001 		li	a1,30
 1851 0564 13850400 		mv	a0,s1
 1852 0568 97000000 		call	_Z9getStringPci@plt
 1852      E7800000 
 1853              	.LVL173:
 129:src/../test/ConsumerProducer_CPP_Sync_API_test.hpp **** 
 1854              		.loc 4 129 5 is_stmt 1
 129:src/../test/ConsumerProducer_CPP_Sync_API_test.hpp **** 
 1855              		.loc 4 129 20 is_stmt 0
 1856 0570 13850400 		mv	a0,s1
 1857 0574 97000000 		call	_Z11stringToIntPKc@plt
 1857      E7800000 
 1858              	.LVL174:
 1859 057c 93040500 		mv	s1,a0
 1860              	.LVL175:
 131:src/../test/ConsumerProducer_CPP_Sync_API_test.hpp ****     printString(" i velicina bafera "); printInt(n);
 1861              		.loc 4 131 5 is_stmt 1
 131:src/../test/ConsumerProducer_CPP_Sync_API_test.hpp ****     printString(" i velicina bafera "); printInt(n);
 1862              		.loc 4 131 16 is_stmt 0
 1863 0580 17050000 		lla	a0,.LC2
 1863      13050500 
 1864 0588 97000000 		call	_Z11printStringPKc@plt
 1864      E7800000 
 1865              	.LVL176:
 131:src/../test/ConsumerProducer_CPP_Sync_API_test.hpp ****     printString(" i velicina bafera "); printInt(n);
 1866              		.loc 4 131 40 is_stmt 1
 131:src/../test/ConsumerProducer_CPP_Sync_API_test.hpp ****     printString(" i velicina bafera "); printInt(n);
 1867              		.loc 4 131 48 is_stmt 0
 1868 0590 13060000 		li	a2,0
 1869 0594 9305A000 		li	a1,10
 1870 0598 13050900 		mv	a0,s2
 1871 059c 97000000 		call	_Z8printIntiii@plt
 1871      E7800000 
 1872              	.LVL177:
 132:src/../test/ConsumerProducer_CPP_Sync_API_test.hpp ****     printString(".\n");
 1873              		.loc 4 132 5 is_stmt 1
 132:src/../test/ConsumerProducer_CPP_Sync_API_test.hpp ****     printString(".\n");
 1874              		.loc 4 132 16 is_stmt 0
 1875 05a4 17050000 		lla	a0,.LC3
 1875      13050500 
 1876 05ac 97000000 		call	_Z11printStringPKc@plt
 1876      E7800000 
 1877              	.LVL178:
 132:src/../test/ConsumerProducer_CPP_Sync_API_test.hpp ****     printString(".\n");
 1878              		.loc 4 132 41 is_stmt 1
 132:src/../test/ConsumerProducer_CPP_Sync_API_test.hpp ****     printString(".\n");
 1879              		.loc 4 132 49 is_stmt 0
 1880 05b4 13060000 		li	a2,0
 1881 05b8 9305A000 		li	a1,10
 1882 05bc 13850400 		mv	a0,s1
 1883 05c0 97000000 		call	_Z8printIntiii@plt
 1883      E7800000 
 1884              	.LVL179:
 133:src/../test/ConsumerProducer_CPP_Sync_API_test.hpp **** 
 1885              		.loc 4 133 5 is_stmt 1
GAS LISTING /tmp/ccaOOzD6.s 			page 45


 133:src/../test/ConsumerProducer_CPP_Sync_API_test.hpp **** 
 1886              		.loc 4 133 16 is_stmt 0
 1887 05c8 17050000 		lla	a0,.LC4
 1887      13050500 
 1888 05d0 97000000 		call	_Z11printStringPKc@plt
 1888      E7800000 
 1889              	.LVL180:
 135:src/../test/ConsumerProducer_CPP_Sync_API_test.hpp ****         printString("Broj proizvodjaca ne sme biti manji od velicine bafera!\n");
 1890              		.loc 4 135 5 is_stmt 1
 1891 05d8 63C42403 		bgt	s2,s1,.L128
 138:src/../test/ConsumerProducer_CPP_Sync_API_test.hpp ****         printString("Broj proizvodjaca mora biti veci od nula!\n");
 1892              		.loc 4 138 12
 1893 05dc 635C2003 		blez	s2,.L129
 143:src/../test/ConsumerProducer_CPP_Sync_API_test.hpp **** 
 1894              		.loc 4 143 5
 143:src/../test/ConsumerProducer_CPP_Sync_API_test.hpp **** 
 1895              		.loc 4 143 40 is_stmt 0
 1896 05e0 13058003 		li	a0,56
 1897 05e4 97000000 		call	_Znwm@plt
 1897      E7800000 
 1898              	.LVL181:
 1899              	.LEHE15:
 1900 05ec 930A0500 		mv	s5,a0
 1901 05f0 93850400 		mv	a1,s1
 1902              	.LEHB16:
 1903 05f4 97000000 		call	_ZN9BufferCPPC1Ei@plt
 1903      E7800000 
 1904              	.LVL182:
 1905              	.LEHE16:
 1906 05fc 6F000003 		j	.L130
 1907              	.L128:
 136:src/../test/ConsumerProducer_CPP_Sync_API_test.hpp ****         return;
 1908              		.loc 4 136 9 is_stmt 1
 136:src/../test/ConsumerProducer_CPP_Sync_API_test.hpp ****         return;
 1909              		.loc 4 136 20 is_stmt 0
 1910 0600 17050000 		lla	a0,.LC5
 1910      13050500 
 1911              	.LEHB17:
 1912 0608 97000000 		call	_Z11printStringPKc@plt
 1912      E7800000 
 1913              	.LVL183:
 137:src/../test/ConsumerProducer_CPP_Sync_API_test.hpp ****     } else if (threadNum < 1) {
 1914              		.loc 4 137 9 is_stmt 1
 1915 0610 6F004001 		j	.L102
 1916              	.L129:
 139:src/../test/ConsumerProducer_CPP_Sync_API_test.hpp ****         return;
 1917              		.loc 4 139 9
 139:src/../test/ConsumerProducer_CPP_Sync_API_test.hpp ****         return;
 1918              		.loc 4 139 20 is_stmt 0
 1919 0614 17050000 		lla	a0,.LC6
 1919      13050500 
 1920 061c 97000000 		call	_Z11printStringPKc@plt
 1920      E7800000 
 1921              	.LVL184:
 140:src/../test/ConsumerProducer_CPP_Sync_API_test.hpp ****     }
 1922              		.loc 4 140 9 is_stmt 1
 1923              	.L102:
GAS LISTING /tmp/ccaOOzD6.s 			page 46


 1924 0624 13810B00 		mv	sp,s7
 1925 0628 6F000024 		j	.L100
 1926              	.L130:
 1927              	.LVL185:
 145:src/../test/ConsumerProducer_CPP_Sync_API_test.hpp **** 
 1928              		.loc 4 145 5 discriminator 3
 145:src/../test/ConsumerProducer_CPP_Sync_API_test.hpp **** 
 1929              		.loc 4 145 33 is_stmt 0 discriminator 3
 1930 062c 13050001 		li	a0,16
 1931 0630 97000000 		call	_Znwm@plt
 1931      E7800000 
 1932              	.LVL186:
 1933              	.LEHE17:
 1934 0638 93040500 		mv	s1,a0
 1935              	.LVL187:
 1936 063c 93050000 		li	a1,0
 1937              	.LEHB18:
 1938 0640 97000000 		call	_ZN9SemaphoreC1Ej@plt
 1938      E7800000 
 1939              	.LVL188:
 1940              	.LEHE18:
 145:src/../test/ConsumerProducer_CPP_Sync_API_test.hpp **** 
 1941              		.loc 4 145 16 discriminator 3
 1942 0648 17070000 		lla	a4,.LANCHOR0
 1942      13070700 
 1943 0650 23349700 		sd	s1,8(a4)
 147:src/../test/ConsumerProducer_CPP_Sync_API_test.hpp ****     Thread* consumerThread;
 1944              		.loc 4 147 5 is_stmt 1 discriminator 3
 1945              	.LVL189:
 147:src/../test/ConsumerProducer_CPP_Sync_API_test.hpp ****     Thread* consumerThread;
 1946              		.loc 4 147 13 is_stmt 0 discriminator 3
 1947 0654 93173900 		slli	a5,s2,3
 1948 0658 9387F700 		addi	a5,a5,15
 1949 065c 93F707FF 		andi	a5,a5,-16
 1950 0660 3301F140 		sub	sp,sp,a5
 1951 0664 93090100 		mv	s3,sp
 1952              	.LVL190:
 148:src/../test/ConsumerProducer_CPP_Sync_API_test.hpp **** 
 1953              		.loc 4 148 5 is_stmt 1 discriminator 3
 150:src/../test/ConsumerProducer_CPP_Sync_API_test.hpp **** 
 1954              		.loc 4 150 5 discriminator 3
 150:src/../test/ConsumerProducer_CPP_Sync_API_test.hpp **** 
 1955              		.loc 4 150 39 is_stmt 0 discriminator 3
 1956 0668 9B061900 		addiw	a3,s2,1
 1957              	.LVL191:
 150:src/../test/ConsumerProducer_CPP_Sync_API_test.hpp **** 
 1958              		.loc 4 150 24 discriminator 3
 1959 066c 93971600 		slli	a5,a3,1
 1960 0670 B387D700 		add	a5,a5,a3
 1961 0674 93973700 		slli	a5,a5,3
 1962 0678 9387F700 		addi	a5,a5,15
 1963 067c 93F707FF 		andi	a5,a5,-16
 1964 0680 3301F140 		sub	sp,sp,a5
 1965              	.LVL192:
 1966 0684 130A0100 		mv	s4,sp
 1967              	.LVL193:
 152:src/../test/ConsumerProducer_CPP_Sync_API_test.hpp ****     data[threadNum].buffer = buffer;
GAS LISTING /tmp/ccaOOzD6.s 			page 47


 1968              		.loc 4 152 5 is_stmt 1 discriminator 3
 152:src/../test/ConsumerProducer_CPP_Sync_API_test.hpp ****     data[threadNum].buffer = buffer;
 1969              		.loc 4 152 24 is_stmt 0 discriminator 3
 1970 0688 93141900 		slli	s1,s2,1
 1971 068c B3872401 		add	a5,s1,s2
 1972 0690 93973700 		slli	a5,a5,3
 1973 0694 B307FA00 		add	a5,s4,a5
 1974 0698 23A02701 		sw	s2,0(a5)
 153:src/../test/ConsumerProducer_CPP_Sync_API_test.hpp ****     data[threadNum].wait = waitForAll;
 1975              		.loc 4 153 5 is_stmt 1 discriminator 3
 153:src/../test/ConsumerProducer_CPP_Sync_API_test.hpp ****     data[threadNum].wait = waitForAll;
 1976              		.loc 4 153 28 is_stmt 0 discriminator 3
 1977 069c 23B45701 		sd	s5,8(a5)
 154:src/../test/ConsumerProducer_CPP_Sync_API_test.hpp ****     consumerThread = new Consumer(data+threadNum);
 1978              		.loc 4 154 5 is_stmt 1 discriminator 3
 154:src/../test/ConsumerProducer_CPP_Sync_API_test.hpp ****     consumerThread = new Consumer(data+threadNum);
 1979              		.loc 4 154 26 is_stmt 0 discriminator 3
 1980 06a0 03378700 		ld	a4,8(a4)
 1981 06a4 23B8E700 		sd	a4,16(a5)
 155:src/../test/ConsumerProducer_CPP_Sync_API_test.hpp ****     consumerThread->start();
 1982              		.loc 4 155 5 is_stmt 1 discriminator 3
 155:src/../test/ConsumerProducer_CPP_Sync_API_test.hpp ****     consumerThread->start();
 1983              		.loc 4 155 49 is_stmt 0 discriminator 3
 1984 06a8 13058001 		li	a0,24
 1985              	.LEHB19:
 1986 06ac 97000000 		call	_Znwm@plt
 1986      E7800000 
 1987              	.LVL194:
 1988              	.LEHE19:
 1989 06b4 130B0500 		mv	s6,a0
 155:src/../test/ConsumerProducer_CPP_Sync_API_test.hpp ****     consumerThread->start();
 1990              		.loc 4 155 39 discriminator 3
 1991 06b8 B3842401 		add	s1,s1,s2
 1992 06bc 93943400 		slli	s1,s1,3
 155:src/../test/ConsumerProducer_CPP_Sync_API_test.hpp ****     consumerThread->start();
 1993              		.loc 4 155 49 discriminator 3
 1994 06c0 B3049A00 		add	s1,s4,s1
 1995              	.LVL195:
 1996              	.LEHB20:
 1997              	.LBB100:
 1998              	.LBB101:
  84:src/../test/ConsumerProducer_CPP_Sync_API_test.hpp **** 
 1999              		.loc 4 84 48 discriminator 3
 2000 06c4 97000000 		call	_ZN6ThreadC2Ev@plt
 2000      E7800000 
 2001              	.LVL196:
 2002              	.LEHE20:
  84:src/../test/ConsumerProducer_CPP_Sync_API_test.hpp **** 
 2003              		.loc 4 84 48
 2004 06cc 97070000 		lla	a5,_ZTV8Consumer+16
 2004      93870700 
 2005 06d4 2330FB00 		sd	a5,0(s6)
 2006 06d8 23389B00 		sd	s1,16(s6)
 2007              	.LVL197:
 2008              	.LBE101:
 2009              	.LBE100:
 156:src/../test/ConsumerProducer_CPP_Sync_API_test.hpp **** 
GAS LISTING /tmp/ccaOOzD6.s 			page 48


 2010              		.loc 4 156 5 is_stmt 1
 156:src/../test/ConsumerProducer_CPP_Sync_API_test.hpp **** 
 2011              		.loc 4 156 26 is_stmt 0
 2012 06dc 13050B00 		mv	a0,s6
 2013              	.LEHB21:
 2014 06e0 97000000 		call	_ZN6Thread5startEv@plt
 2014      E7800000 
 2015              	.LVL198:
 2016              	.LBB102:
 158:src/../test/ConsumerProducer_CPP_Sync_API_test.hpp ****         data[i].id = i;
 2017              		.loc 4 158 14
 2018 06e8 93040000 		li	s1,0
 2019 06ec 6F008003 		j	.L107
 2020              	.LVL199:
 2021              	.L131:
 2022              	.LBB103:
 2023              	.LBB104:
  57:src/../test/ConsumerProducer_CPP_Sync_API_test.hpp **** 
 2024              		.loc 4 57 48
 2025 06f0 97070000 		lla	a5,_ZTV8Producer+16
 2025      93870700 
 2026 06f8 23B0FC00 		sd	a5,0(s9)
 2027 06fc 23B88C01 		sd	s8,16(s9)
 2028              	.LVL200:
 2029              	.LBE104:
 2030              	.LBE103:
 164:src/../test/ConsumerProducer_CPP_Sync_API_test.hpp ****         } else {
 2031              		.loc 4 164 24
 2032 0700 93973400 		slli	a5,s1,3
 2033 0704 B387F900 		add	a5,s3,a5
 2034 0708 23B09701 		sd	s9,0(a5)
 2035              	.L106:
 169:src/../test/ConsumerProducer_CPP_Sync_API_test.hpp ****     }
 2036              		.loc 4 169 9 is_stmt 1
 169:src/../test/ConsumerProducer_CPP_Sync_API_test.hpp ****     }
 2037              		.loc 4 169 18 is_stmt 0
 2038 070c 93973400 		slli	a5,s1,3
 2039 0710 B387F900 		add	a5,s3,a5
 169:src/../test/ConsumerProducer_CPP_Sync_API_test.hpp ****     }
 2040              		.loc 4 169 26
 2041 0714 03B50700 		ld	a0,0(a5)
 2042 0718 97000000 		call	_ZN6Thread5startEv@plt
 2042      E7800000 
 2043              	.LVL201:
 158:src/../test/ConsumerProducer_CPP_Sync_API_test.hpp ****         data[i].id = i;
 2044              		.loc 4 158 5 is_stmt 1
 2045 0720 9B841400 		addiw	s1,s1,1
 2046              	.LVL202:
 2047              	.L107:
 158:src/../test/ConsumerProducer_CPP_Sync_API_test.hpp ****         data[i].id = i;
 2048              		.loc 4 158 23 discriminator 1
 2049 0724 63D0240B 		bge	s1,s2,.L104
 159:src/../test/ConsumerProducer_CPP_Sync_API_test.hpp ****         data[i].buffer = buffer;
 2050              		.loc 4 159 9
 159:src/../test/ConsumerProducer_CPP_Sync_API_test.hpp ****         data[i].buffer = buffer;
 2051              		.loc 4 159 20 is_stmt 0
 2052 0728 93971400 		slli	a5,s1,1
GAS LISTING /tmp/ccaOOzD6.s 			page 49


 2053 072c B3879700 		add	a5,a5,s1
 2054 0730 93973700 		slli	a5,a5,3
 2055 0734 B307FA00 		add	a5,s4,a5
 2056 0738 23A09700 		sw	s1,0(a5)
 160:src/../test/ConsumerProducer_CPP_Sync_API_test.hpp ****         data[i].wait = waitForAll;
 2057              		.loc 4 160 9 is_stmt 1
 160:src/../test/ConsumerProducer_CPP_Sync_API_test.hpp ****         data[i].wait = waitForAll;
 2058              		.loc 4 160 24 is_stmt 0
 2059 073c 23B45701 		sd	s5,8(a5)
 161:src/../test/ConsumerProducer_CPP_Sync_API_test.hpp **** 
 2060              		.loc 4 161 9 is_stmt 1
 161:src/../test/ConsumerProducer_CPP_Sync_API_test.hpp **** 
 2061              		.loc 4 161 22 is_stmt 0
 2062 0740 17070000 		ld	a4,.LANCHOR0+8
 2062      03370700 
 2063 0748 23B8E700 		sd	a4,16(a5)
 163:src/../test/ConsumerProducer_CPP_Sync_API_test.hpp ****             threads[i] = new Producer(data+i);
 2064              		.loc 4 163 9 is_stmt 1
 2065 074c 63589002 		blez	s1,.L105
 164:src/../test/ConsumerProducer_CPP_Sync_API_test.hpp ****         } else {
 2066              		.loc 4 164 13
 164:src/../test/ConsumerProducer_CPP_Sync_API_test.hpp ****         } else {
 2067              		.loc 4 164 45 is_stmt 0
 2068 0750 13058001 		li	a0,24
 2069 0754 97000000 		call	_Znwm@plt
 2069      E7800000 
 2070              	.LVL203:
 2071              	.LEHE21:
 2072 075c 930C0500 		mv	s9,a0
 164:src/../test/ConsumerProducer_CPP_Sync_API_test.hpp ****         } else {
 2073              		.loc 4 164 43
 2074 0760 139C1400 		slli	s8,s1,1
 2075 0764 330C9C00 		add	s8,s8,s1
 2076 0768 131C3C00 		slli	s8,s8,3
 164:src/../test/ConsumerProducer_CPP_Sync_API_test.hpp ****         } else {
 2077              		.loc 4 164 45
 2078 076c 330C8A01 		add	s8,s4,s8
 2079              	.LVL204:
 2080              	.LEHB22:
 2081              	.LBB106:
 2082              	.LBB105:
  57:src/../test/ConsumerProducer_CPP_Sync_API_test.hpp **** 
 2083              		.loc 4 57 48
 2084 0770 97000000 		call	_ZN6ThreadC2Ev@plt
 2084      E7800000 
 2085              	.LVL205:
 2086              	.LEHE22:
 2087 0778 6FF09FF7 		j	.L131
 2088              	.LVL206:
 2089              	.L105:
 2090              	.LBE105:
 2091              	.LBE106:
 166:src/../test/ConsumerProducer_CPP_Sync_API_test.hpp ****         }
 2092              		.loc 4 166 13 is_stmt 1
 166:src/../test/ConsumerProducer_CPP_Sync_API_test.hpp ****         }
 2093              		.loc 4 166 53 is_stmt 0
 2094 077c 13058001 		li	a0,24
GAS LISTING /tmp/ccaOOzD6.s 			page 50


 2095              	.LEHB23:
 2096 0780 97000000 		call	_Znwm@plt
 2096      E7800000 
 2097              	.LVL207:
 2098              	.LEHE23:
 2099 0788 930C0500 		mv	s9,a0
 166:src/../test/ConsumerProducer_CPP_Sync_API_test.hpp ****         }
 2100              		.loc 4 166 51
 2101 078c 139C1400 		slli	s8,s1,1
 2102 0790 330C9C00 		add	s8,s8,s1
 2103 0794 131C3C00 		slli	s8,s8,3
 166:src/../test/ConsumerProducer_CPP_Sync_API_test.hpp ****         }
 2104              		.loc 4 166 53
 2105 0798 330C8A01 		add	s8,s4,s8
 2106              	.LVL208:
 2107              	.LEHB24:
 2108              	.LBB107:
 2109              	.LBB108:
  26:src/../test/ConsumerProducer_CPP_Sync_API_test.hpp **** 
 2110              		.loc 4 26 56
 2111 079c 97000000 		call	_ZN6ThreadC2Ev@plt
 2111      E7800000 
 2112              	.LVL209:
 2113              	.LEHE24:
 2114 07a4 97070000 		lla	a5,_ZTV16ProducerKeyboard+16
 2114      93870700 
 2115 07ac 23B0FC00 		sd	a5,0(s9)
 2116 07b0 23B88C01 		sd	s8,16(s9)
 2117              	.LVL210:
 2118              	.LBE108:
 2119              	.LBE107:
 166:src/../test/ConsumerProducer_CPP_Sync_API_test.hpp ****         }
 2120              		.loc 4 166 24
 2121 07b4 93973400 		slli	a5,s1,3
 2122 07b8 B387F900 		add	a5,s3,a5
 2123 07bc 23B09701 		sd	s9,0(a5)
 2124 07c0 6FF0DFF4 		j	.L106
 2125              	.L104:
 2126              	.LBE102:
 172:src/../test/ConsumerProducer_CPP_Sync_API_test.hpp **** 
 2127              		.loc 4 172 5 is_stmt 1
 2128              	.LEHB25:
 172:src/../test/ConsumerProducer_CPP_Sync_API_test.hpp **** 
 2129              		.loc 4 172 21 is_stmt 0
 2130 07c4 97000000 		call	_ZN6Thread8dispatchEv@plt
 2130      E7800000 
 2131              	.LVL211:
 2132              	.LBB109:
 174:src/../test/ConsumerProducer_CPP_Sync_API_test.hpp ****         waitForAll->wait();
 2133              		.loc 4 174 14
 2134 07cc 93040000 		li	s1,0
 2135              	.LVL212:
 2136              	.L109:
 174:src/../test/ConsumerProducer_CPP_Sync_API_test.hpp ****         waitForAll->wait();
 2137              		.loc 4 174 23 is_stmt 1 discriminator 1
 2138 07d0 634E9900 		bgt	s1,s2,.L121
 175:src/../test/ConsumerProducer_CPP_Sync_API_test.hpp ****     }
GAS LISTING /tmp/ccaOOzD6.s 			page 51


 2139              		.loc 4 175 9
 175:src/../test/ConsumerProducer_CPP_Sync_API_test.hpp ****     }
 2140              		.loc 4 175 25 is_stmt 0
 2141 07d4 17050000 		ld	a0,.LANCHOR0+8
 2141      03350500 
 2142 07dc 97000000 		call	_ZN9Semaphore4waitEv@plt
 2142      E7800000 
 2143              	.LVL213:
 174:src/../test/ConsumerProducer_CPP_Sync_API_test.hpp ****         waitForAll->wait();
 2144              		.loc 4 174 5 is_stmt 1
 2145 07e4 9B841400 		addiw	s1,s1,1
 2146              	.LVL214:
 2147 07e8 6FF09FFE 		j	.L109
 2148              	.LVL215:
 2149              	.L121:
 2150              	.LBE109:
 2151              	.LBB110:
 178:src/../test/ConsumerProducer_CPP_Sync_API_test.hpp ****         delete threads[i];
 2152              		.loc 4 178 14 is_stmt 0
 2153 07ec 93040000 		li	s1,0
 2154              	.LVL216:
 2155 07f0 6F008000 		j	.L108
 2156              	.LVL217:
 2157              	.L111:
 178:src/../test/ConsumerProducer_CPP_Sync_API_test.hpp ****         delete threads[i];
 2158              		.loc 4 178 5 is_stmt 1 discriminator 2
 2159 07f4 9B841400 		addiw	s1,s1,1
 2160              	.LVL218:
 2161              	.L108:
 178:src/../test/ConsumerProducer_CPP_Sync_API_test.hpp ****         delete threads[i];
 2162              		.loc 4 178 23 discriminator 1
 2163 07f8 63D22403 		bge	s1,s2,.L110
 179:src/../test/ConsumerProducer_CPP_Sync_API_test.hpp ****     }
 2164              		.loc 4 179 9
 179:src/../test/ConsumerProducer_CPP_Sync_API_test.hpp ****     }
 2165              		.loc 4 179 25 is_stmt 0
 2166 07fc 93973400 		slli	a5,s1,3
 2167 0800 B387F900 		add	a5,s3,a5
 2168 0804 03B50700 		ld	a0,0(a5)
 179:src/../test/ConsumerProducer_CPP_Sync_API_test.hpp ****     }
 2169              		.loc 4 179 26
 2170 0808 E30605FE 		beqz	a0,.L111
 179:src/../test/ConsumerProducer_CPP_Sync_API_test.hpp ****     }
 2171              		.loc 4 179 25 discriminator 1
 2172 080c 83370500 		ld	a5,0(a0)
 2173 0810 83B78700 		ld	a5,8(a5)
 2174 0814 E7800700 		jalr	a5
 2175              	.LVL219:
 2176 0818 6FF0DFFD 		j	.L111
 2177              	.L110:
 2178              	.LBE110:
 181:src/../test/ConsumerProducer_CPP_Sync_API_test.hpp ****     delete waitForAll;
 2179              		.loc 4 181 5 is_stmt 1
 181:src/../test/ConsumerProducer_CPP_Sync_API_test.hpp ****     delete waitForAll;
 2180              		.loc 4 181 26 is_stmt 0
 2181 081c 630A0B00 		beqz	s6,.L112
 181:src/../test/ConsumerProducer_CPP_Sync_API_test.hpp ****     delete waitForAll;
GAS LISTING /tmp/ccaOOzD6.s 			page 52


 2182              		.loc 4 181 12 discriminator 1
 2183 0820 83370B00 		ld	a5,0(s6)
 2184 0824 83B78700 		ld	a5,8(a5)
 2185 0828 13050B00 		mv	a0,s6
 2186 082c E7800700 		jalr	a5
 2187              	.LVL220:
 2188              	.L112:
 182:src/../test/ConsumerProducer_CPP_Sync_API_test.hpp ****     delete buffer;
 2189              		.loc 4 182 5 is_stmt 1
 182:src/../test/ConsumerProducer_CPP_Sync_API_test.hpp ****     delete buffer;
 2190              		.loc 4 182 12 is_stmt 0
 2191 0830 17050000 		ld	a0,.LANCHOR0+8
 2191      03350500 
 182:src/../test/ConsumerProducer_CPP_Sync_API_test.hpp ****     delete buffer;
 2192              		.loc 4 182 22
 2193 0838 63080500 		beqz	a0,.L113
 182:src/../test/ConsumerProducer_CPP_Sync_API_test.hpp ****     delete buffer;
 2194              		.loc 4 182 12 discriminator 1
 2195 083c 83370500 		ld	a5,0(a0)
 2196 0840 83B78700 		ld	a5,8(a5)
 2197 0844 E7800700 		jalr	a5
 2198              	.LVL221:
 2199              	.L113:
 2200              		.loc 4 183 5 is_stmt 1
 2201              		.loc 4 183 18 is_stmt 0
 2202 0848 638E0A00 		beqz	s5,.L114
 2203              		.loc 4 183 12 discriminator 1
 2204 084c 13850A00 		mv	a0,s5
 2205 0850 97000000 		call	_ZN9BufferCPPD1Ev@plt
 2205      E7800000 
 2206              	.LVL222:
 2207 0858 13850A00 		mv	a0,s5
 2208 085c 97000000 		call	_ZdlPv@plt
 2208      E7800000 
 2209              	.LVL223:
 2210              	.L114:
 2211 0864 13810B00 		mv	sp,s7
 2212              	.LVL224:
 2213              	.L100:
 184:src/../test/ConsumerProducer_CPP_Sync_API_test.hpp **** 
 185:src/../test/ConsumerProducer_CPP_Sync_API_test.hpp **** }
 2214              		.loc 4 185 1
 2215 0868 130104F8 		addi	sp,s0,-128
 2216              		.cfi_remember_state
 2217              		.cfi_def_cfa 2, 128
 2218 086c 83308107 		ld	ra,120(sp)
 2219              		.cfi_restore 1
 2220 0870 03340107 		ld	s0,112(sp)
 2221              		.cfi_restore 8
 2222 0874 83348106 		ld	s1,104(sp)
 2223              		.cfi_restore 9
 2224 0878 03390106 		ld	s2,96(sp)
 2225              		.cfi_restore 18
 2226              	.LVL225:
 2227 087c 83398105 		ld	s3,88(sp)
 2228              		.cfi_restore 19
 2229 0880 033A0105 		ld	s4,80(sp)
GAS LISTING /tmp/ccaOOzD6.s 			page 53


 2230              		.cfi_restore 20
 2231 0884 833A8104 		ld	s5,72(sp)
 2232              		.cfi_restore 21
 2233 0888 033B0104 		ld	s6,64(sp)
 2234              		.cfi_restore 22
 2235 088c 833B8103 		ld	s7,56(sp)
 2236              		.cfi_restore 23
 2237 0890 033C0103 		ld	s8,48(sp)
 2238              		.cfi_restore 24
 2239 0894 833C8102 		ld	s9,40(sp)
 2240              		.cfi_restore 25
 2241 0898 13010108 		addi	sp,sp,128
 2242              		.cfi_def_cfa_offset 0
 2243 089c 67800000 		jr	ra
 2244              	.LVL226:
 2245              	.L122:
 2246              		.cfi_restore_state
 2247 08a0 93040500 		mv	s1,a0
 2248              	.LVL227:
 143:src/../test/ConsumerProducer_CPP_Sync_API_test.hpp **** 
 2249              		.loc 4 143 40
 2250 08a4 13850A00 		mv	a0,s5
 2251 08a8 97000000 		call	_ZdlPv@plt
 2251      E7800000 
 2252              	.LVL228:
 2253 08b0 13850400 		mv	a0,s1
 2254 08b4 97000000 		call	_Unwind_Resume@plt
 2254      E7800000 
 2255              	.LVL229:
 2256              	.L123:
 2257 08bc 13090500 		mv	s2,a0
 2258              	.LVL230:
 145:src/../test/ConsumerProducer_CPP_Sync_API_test.hpp **** 
 2259              		.loc 4 145 33
 2260 08c0 13850400 		mv	a0,s1
 2261 08c4 97000000 		call	_ZdlPv@plt
 2261      E7800000 
 2262              	.LVL231:
 2263 08cc 13050900 		mv	a0,s2
 2264 08d0 97000000 		call	_Unwind_Resume@plt
 2264      E7800000 
 2265              	.LVL232:
 2266              	.L124:
 2267 08d8 93040500 		mv	s1,a0
 2268              	.LVL233:
 155:src/../test/ConsumerProducer_CPP_Sync_API_test.hpp ****     consumerThread->start();
 2269              		.loc 4 155 49
 2270 08dc 13050B00 		mv	a0,s6
 2271 08e0 97000000 		call	_ZdlPv@plt
 2271      E7800000 
 2272              	.LVL234:
 2273 08e8 13850400 		mv	a0,s1
 2274 08ec 97000000 		call	_Unwind_Resume@plt
 2274      E7800000 
 2275              	.LVL235:
 2276              	.L125:
 2277 08f4 93040500 		mv	s1,a0
GAS LISTING /tmp/ccaOOzD6.s 			page 54


 2278              	.LVL236:
 2279              	.LBB111:
 164:src/../test/ConsumerProducer_CPP_Sync_API_test.hpp ****         } else {
 2280              		.loc 4 164 45
 2281 08f8 13850C00 		mv	a0,s9
 2282 08fc 97000000 		call	_ZdlPv@plt
 2282      E7800000 
 2283              	.LVL237:
 2284 0904 13850400 		mv	a0,s1
 2285 0908 97000000 		call	_Unwind_Resume@plt
 2285      E7800000 
 2286              	.LVL238:
 2287              	.L126:
 2288 0910 93040500 		mv	s1,a0
 2289              	.LVL239:
 166:src/../test/ConsumerProducer_CPP_Sync_API_test.hpp ****         }
 2290              		.loc 4 166 53
 2291 0914 13850C00 		mv	a0,s9
 2292 0918 97000000 		call	_ZdlPv@plt
 2292      E7800000 
 2293              	.LVL240:
 2294 0920 13850400 		mv	a0,s1
 2295 0924 97000000 		call	_Unwind_Resume@plt
 2295      E7800000 
 2296              	.LVL241:
 2297              	.LEHE25:
 2298              	.LBE111:
 2299              		.cfi_endproc
 2300              	.LFE40:
 2301              		.section	.gcc_except_table
 2302              	.LLSDA40:
 2303 00c8 FF       		.byte	0xff
 2304 00c9 FF       		.byte	0xff
 2305 00ca 03       		.byte	0x3
 2306 00cb 8F01     		.byte	0x8f,0x1
 2307 00cd 00000000 		.4byte	.LEHB15-.LFB40
 2308 00d1 00000000 		.4byte	.LEHE15-.LEHB15
 2309 00d5 00000000 		.4byte	0
 2310 00d9 00       		.byte	0
 2311 00da 00000000 		.4byte	.LEHB16-.LFB40
 2312 00de 00000000 		.4byte	.LEHE16-.LEHB16
 2313 00e2 00000000 		.4byte	.L122-.LFB40
 2314 00e6 00       		.byte	0
 2315 00e7 00000000 		.4byte	.LEHB17-.LFB40
 2316 00eb 00000000 		.4byte	.LEHE17-.LEHB17
 2317 00ef 00000000 		.4byte	0
 2318 00f3 00       		.byte	0
 2319 00f4 00000000 		.4byte	.LEHB18-.LFB40
 2320 00f8 00000000 		.4byte	.LEHE18-.LEHB18
 2321 00fc 00000000 		.4byte	.L123-.LFB40
 2322 0100 00       		.byte	0
 2323 0101 00000000 		.4byte	.LEHB19-.LFB40
 2324 0105 00000000 		.4byte	.LEHE19-.LEHB19
 2325 0109 00000000 		.4byte	0
 2326 010d 00       		.byte	0
 2327 010e 00000000 		.4byte	.LEHB20-.LFB40
 2328 0112 00000000 		.4byte	.LEHE20-.LEHB20
GAS LISTING /tmp/ccaOOzD6.s 			page 55


 2329 0116 00000000 		.4byte	.L124-.LFB40
 2330 011a 00       		.byte	0
 2331 011b 00000000 		.4byte	.LEHB21-.LFB40
 2332 011f 00000000 		.4byte	.LEHE21-.LEHB21
 2333 0123 00000000 		.4byte	0
 2334 0127 00       		.byte	0
 2335 0128 00000000 		.4byte	.LEHB22-.LFB40
 2336 012c 00000000 		.4byte	.LEHE22-.LEHB22
 2337 0130 00000000 		.4byte	.L125-.LFB40
 2338 0134 00       		.byte	0
 2339 0135 00000000 		.4byte	.LEHB23-.LFB40
 2340 0139 00000000 		.4byte	.LEHE23-.LEHB23
 2341 013d 00000000 		.4byte	0
 2342 0141 00       		.byte	0
 2343 0142 00000000 		.4byte	.LEHB24-.LFB40
 2344 0146 00000000 		.4byte	.LEHE24-.LEHB24
 2345 014a 00000000 		.4byte	.L126-.LFB40
 2346 014e 00       		.byte	0
 2347 014f 00000000 		.4byte	.LEHB25-.LFB40
 2348 0153 00000000 		.4byte	.LEHE25-.LEHB25
 2349 0157 00000000 		.4byte	0
 2350 015b 00       		.byte	0
 2351              		.text
 2353              		.align	2
 2354              		.globl	_Z8userMainv
 2356              	_Z8userMainv:
 2357              	.LFB41:
  57:src/test.cpp  **** //#include "../test/Threads_C_API_test.hpp" // zadatak 2, niti C API i sinhrona promena konteksta
  58:src/test.cpp  **** //#include "../test/Threads_CPP_API_test.hpp" // zadatak 2., niti CPP API i sinhrona promena kontek
  59:src/test.cpp  **** 
  60:src/test.cpp  **** //#include "../test/ConsumerProducer_C_API_test.h" // zadatak 3., kompletan C API sa semaforima, si
  61:src/test.cpp  **** #include "../test/ConsumerProducer_CPP_Sync_API_test.hpp" // zadatak 3., kompletan CPP API sa semaf
  62:src/test.cpp  **** 
  63:src/test.cpp  **** //#include "../test/ThreadSleep_C_API_test.hpp" // thread_sleep test C API
  64:src/test.cpp  **** //#include "../test/ConsumerProducer_CPP_API_test.hpp" // zadatak 4. CPP API i asinhrona promena ko
  65:src/test.cpp  **** 
  66:src/test.cpp  **** void userMain() {
 2358              		.loc 2 66 17 is_stmt 1
 2359              		.cfi_startproc
 2360 092c 130101FF 		addi	sp,sp,-16
 2361              		.cfi_def_cfa_offset 16
 2362 0930 23341100 		sd	ra,8(sp)
 2363 0934 23308100 		sd	s0,0(sp)
 2364              		.cfi_offset 1, -8
 2365              		.cfi_offset 8, -16
 2366 0938 13040101 		addi	s0,sp,16
 2367              		.cfi_def_cfa 8, 0
  67:src/test.cpp  ****     //Threads_C_API_test(); // zadatak 2., niti C API i sinhrona promena konteksta
  68:src/test.cpp  ****     //Threads_CPP_API_test(); // zadatak 2., niti CPP API i sinhrona promena konteksta
  69:src/test.cpp  **** 
  70:src/test.cpp  ****     //producerConsumer_C_API(); // zadatak 3., kompletan C API sa semaforima, sinhrona promena kont
  71:src/test.cpp  ****     producerConsumer_CPP_Sync_API(); // zadatak 3., kompletan CPP API sa semaforima, sinhrona prome
 2368              		.loc 2 71 5
 2369              		.loc 2 71 34 is_stmt 0
 2370 093c 97000000 		call	_Z29producerConsumer_CPP_Sync_APIv
 2370      E7800000 
 2371              	.LVL242:
GAS LISTING /tmp/ccaOOzD6.s 			page 56


  72:src/test.cpp  **** 
  73:src/test.cpp  ****     //testSleeping(); // thread_sleep test C API
  74:src/test.cpp  ****     //ConsumerProducerCPP::testConsumerProducer(); // zadatak 4. CPP API i asinhrona promena kontek
  75:src/test.cpp  **** 
  76:src/test.cpp  **** 
  77:src/test.cpp  **** }
 2372              		.loc 2 77 1
 2373 0944 83308100 		ld	ra,8(sp)
 2374              		.cfi_restore 1
 2375 0948 03340100 		ld	s0,0(sp)
 2376              		.cfi_restore 8
 2377              		.cfi_def_cfa 2, 16
 2378 094c 13010101 		addi	sp,sp,16
 2379              		.cfi_def_cfa_offset 0
 2380 0950 67800000 		jr	ra
 2381              		.cfi_endproc
 2382              	.LFE41:
 2384              		.align	2
 2385              		.globl	main
 2387              	main:
 2388              	.LFB42:
  78:src/test.cpp  **** //COMPLETED
  79:src/test.cpp  **** int main(){
 2389              		.loc 2 79 11 is_stmt 1
 2390              		.cfi_startproc
 2391              		.cfi_personality 0x9b,DW.ref.__gxx_personality_v0
 2392              		.cfi_lsda 0x1b,.LLSDA42
 2393 0954 130101FE 		addi	sp,sp,-32
 2394              		.cfi_def_cfa_offset 32
 2395 0958 233C1100 		sd	ra,24(sp)
 2396 095c 23388100 		sd	s0,16(sp)
 2397 0960 23349100 		sd	s1,8(sp)
 2398 0964 23302101 		sd	s2,0(sp)
 2399              		.cfi_offset 1, -8
 2400              		.cfi_offset 8, -16
 2401              		.cfi_offset 9, -24
 2402              		.cfi_offset 18, -32
 2403 0968 13040102 		addi	s0,sp,32
 2404              		.cfi_def_cfa 8, 0
  80:src/test.cpp  ****     init();
 2405              		.loc 2 80 5
 2406              	.LEHB26:
 2407              		.loc 2 80 9 is_stmt 0
 2408 096c 97000000 		call	_Z4initv
 2408      E7800000 
 2409              	.LVL243:
  81:src/test.cpp  ****     //userMain();
  82:src/test.cpp  ****     PrintP *thread = new PrintP(30);
 2410              		.loc 2 82 5 is_stmt 1
 2411              		.loc 2 82 35 is_stmt 0
 2412 0974 13050001 		li	a0,16
 2413 0978 97000000 		call	_Znwm@plt
 2413      E7800000 
 2414              	.LVL244:
 2415              	.LEHE26:
 2416 0980 13090500 		mv	s2,a0
 2417              	.LVL245:
GAS LISTING /tmp/ccaOOzD6.s 			page 57


 2418              	.LBB112:
 2419              	.LBB113:
  15:src/test.cpp  ****     void periodicActivation () {
 2420              		.loc 2 15 46
 2421 0984 9305E001 		li	a1,30
 2422              	.LEHB27:
 2423 0988 97000000 		call	_ZN14PeriodicThreadC2Em@plt
 2423      E7800000 
 2424              	.LVL246:
 2425              	.LEHE27:
 2426 0990 97070000 		lla	a5,_ZTV6PrintP+16
 2426      93870700 
 2427 0998 2330F900 		sd	a5,0(s2)
 2428              	.LVL247:
 2429              	.LBE113:
 2430              	.LBE112:
  83:src/test.cpp  ****     PrintA *thread1 = new PrintA(5);
 2431              		.loc 2 83 5 is_stmt 1
 2432              		.loc 2 83 35 is_stmt 0
 2433 099c 13050001 		li	a0,16
 2434              	.LEHB28:
 2435 09a0 97000000 		call	_Znwm@plt
 2435      E7800000 
 2436              	.LVL248:
 2437              	.LEHE28:
 2438 09a8 93040500 		mv	s1,a0
 2439              	.LVL249:
 2440              	.LBB114:
 2441              	.LBB115:
  24:src/test.cpp  ****     void periodicActivation () {
 2442              		.loc 2 24 46
 2443 09ac 93055000 		li	a1,5
 2444              	.LEHB29:
 2445 09b0 97000000 		call	_ZN14PeriodicThreadC2Em@plt
 2445      E7800000 
 2446              	.LVL250:
 2447              	.LEHE29:
 2448 09b8 97070000 		lla	a5,_ZTV6PrintA+16
 2448      93870700 
 2449 09c0 23B0F400 		sd	a5,0(s1)
 2450              	.LVL251:
 2451              	.LBE115:
 2452              	.LBE114:
  84:src/test.cpp  ****     thread->start();
 2453              		.loc 2 84 5 is_stmt 1
 2454              		.loc 2 84 18 is_stmt 0
 2455 09c4 13050900 		mv	a0,s2
 2456              	.LEHB30:
 2457 09c8 97000000 		call	_ZN6Thread5startEv@plt
 2457      E7800000 
 2458              	.LVL252:
  85:src/test.cpp  ****     thread1->start();
 2459              		.loc 2 85 5 is_stmt 1
 2460              		.loc 2 85 19 is_stmt 0
 2461 09d0 13850400 		mv	a0,s1
 2462 09d4 97000000 		call	_ZN6Thread5startEv@plt
 2462      E7800000 
GAS LISTING /tmp/ccaOOzD6.s 			page 58


 2463              	.LVL253:
 2464 09dc 6F00C000 		j	.L135
 2465              	.LVL254:
 2466              	.L142:
 2467              	.LBB116:
  86:src/test.cpp  ****     while (true){
  87:src/test.cpp  ****         char c = Console::getc();
  88:src/test.cpp  ****         if(c == 103) {
  89:src/test.cpp  ****             block_All_Periodic();
 2468              		.loc 2 89 13 is_stmt 1
 2469              		.loc 2 89 31 is_stmt 0
 2470 09e0 97000000 		call	block_All_Periodic@plt
 2470      E7800000 
 2471              	.LVL255:
 2472              	.L135:
 2473              	.LBE116:
  86:src/test.cpp  ****     while (true){
 2474              		.loc 2 86 5 is_stmt 1
 2475              	.LBB117:
  87:src/test.cpp  ****         if(c == 103) {
 2476              		.loc 2 87 9
  87:src/test.cpp  ****         if(c == 103) {
 2477              		.loc 2 87 31 is_stmt 0
 2478 09e8 97000000 		call	_ZN7Console4getcEv@plt
 2478      E7800000 
 2479              	.LVL256:
  88:src/test.cpp  ****             block_All_Periodic();
 2480              		.loc 2 88 9 is_stmt 1
 2481 09f0 93077006 		li	a5,103
 2482 09f4 E31AF5FE 		bne	a0,a5,.L135
 2483 09f8 6FF09FFE 		j	.L142
 2484              	.LVL257:
 2485              	.L139:
 2486 09fc 93040500 		mv	s1,a0
 2487              	.LBE117:
  82:src/test.cpp  ****     PrintA *thread1 = new PrintA(5);
 2488              		.loc 2 82 35 is_stmt 0
 2489 0a00 13050900 		mv	a0,s2
 2490 0a04 97000000 		call	_ZdlPv@plt
 2490      E7800000 
 2491              	.LVL258:
 2492 0a0c 13850400 		mv	a0,s1
 2493 0a10 97000000 		call	_Unwind_Resume@plt
 2493      E7800000 
 2494              	.LVL259:
 2495              	.L140:
 2496 0a18 13090500 		mv	s2,a0
 2497              	.LVL260:
  83:src/test.cpp  ****     thread->start();
 2498              		.loc 2 83 35
 2499 0a1c 13850400 		mv	a0,s1
 2500 0a20 97000000 		call	_ZdlPv@plt
 2500      E7800000 
 2501              	.LVL261:
 2502 0a28 13050900 		mv	a0,s2
 2503 0a2c 97000000 		call	_Unwind_Resume@plt
 2503      E7800000 
GAS LISTING /tmp/ccaOOzD6.s 			page 59


 2504              	.LVL262:
 2505              	.LEHE30:
 2506              		.cfi_endproc
 2507              	.LFE42:
 2508              		.section	.gcc_except_table
 2509              	.LLSDA42:
 2510 015c FF       		.byte	0xff
 2511 015d FF       		.byte	0xff
 2512 015e 03       		.byte	0x3
 2513 015f 41       		.byte	0x41
 2514 0160 00000000 		.4byte	.LEHB26-.LFB42
 2515 0164 00000000 		.4byte	.LEHE26-.LEHB26
 2516 0168 00000000 		.4byte	0
 2517 016c 00       		.byte	0
 2518 016d 00000000 		.4byte	.LEHB27-.LFB42
 2519 0171 00000000 		.4byte	.LEHE27-.LEHB27
 2520 0175 00000000 		.4byte	.L139-.LFB42
 2521 0179 00       		.byte	0
 2522 017a 00000000 		.4byte	.LEHB28-.LFB42
 2523 017e 00000000 		.4byte	.LEHE28-.LEHB28
 2524 0182 00000000 		.4byte	0
 2525 0186 00       		.byte	0
 2526 0187 00000000 		.4byte	.LEHB29-.LFB42
 2527 018b 00000000 		.4byte	.LEHE29-.LEHB29
 2528 018f 00000000 		.4byte	.L140-.LFB42
 2529 0193 00       		.byte	0
 2530 0194 00000000 		.4byte	.LEHB30-.LFB42
 2531 0198 00000000 		.4byte	.LEHE30-.LEHB30
 2532 019c 00000000 		.4byte	0
 2533 01a0 00       		.byte	0
 2534              		.text
 2536              		.weak	_ZTV14PeriodicThread
 2537              		.section	.data.rel.ro.local._ZTV14PeriodicThread,"awG",@progbits,_ZTV14PeriodicThread,comdat
 2538              		.align	3
 2541              	_ZTV14PeriodicThread:
 2542 0000 00000000 		.dword	0
 2542      00000000 
 2543 0008 00000000 		.dword	0
 2543      00000000 
 2544 0010 00000000 		.dword	_ZN14PeriodicThreadD1Ev
 2544      00000000 
 2545 0018 00000000 		.dword	_ZN14PeriodicThreadD0Ev
 2545      00000000 
 2546 0020 00000000 		.dword	_ZN6Thread3runEv
 2546      00000000 
 2547 0028 00000000 		.dword	_ZN14PeriodicThread18periodicActivationEv
 2547      00000000 
 2548              		.weak	_ZTV13PutCharThread
 2549              		.section	.data.rel.ro.local._ZTV13PutCharThread,"awG",@progbits,_ZTV13PutCharThread,comdat
 2550              		.align	3
 2553              	_ZTV13PutCharThread:
 2554 0000 00000000 		.dword	0
 2554      00000000 
 2555 0008 00000000 		.dword	0
 2555      00000000 
 2556 0010 00000000 		.dword	_ZN13PutCharThreadD1Ev
 2556      00000000 
GAS LISTING /tmp/ccaOOzD6.s 			page 60


 2557 0018 00000000 		.dword	_ZN13PutCharThreadD0Ev
 2557      00000000 
 2558 0020 00000000 		.dword	_ZN13PutCharThread3runEv
 2558      00000000 
 2559              		.weak	_ZTV13GetCharThread
 2560              		.section	.data.rel.ro.local._ZTV13GetCharThread,"awG",@progbits,_ZTV13GetCharThread,comdat
 2561              		.align	3
 2564              	_ZTV13GetCharThread:
 2565 0000 00000000 		.dword	0
 2565      00000000 
 2566 0008 00000000 		.dword	0
 2566      00000000 
 2567 0010 00000000 		.dword	_ZN13GetCharThreadD1Ev
 2567      00000000 
 2568 0018 00000000 		.dword	_ZN13GetCharThreadD0Ev
 2568      00000000 
 2569 0020 00000000 		.dword	_ZN13GetCharThread3runEv
 2569      00000000 
 2570              		.weak	_ZTV6PrintP
 2571              		.section	.data.rel.ro.local._ZTV6PrintP,"awG",@progbits,_ZTV6PrintP,comdat
 2572              		.align	3
 2575              	_ZTV6PrintP:
 2576 0000 00000000 		.dword	0
 2576      00000000 
 2577 0008 00000000 		.dword	0
 2577      00000000 
 2578 0010 00000000 		.dword	_ZN6PrintPD1Ev
 2578      00000000 
 2579 0018 00000000 		.dword	_ZN6PrintPD0Ev
 2579      00000000 
 2580 0020 00000000 		.dword	_ZN6Thread3runEv
 2580      00000000 
 2581 0028 00000000 		.dword	_ZN6PrintP18periodicActivationEv
 2581      00000000 
 2582              		.weak	_ZTV6PrintA
 2583              		.section	.data.rel.ro.local._ZTV6PrintA,"awG",@progbits,_ZTV6PrintA,comdat
 2584              		.align	3
 2587              	_ZTV6PrintA:
 2588 0000 00000000 		.dword	0
 2588      00000000 
 2589 0008 00000000 		.dword	0
 2589      00000000 
 2590 0010 00000000 		.dword	_ZN6PrintAD1Ev
 2590      00000000 
 2591 0018 00000000 		.dword	_ZN6PrintAD0Ev
 2591      00000000 
 2592 0020 00000000 		.dword	_ZN6Thread3runEv
 2592      00000000 
 2593 0028 00000000 		.dword	_ZN6PrintA18periodicActivationEv
 2593      00000000 
 2594              		.weak	_ZTV16ProducerKeyboard
 2595              		.section	.data.rel.ro.local._ZTV16ProducerKeyboard,"awG",@progbits,_ZTV16ProducerKeyboard,comdat
 2596              		.align	3
 2599              	_ZTV16ProducerKeyboard:
 2600 0000 00000000 		.dword	0
 2600      00000000 
 2601 0008 00000000 		.dword	0
GAS LISTING /tmp/ccaOOzD6.s 			page 61


 2601      00000000 
 2602 0010 00000000 		.dword	_ZN16ProducerKeyboardD1Ev
 2602      00000000 
 2603 0018 00000000 		.dword	_ZN16ProducerKeyboardD0Ev
 2603      00000000 
 2604 0020 00000000 		.dword	_ZN16ProducerKeyboard3runEv
 2604      00000000 
 2605              		.weak	_ZTV8Producer
 2606              		.section	.data.rel.ro.local._ZTV8Producer,"awG",@progbits,_ZTV8Producer,comdat
 2607              		.align	3
 2610              	_ZTV8Producer:
 2611 0000 00000000 		.dword	0
 2611      00000000 
 2612 0008 00000000 		.dword	0
 2612      00000000 
 2613 0010 00000000 		.dword	_ZN8ProducerD1Ev
 2613      00000000 
 2614 0018 00000000 		.dword	_ZN8ProducerD0Ev
 2614      00000000 
 2615 0020 00000000 		.dword	_ZN8Producer3runEv
 2615      00000000 
 2616              		.weak	_ZTV8Consumer
 2617              		.section	.data.rel.ro.local._ZTV8Consumer,"awG",@progbits,_ZTV8Consumer,comdat
 2618              		.align	3
 2621              	_ZTV8Consumer:
 2622 0000 00000000 		.dword	0
 2622      00000000 
 2623 0008 00000000 		.dword	0
 2623      00000000 
 2624 0010 00000000 		.dword	_ZN8ConsumerD1Ev
 2624      00000000 
 2625 0018 00000000 		.dword	_ZN8ConsumerD0Ev
 2625      00000000 
 2626 0020 00000000 		.dword	_ZN8Consumer3runEv
 2626      00000000 
 2627              		.globl	threadEnd
 2628              		.globl	waitForAll
 2629              		.bss
 2630              		.align	3
 2631              		.set	.LANCHOR0,. + 0
 2634              	threadEnd:
 2635 0000 00000000 		.zero	4
 2636 0004 00000000 		.zero	4
 2639              	waitForAll:
 2640 0008 00000000 		.zero	8
 2640      00000000 
 2641              		.text
 2642              	.Letext0:
 2643              		.file 5 "src/../lib/hw.h"
 2644              		.file 6 "src/../h/../h/../h/../h/syscall_c.h"
 2645              		.file 7 "src/../h/../h/../h/PCB_List.h"
 2646              		.file 8 "src/../h/../h/PCB.h"
 2647              		.file 9 "src/../h/../h/Sem.h"
 2648              		.file 10 "src/../h/Interrupt.h"
 2649              		.file 11 "src/../test/buffer_CPP_API.hpp"
 2650              		.file 12 "src/../test/printing.hpp"
 11258              		.align	3
GAS LISTING /tmp/ccaOOzD6.s 			page 62


 11261              	DW.ref.__gxx_personality_v0:
 11262 0000 00000000 		.dword	__gxx_personality_v0
 11262      00000000 
 11263              		.ident	"GCC: (Ubuntu 9.4.0-1ubuntu1~20.04) 9.4.0"
 11264              		.section	.note.GNU-stack,"",@progbits
GAS LISTING /tmp/ccaOOzD6.s 			page 63


DEFINED SYMBOLS
                            *ABS*:0000000000000000 test.cpp
     /tmp/ccaOOzD6.s:10     .text._ZN6Thread3runEv:0000000000000000 _ZN6Thread3runEv
     /tmp/ccaOOzD6.s:14     .text._ZN6Thread3runEv:0000000000000000 .L0 
     /tmp/ccaOOzD6.s:16     .text._ZN6Thread3runEv:0000000000000000 .L0 
     /tmp/ccaOOzD6.s:17     .text._ZN6Thread3runEv:0000000000000004 .L0 
     /tmp/ccaOOzD6.s:19     .text._ZN6Thread3runEv:0000000000000008 .L0 
     /tmp/ccaOOzD6.s:21     .text._ZN6Thread3runEv:000000000000000c .L0 
     /tmp/ccaOOzD6.s:23     .text._ZN6Thread3runEv:000000000000000c .L0 
     /tmp/ccaOOzD6.s:24     .text._ZN6Thread3runEv:0000000000000010 .L0 
     /tmp/ccaOOzD6.s:25     .text._ZN6Thread3runEv:0000000000000010 .L0 
     /tmp/ccaOOzD6.s:27     .text._ZN6Thread3runEv:0000000000000014 .L0 
     /tmp/ccaOOzD6.s:29     .text._ZN6Thread3runEv:0000000000000018 .L0 
     /tmp/ccaOOzD6.s:36     .text._ZN14PeriodicThread18periodicActivationEv:0000000000000000 _ZN14PeriodicThread18periodicActivationEv
     /tmp/ccaOOzD6.s:39     .text._ZN14PeriodicThread18periodicActivationEv:0000000000000000 .L0 
     /tmp/ccaOOzD6.s:41     .text._ZN14PeriodicThread18periodicActivationEv:0000000000000000 .L0 
     /tmp/ccaOOzD6.s:42     .text._ZN14PeriodicThread18periodicActivationEv:0000000000000004 .L0 
     /tmp/ccaOOzD6.s:44     .text._ZN14PeriodicThread18periodicActivationEv:0000000000000008 .L0 
     /tmp/ccaOOzD6.s:46     .text._ZN14PeriodicThread18periodicActivationEv:000000000000000c .L0 
     /tmp/ccaOOzD6.s:48     .text._ZN14PeriodicThread18periodicActivationEv:000000000000000c .L0 
     /tmp/ccaOOzD6.s:49     .text._ZN14PeriodicThread18periodicActivationEv:0000000000000010 .L0 
     /tmp/ccaOOzD6.s:50     .text._ZN14PeriodicThread18periodicActivationEv:0000000000000010 .L0 
     /tmp/ccaOOzD6.s:52     .text._ZN14PeriodicThread18periodicActivationEv:0000000000000014 .L0 
     /tmp/ccaOOzD6.s:54     .text._ZN14PeriodicThread18periodicActivationEv:0000000000000018 .L0 
     /tmp/ccaOOzD6.s:61     .text:0000000000000000 _Z6mediumPv
     /tmp/ccaOOzD6.s:65     .text:0000000000000000 .L0 
     /tmp/ccaOOzD6.s:67     .text:0000000000000000 .L0 
     /tmp/ccaOOzD6.s:68     .text:0000000000000004 .L0 
     /tmp/ccaOOzD6.s:71     .text:000000000000000c .L0 
     /tmp/ccaOOzD6.s:72     .text:000000000000000c .L0 
     /tmp/ccaOOzD6.s:74     .text:0000000000000010 .L0 
     /tmp/ccaOOzD6.s:78     .text:0000000000000010 .L0 
     /tmp/ccaOOzD6.s:79     .text:0000000000000010 .L0 
     /tmp/ccaOOzD6.s:80     .text:0000000000000010 .L0 
     /tmp/ccaOOzD6.s:83     .text:0000000000000018 .L0 
     /tmp/ccaOOzD6.s:84     .text:000000000000001c .L0 
     /tmp/ccaOOzD6.s:91     .text._ZN13GetCharThread3runEv:0000000000000000 _ZN13GetCharThread3runEv
     /tmp/ccaOOzD6.s:95     .text._ZN13GetCharThread3runEv:0000000000000000 .L0 
     /tmp/ccaOOzD6.s:97     .text._ZN13GetCharThread3runEv:0000000000000000 .L0 
     /tmp/ccaOOzD6.s:98     .text._ZN13GetCharThread3runEv:0000000000000004 .L0 
     /tmp/ccaOOzD6.s:101    .text._ZN13GetCharThread3runEv:000000000000000c .L0 
     /tmp/ccaOOzD6.s:102    .text._ZN13GetCharThread3runEv:000000000000000c .L0 
     /tmp/ccaOOzD6.s:104    .text._ZN13GetCharThread3runEv:0000000000000010 .L0 
     /tmp/ccaOOzD6.s:108    .text._ZN13GetCharThread3runEv:0000000000000010 .L0 
     /tmp/ccaOOzD6.s:109    .text._ZN13GetCharThread3runEv:0000000000000010 .L0 
     /tmp/ccaOOzD6.s:110    .text._ZN13GetCharThread3runEv:0000000000000010 .L0 
     /tmp/ccaOOzD6.s:113    .text._ZN13GetCharThread3runEv:0000000000000018 .L0 
     /tmp/ccaOOzD6.s:114    .text._ZN13GetCharThread3runEv:000000000000001c .L0 
     /tmp/ccaOOzD6.s:121    .text._ZN13PutCharThread3runEv:0000000000000000 _ZN13PutCharThread3runEv
     /tmp/ccaOOzD6.s:124    .text._ZN13PutCharThread3runEv:0000000000000000 .L0 
     /tmp/ccaOOzD6.s:126    .text._ZN13PutCharThread3runEv:0000000000000000 .L0 
     /tmp/ccaOOzD6.s:127    .text._ZN13PutCharThread3runEv:0000000000000004 .L0 
     /tmp/ccaOOzD6.s:131    .text._ZN13PutCharThread3runEv:0000000000000010 .L0 
     /tmp/ccaOOzD6.s:132    .text._ZN13PutCharThread3runEv:0000000000000010 .L0 
     /tmp/ccaOOzD6.s:133    .text._ZN13PutCharThread3runEv:0000000000000010 .L0 
     /tmp/ccaOOzD6.s:135    .text._ZN13PutCharThread3runEv:0000000000000014 .L0 
     /tmp/ccaOOzD6.s:140    .text._ZN13PutCharThread3runEv:0000000000000014 .L0 
GAS LISTING /tmp/ccaOOzD6.s 			page 64


     /tmp/ccaOOzD6.s:141    .text._ZN13PutCharThread3runEv:0000000000000014 .L0 
     /tmp/ccaOOzD6.s:142    .text._ZN13PutCharThread3runEv:0000000000000014 .L0 
     /tmp/ccaOOzD6.s:146    .text._ZN13PutCharThread3runEv:0000000000000024 .L0 
     /tmp/ccaOOzD6.s:149    .text._ZN13PutCharThread3runEv:0000000000000028 .L0 
     /tmp/ccaOOzD6.s:150    .text._ZN13PutCharThread3runEv:0000000000000028 .L0 
     /tmp/ccaOOzD6.s:151    .text._ZN13PutCharThread3runEv:0000000000000028 .L0 
     /tmp/ccaOOzD6.s:154    .text._ZN13PutCharThread3runEv:0000000000000030 .L0 
     /tmp/ccaOOzD6.s:158    .text._ZN13PutCharThread3runEv:0000000000000038 .L0 
     /tmp/ccaOOzD6.s:159    .text._ZN13PutCharThread3runEv:0000000000000038 .L0 
     /tmp/ccaOOzD6.s:164    .text._ZN13PutCharThread3runEv:000000000000004c .L0 
     /tmp/ccaOOzD6.s:167    .text._ZN13PutCharThread3runEv:0000000000000058 .L0 
     /tmp/ccaOOzD6.s:169    .text._ZN13PutCharThread3runEv:000000000000005c .L0 
     /tmp/ccaOOzD6.s:170    .text._ZN13PutCharThread3runEv:000000000000005c .L0 
     /tmp/ccaOOzD6.s:172    .text._ZN13PutCharThread3runEv:0000000000000060 .L0 
     /tmp/ccaOOzD6.s:175    .text._ZN13PutCharThread3runEv:0000000000000064 .L0 
     /tmp/ccaOOzD6.s:177    .text._ZN13PutCharThread3runEv:0000000000000068 .L0 
     /tmp/ccaOOzD6.s:184    .text._ZN13PutCharThreadD2Ev:0000000000000000 _ZN13PutCharThreadD2Ev
     /tmp/ccaOOzD6.s:187    .text._ZN13PutCharThreadD2Ev:0000000000000000 .L0 
     /tmp/ccaOOzD6.s:189    .text._ZN13PutCharThreadD2Ev:0000000000000000 .L0 
     /tmp/ccaOOzD6.s:190    .text._ZN13PutCharThreadD2Ev:0000000000000004 .L0 
     /tmp/ccaOOzD6.s:193    .text._ZN13PutCharThreadD2Ev:000000000000000c .L0 
     /tmp/ccaOOzD6.s:194    .text._ZN13PutCharThreadD2Ev:000000000000000c .L0 
     /tmp/ccaOOzD6.s:196    .text._ZN13PutCharThreadD2Ev:0000000000000010 .L0 
     /tmp/ccaOOzD6.s:2553   .data.rel.ro.local._ZTV13PutCharThread:0000000000000000 _ZTV13PutCharThread
     /tmp/ccaOOzD6.s:199    .text._ZN13PutCharThreadD2Ev:0000000000000010 .L0 
     /tmp/ccaOOzD6.s:205    .text._ZN13PutCharThreadD2Ev:0000000000000028 .L0 
     /tmp/ccaOOzD6.s:207    .text._ZN13PutCharThreadD2Ev:000000000000002c .L0 
     /tmp/ccaOOzD6.s:208    .text._ZN13PutCharThreadD2Ev:000000000000002c .L0 
     /tmp/ccaOOzD6.s:210    .text._ZN13PutCharThreadD2Ev:0000000000000030 .L0 
     /tmp/ccaOOzD6.s:212    .text._ZN13PutCharThreadD2Ev:0000000000000034 .L0 
     /tmp/ccaOOzD6.s:184    .text._ZN13PutCharThreadD2Ev:0000000000000000 _ZN13PutCharThreadD1Ev
     /tmp/ccaOOzD6.s:221    .text._ZN13PutCharThreadD0Ev:0000000000000000 _ZN13PutCharThreadD0Ev
     /tmp/ccaOOzD6.s:224    .text._ZN13PutCharThreadD0Ev:0000000000000000 .L0 
     /tmp/ccaOOzD6.s:226    .text._ZN13PutCharThreadD0Ev:0000000000000000 .L0 
     /tmp/ccaOOzD6.s:227    .text._ZN13PutCharThreadD0Ev:0000000000000004 .L0 
     /tmp/ccaOOzD6.s:231    .text._ZN13PutCharThreadD0Ev:0000000000000010 .L0 
     /tmp/ccaOOzD6.s:232    .text._ZN13PutCharThreadD0Ev:0000000000000010 .L0 
     /tmp/ccaOOzD6.s:233    .text._ZN13PutCharThreadD0Ev:0000000000000010 .L0 
     /tmp/ccaOOzD6.s:235    .text._ZN13PutCharThreadD0Ev:0000000000000014 .L0 
     /tmp/ccaOOzD6.s:241    .text._ZN13PutCharThreadD0Ev:0000000000000018 .L0 
     /tmp/ccaOOzD6.s:251    .text._ZN13PutCharThreadD0Ev:000000000000003c .L0 
     /tmp/ccaOOzD6.s:253    .text._ZN13PutCharThreadD0Ev:0000000000000040 .L0 
     /tmp/ccaOOzD6.s:254    .text._ZN13PutCharThreadD0Ev:0000000000000040 .L0 
     /tmp/ccaOOzD6.s:256    .text._ZN13PutCharThreadD0Ev:0000000000000044 .L0 
     /tmp/ccaOOzD6.s:259    .text._ZN13PutCharThreadD0Ev:0000000000000048 .L0 
     /tmp/ccaOOzD6.s:261    .text._ZN13PutCharThreadD0Ev:000000000000004c .L0 
     /tmp/ccaOOzD6.s:268    .text._ZN13GetCharThreadD2Ev:0000000000000000 _ZN13GetCharThreadD2Ev
     /tmp/ccaOOzD6.s:271    .text._ZN13GetCharThreadD2Ev:0000000000000000 .L0 
     /tmp/ccaOOzD6.s:273    .text._ZN13GetCharThreadD2Ev:0000000000000000 .L0 
     /tmp/ccaOOzD6.s:274    .text._ZN13GetCharThreadD2Ev:0000000000000004 .L0 
     /tmp/ccaOOzD6.s:277    .text._ZN13GetCharThreadD2Ev:000000000000000c .L0 
     /tmp/ccaOOzD6.s:278    .text._ZN13GetCharThreadD2Ev:000000000000000c .L0 
     /tmp/ccaOOzD6.s:280    .text._ZN13GetCharThreadD2Ev:0000000000000010 .L0 
     /tmp/ccaOOzD6.s:2564   .data.rel.ro.local._ZTV13GetCharThread:0000000000000000 _ZTV13GetCharThread
     /tmp/ccaOOzD6.s:283    .text._ZN13GetCharThreadD2Ev:0000000000000010 .L0 
     /tmp/ccaOOzD6.s:289    .text._ZN13GetCharThreadD2Ev:0000000000000028 .L0 
     /tmp/ccaOOzD6.s:291    .text._ZN13GetCharThreadD2Ev:000000000000002c .L0 
GAS LISTING /tmp/ccaOOzD6.s 			page 65


     /tmp/ccaOOzD6.s:292    .text._ZN13GetCharThreadD2Ev:000000000000002c .L0 
     /tmp/ccaOOzD6.s:294    .text._ZN13GetCharThreadD2Ev:0000000000000030 .L0 
     /tmp/ccaOOzD6.s:296    .text._ZN13GetCharThreadD2Ev:0000000000000034 .L0 
     /tmp/ccaOOzD6.s:268    .text._ZN13GetCharThreadD2Ev:0000000000000000 _ZN13GetCharThreadD1Ev
     /tmp/ccaOOzD6.s:305    .text._ZN13GetCharThreadD0Ev:0000000000000000 _ZN13GetCharThreadD0Ev
     /tmp/ccaOOzD6.s:308    .text._ZN13GetCharThreadD0Ev:0000000000000000 .L0 
     /tmp/ccaOOzD6.s:310    .text._ZN13GetCharThreadD0Ev:0000000000000000 .L0 
     /tmp/ccaOOzD6.s:311    .text._ZN13GetCharThreadD0Ev:0000000000000004 .L0 
     /tmp/ccaOOzD6.s:315    .text._ZN13GetCharThreadD0Ev:0000000000000010 .L0 
     /tmp/ccaOOzD6.s:316    .text._ZN13GetCharThreadD0Ev:0000000000000010 .L0 
     /tmp/ccaOOzD6.s:317    .text._ZN13GetCharThreadD0Ev:0000000000000010 .L0 
     /tmp/ccaOOzD6.s:319    .text._ZN13GetCharThreadD0Ev:0000000000000014 .L0 
     /tmp/ccaOOzD6.s:325    .text._ZN13GetCharThreadD0Ev:0000000000000018 .L0 
     /tmp/ccaOOzD6.s:335    .text._ZN13GetCharThreadD0Ev:000000000000003c .L0 
     /tmp/ccaOOzD6.s:337    .text._ZN13GetCharThreadD0Ev:0000000000000040 .L0 
     /tmp/ccaOOzD6.s:338    .text._ZN13GetCharThreadD0Ev:0000000000000040 .L0 
     /tmp/ccaOOzD6.s:340    .text._ZN13GetCharThreadD0Ev:0000000000000044 .L0 
     /tmp/ccaOOzD6.s:343    .text._ZN13GetCharThreadD0Ev:0000000000000048 .L0 
     /tmp/ccaOOzD6.s:345    .text._ZN13GetCharThreadD0Ev:000000000000004c .L0 
     /tmp/ccaOOzD6.s:352    .text._ZN8ConsumerD2Ev:0000000000000000 _ZN8ConsumerD2Ev
     /tmp/ccaOOzD6.s:356    .text._ZN8ConsumerD2Ev:0000000000000000 .L0 
     /tmp/ccaOOzD6.s:358    .text._ZN8ConsumerD2Ev:0000000000000000 .L0 
     /tmp/ccaOOzD6.s:359    .text._ZN8ConsumerD2Ev:0000000000000004 .L0 
     /tmp/ccaOOzD6.s:362    .text._ZN8ConsumerD2Ev:000000000000000c .L0 
     /tmp/ccaOOzD6.s:363    .text._ZN8ConsumerD2Ev:000000000000000c .L0 
     /tmp/ccaOOzD6.s:365    .text._ZN8ConsumerD2Ev:0000000000000010 .L0 
     /tmp/ccaOOzD6.s:2621   .data.rel.ro.local._ZTV8Consumer:0000000000000000 _ZTV8Consumer
     /tmp/ccaOOzD6.s:368    .text._ZN8ConsumerD2Ev:0000000000000010 .L0 
     /tmp/ccaOOzD6.s:374    .text._ZN8ConsumerD2Ev:0000000000000028 .L0 
     /tmp/ccaOOzD6.s:376    .text._ZN8ConsumerD2Ev:000000000000002c .L0 
     /tmp/ccaOOzD6.s:377    .text._ZN8ConsumerD2Ev:000000000000002c .L0 
     /tmp/ccaOOzD6.s:379    .text._ZN8ConsumerD2Ev:0000000000000030 .L0 
     /tmp/ccaOOzD6.s:381    .text._ZN8ConsumerD2Ev:0000000000000034 .L0 
     /tmp/ccaOOzD6.s:352    .text._ZN8ConsumerD2Ev:0000000000000000 _ZN8ConsumerD1Ev
     /tmp/ccaOOzD6.s:390    .text._ZN8ConsumerD0Ev:0000000000000000 _ZN8ConsumerD0Ev
     /tmp/ccaOOzD6.s:393    .text._ZN8ConsumerD0Ev:0000000000000000 .L0 
     /tmp/ccaOOzD6.s:395    .text._ZN8ConsumerD0Ev:0000000000000000 .L0 
     /tmp/ccaOOzD6.s:396    .text._ZN8ConsumerD0Ev:0000000000000004 .L0 
     /tmp/ccaOOzD6.s:400    .text._ZN8ConsumerD0Ev:0000000000000010 .L0 
     /tmp/ccaOOzD6.s:401    .text._ZN8ConsumerD0Ev:0000000000000010 .L0 
     /tmp/ccaOOzD6.s:402    .text._ZN8ConsumerD0Ev:0000000000000010 .L0 
     /tmp/ccaOOzD6.s:404    .text._ZN8ConsumerD0Ev:0000000000000014 .L0 
     /tmp/ccaOOzD6.s:410    .text._ZN8ConsumerD0Ev:0000000000000018 .L0 
     /tmp/ccaOOzD6.s:420    .text._ZN8ConsumerD0Ev:000000000000003c .L0 
     /tmp/ccaOOzD6.s:422    .text._ZN8ConsumerD0Ev:0000000000000040 .L0 
     /tmp/ccaOOzD6.s:423    .text._ZN8ConsumerD0Ev:0000000000000040 .L0 
     /tmp/ccaOOzD6.s:425    .text._ZN8ConsumerD0Ev:0000000000000044 .L0 
     /tmp/ccaOOzD6.s:428    .text._ZN8ConsumerD0Ev:0000000000000048 .L0 
     /tmp/ccaOOzD6.s:430    .text._ZN8ConsumerD0Ev:000000000000004c .L0 
     /tmp/ccaOOzD6.s:437    .text._ZN8ProducerD2Ev:0000000000000000 _ZN8ProducerD2Ev
     /tmp/ccaOOzD6.s:440    .text._ZN8ProducerD2Ev:0000000000000000 .L0 
     /tmp/ccaOOzD6.s:442    .text._ZN8ProducerD2Ev:0000000000000000 .L0 
     /tmp/ccaOOzD6.s:443    .text._ZN8ProducerD2Ev:0000000000000004 .L0 
     /tmp/ccaOOzD6.s:446    .text._ZN8ProducerD2Ev:000000000000000c .L0 
     /tmp/ccaOOzD6.s:447    .text._ZN8ProducerD2Ev:000000000000000c .L0 
     /tmp/ccaOOzD6.s:449    .text._ZN8ProducerD2Ev:0000000000000010 .L0 
     /tmp/ccaOOzD6.s:2610   .data.rel.ro.local._ZTV8Producer:0000000000000000 _ZTV8Producer
GAS LISTING /tmp/ccaOOzD6.s 			page 66


     /tmp/ccaOOzD6.s:452    .text._ZN8ProducerD2Ev:0000000000000010 .L0 
     /tmp/ccaOOzD6.s:458    .text._ZN8ProducerD2Ev:0000000000000028 .L0 
     /tmp/ccaOOzD6.s:460    .text._ZN8ProducerD2Ev:000000000000002c .L0 
     /tmp/ccaOOzD6.s:461    .text._ZN8ProducerD2Ev:000000000000002c .L0 
     /tmp/ccaOOzD6.s:463    .text._ZN8ProducerD2Ev:0000000000000030 .L0 
     /tmp/ccaOOzD6.s:465    .text._ZN8ProducerD2Ev:0000000000000034 .L0 
     /tmp/ccaOOzD6.s:437    .text._ZN8ProducerD2Ev:0000000000000000 _ZN8ProducerD1Ev
     /tmp/ccaOOzD6.s:474    .text._ZN8ProducerD0Ev:0000000000000000 _ZN8ProducerD0Ev
     /tmp/ccaOOzD6.s:477    .text._ZN8ProducerD0Ev:0000000000000000 .L0 
     /tmp/ccaOOzD6.s:479    .text._ZN8ProducerD0Ev:0000000000000000 .L0 
     /tmp/ccaOOzD6.s:480    .text._ZN8ProducerD0Ev:0000000000000004 .L0 
     /tmp/ccaOOzD6.s:484    .text._ZN8ProducerD0Ev:0000000000000010 .L0 
     /tmp/ccaOOzD6.s:485    .text._ZN8ProducerD0Ev:0000000000000010 .L0 
     /tmp/ccaOOzD6.s:486    .text._ZN8ProducerD0Ev:0000000000000010 .L0 
     /tmp/ccaOOzD6.s:488    .text._ZN8ProducerD0Ev:0000000000000014 .L0 
     /tmp/ccaOOzD6.s:494    .text._ZN8ProducerD0Ev:0000000000000018 .L0 
     /tmp/ccaOOzD6.s:504    .text._ZN8ProducerD0Ev:000000000000003c .L0 
     /tmp/ccaOOzD6.s:506    .text._ZN8ProducerD0Ev:0000000000000040 .L0 
     /tmp/ccaOOzD6.s:507    .text._ZN8ProducerD0Ev:0000000000000040 .L0 
     /tmp/ccaOOzD6.s:509    .text._ZN8ProducerD0Ev:0000000000000044 .L0 
     /tmp/ccaOOzD6.s:512    .text._ZN8ProducerD0Ev:0000000000000048 .L0 
     /tmp/ccaOOzD6.s:514    .text._ZN8ProducerD0Ev:000000000000004c .L0 
     /tmp/ccaOOzD6.s:521    .text._ZN16ProducerKeyboardD2Ev:0000000000000000 _ZN16ProducerKeyboardD2Ev
     /tmp/ccaOOzD6.s:524    .text._ZN16ProducerKeyboardD2Ev:0000000000000000 .L0 
     /tmp/ccaOOzD6.s:526    .text._ZN16ProducerKeyboardD2Ev:0000000000000000 .L0 
     /tmp/ccaOOzD6.s:527    .text._ZN16ProducerKeyboardD2Ev:0000000000000004 .L0 
     /tmp/ccaOOzD6.s:530    .text._ZN16ProducerKeyboardD2Ev:000000000000000c .L0 
     /tmp/ccaOOzD6.s:531    .text._ZN16ProducerKeyboardD2Ev:000000000000000c .L0 
     /tmp/ccaOOzD6.s:533    .text._ZN16ProducerKeyboardD2Ev:0000000000000010 .L0 
     /tmp/ccaOOzD6.s:2599   .data.rel.ro.local._ZTV16ProducerKeyboard:0000000000000000 _ZTV16ProducerKeyboard
     /tmp/ccaOOzD6.s:536    .text._ZN16ProducerKeyboardD2Ev:0000000000000010 .L0 
     /tmp/ccaOOzD6.s:542    .text._ZN16ProducerKeyboardD2Ev:0000000000000028 .L0 
     /tmp/ccaOOzD6.s:544    .text._ZN16ProducerKeyboardD2Ev:000000000000002c .L0 
     /tmp/ccaOOzD6.s:545    .text._ZN16ProducerKeyboardD2Ev:000000000000002c .L0 
     /tmp/ccaOOzD6.s:547    .text._ZN16ProducerKeyboardD2Ev:0000000000000030 .L0 
     /tmp/ccaOOzD6.s:549    .text._ZN16ProducerKeyboardD2Ev:0000000000000034 .L0 
     /tmp/ccaOOzD6.s:521    .text._ZN16ProducerKeyboardD2Ev:0000000000000000 _ZN16ProducerKeyboardD1Ev
     /tmp/ccaOOzD6.s:558    .text._ZN16ProducerKeyboardD0Ev:0000000000000000 _ZN16ProducerKeyboardD0Ev
     /tmp/ccaOOzD6.s:561    .text._ZN16ProducerKeyboardD0Ev:0000000000000000 .L0 
     /tmp/ccaOOzD6.s:563    .text._ZN16ProducerKeyboardD0Ev:0000000000000000 .L0 
     /tmp/ccaOOzD6.s:564    .text._ZN16ProducerKeyboardD0Ev:0000000000000004 .L0 
     /tmp/ccaOOzD6.s:568    .text._ZN16ProducerKeyboardD0Ev:0000000000000010 .L0 
     /tmp/ccaOOzD6.s:569    .text._ZN16ProducerKeyboardD0Ev:0000000000000010 .L0 
     /tmp/ccaOOzD6.s:570    .text._ZN16ProducerKeyboardD0Ev:0000000000000010 .L0 
     /tmp/ccaOOzD6.s:572    .text._ZN16ProducerKeyboardD0Ev:0000000000000014 .L0 
     /tmp/ccaOOzD6.s:578    .text._ZN16ProducerKeyboardD0Ev:0000000000000018 .L0 
     /tmp/ccaOOzD6.s:588    .text._ZN16ProducerKeyboardD0Ev:000000000000003c .L0 
     /tmp/ccaOOzD6.s:590    .text._ZN16ProducerKeyboardD0Ev:0000000000000040 .L0 
     /tmp/ccaOOzD6.s:591    .text._ZN16ProducerKeyboardD0Ev:0000000000000040 .L0 
     /tmp/ccaOOzD6.s:593    .text._ZN16ProducerKeyboardD0Ev:0000000000000044 .L0 
     /tmp/ccaOOzD6.s:596    .text._ZN16ProducerKeyboardD0Ev:0000000000000048 .L0 
     /tmp/ccaOOzD6.s:598    .text._ZN16ProducerKeyboardD0Ev:000000000000004c .L0 
     /tmp/ccaOOzD6.s:605    .text._ZN14PeriodicThreadD2Ev:0000000000000000 _ZN14PeriodicThreadD2Ev
     /tmp/ccaOOzD6.s:608    .text._ZN14PeriodicThreadD2Ev:0000000000000000 .L0 
     /tmp/ccaOOzD6.s:610    .text._ZN14PeriodicThreadD2Ev:0000000000000000 .L0 
     /tmp/ccaOOzD6.s:611    .text._ZN14PeriodicThreadD2Ev:0000000000000004 .L0 
     /tmp/ccaOOzD6.s:614    .text._ZN14PeriodicThreadD2Ev:000000000000000c .L0 
GAS LISTING /tmp/ccaOOzD6.s 			page 67


     /tmp/ccaOOzD6.s:615    .text._ZN14PeriodicThreadD2Ev:000000000000000c .L0 
     /tmp/ccaOOzD6.s:617    .text._ZN14PeriodicThreadD2Ev:0000000000000010 .L0 
     /tmp/ccaOOzD6.s:2541   .data.rel.ro.local._ZTV14PeriodicThread:0000000000000000 _ZTV14PeriodicThread
     /tmp/ccaOOzD6.s:620    .text._ZN14PeriodicThreadD2Ev:0000000000000010 .L0 
     /tmp/ccaOOzD6.s:626    .text._ZN14PeriodicThreadD2Ev:0000000000000028 .L0 
     /tmp/ccaOOzD6.s:628    .text._ZN14PeriodicThreadD2Ev:000000000000002c .L0 
     /tmp/ccaOOzD6.s:629    .text._ZN14PeriodicThreadD2Ev:000000000000002c .L0 
     /tmp/ccaOOzD6.s:631    .text._ZN14PeriodicThreadD2Ev:0000000000000030 .L0 
     /tmp/ccaOOzD6.s:633    .text._ZN14PeriodicThreadD2Ev:0000000000000034 .L0 
     /tmp/ccaOOzD6.s:605    .text._ZN14PeriodicThreadD2Ev:0000000000000000 _ZN14PeriodicThreadD1Ev
     /tmp/ccaOOzD6.s:642    .text._ZN14PeriodicThreadD0Ev:0000000000000000 _ZN14PeriodicThreadD0Ev
     /tmp/ccaOOzD6.s:645    .text._ZN14PeriodicThreadD0Ev:0000000000000000 .L0 
     /tmp/ccaOOzD6.s:647    .text._ZN14PeriodicThreadD0Ev:0000000000000000 .L0 
     /tmp/ccaOOzD6.s:648    .text._ZN14PeriodicThreadD0Ev:0000000000000004 .L0 
     /tmp/ccaOOzD6.s:652    .text._ZN14PeriodicThreadD0Ev:0000000000000010 .L0 
     /tmp/ccaOOzD6.s:653    .text._ZN14PeriodicThreadD0Ev:0000000000000010 .L0 
     /tmp/ccaOOzD6.s:654    .text._ZN14PeriodicThreadD0Ev:0000000000000010 .L0 
     /tmp/ccaOOzD6.s:656    .text._ZN14PeriodicThreadD0Ev:0000000000000014 .L0 
     /tmp/ccaOOzD6.s:662    .text._ZN14PeriodicThreadD0Ev:0000000000000018 .L0 
     /tmp/ccaOOzD6.s:672    .text._ZN14PeriodicThreadD0Ev:000000000000003c .L0 
     /tmp/ccaOOzD6.s:674    .text._ZN14PeriodicThreadD0Ev:0000000000000040 .L0 
     /tmp/ccaOOzD6.s:675    .text._ZN14PeriodicThreadD0Ev:0000000000000040 .L0 
     /tmp/ccaOOzD6.s:677    .text._ZN14PeriodicThreadD0Ev:0000000000000044 .L0 
     /tmp/ccaOOzD6.s:680    .text._ZN14PeriodicThreadD0Ev:0000000000000048 .L0 
     /tmp/ccaOOzD6.s:682    .text._ZN14PeriodicThreadD0Ev:000000000000004c .L0 
     /tmp/ccaOOzD6.s:689    .text._ZN6PrintPD2Ev:0000000000000000 _ZN6PrintPD2Ev
     /tmp/ccaOOzD6.s:692    .text._ZN6PrintPD2Ev:0000000000000000 .L0 
     /tmp/ccaOOzD6.s:694    .text._ZN6PrintPD2Ev:0000000000000000 .L0 
     /tmp/ccaOOzD6.s:695    .text._ZN6PrintPD2Ev:0000000000000004 .L0 
     /tmp/ccaOOzD6.s:698    .text._ZN6PrintPD2Ev:000000000000000c .L0 
     /tmp/ccaOOzD6.s:699    .text._ZN6PrintPD2Ev:000000000000000c .L0 
     /tmp/ccaOOzD6.s:701    .text._ZN6PrintPD2Ev:0000000000000010 .L0 
     /tmp/ccaOOzD6.s:706    .text._ZN6PrintPD2Ev:0000000000000010 .L0 
     /tmp/ccaOOzD6.s:713    .text._ZN6PrintPD2Ev:0000000000000024 .L0 
     /tmp/ccaOOzD6.s:714    .text._ZN6PrintPD2Ev:0000000000000028 .L0 
     /tmp/ccaOOzD6.s:716    .text._ZN6PrintPD2Ev:000000000000002c .L0 
     /tmp/ccaOOzD6.s:717    .text._ZN6PrintPD2Ev:000000000000002c .L0 
     /tmp/ccaOOzD6.s:719    .text._ZN6PrintPD2Ev:0000000000000030 .L0 
     /tmp/ccaOOzD6.s:721    .text._ZN6PrintPD2Ev:0000000000000034 .L0 
     /tmp/ccaOOzD6.s:689    .text._ZN6PrintPD2Ev:0000000000000000 _ZN6PrintPD1Ev
     /tmp/ccaOOzD6.s:730    .text._ZN6PrintPD0Ev:0000000000000000 _ZN6PrintPD0Ev
     /tmp/ccaOOzD6.s:733    .text._ZN6PrintPD0Ev:0000000000000000 .L0 
     /tmp/ccaOOzD6.s:735    .text._ZN6PrintPD0Ev:0000000000000000 .L0 
     /tmp/ccaOOzD6.s:736    .text._ZN6PrintPD0Ev:0000000000000004 .L0 
     /tmp/ccaOOzD6.s:740    .text._ZN6PrintPD0Ev:0000000000000010 .L0 
     /tmp/ccaOOzD6.s:741    .text._ZN6PrintPD0Ev:0000000000000010 .L0 
     /tmp/ccaOOzD6.s:742    .text._ZN6PrintPD0Ev:0000000000000010 .L0 
     /tmp/ccaOOzD6.s:744    .text._ZN6PrintPD0Ev:0000000000000014 .L0 
     /tmp/ccaOOzD6.s:751    .text._ZN6PrintPD0Ev:0000000000000018 .L0 
     /tmp/ccaOOzD6.s:759    .text._ZN6PrintPD0Ev:000000000000002c .L0 
     /tmp/ccaOOzD6.s:763    .text._ZN6PrintPD0Ev:000000000000003c .L0 
     /tmp/ccaOOzD6.s:765    .text._ZN6PrintPD0Ev:0000000000000040 .L0 
     /tmp/ccaOOzD6.s:766    .text._ZN6PrintPD0Ev:0000000000000040 .L0 
     /tmp/ccaOOzD6.s:768    .text._ZN6PrintPD0Ev:0000000000000044 .L0 
     /tmp/ccaOOzD6.s:771    .text._ZN6PrintPD0Ev:0000000000000048 .L0 
     /tmp/ccaOOzD6.s:773    .text._ZN6PrintPD0Ev:000000000000004c .L0 
     /tmp/ccaOOzD6.s:780    .text._ZN6PrintAD2Ev:0000000000000000 _ZN6PrintAD2Ev
GAS LISTING /tmp/ccaOOzD6.s 			page 68


     /tmp/ccaOOzD6.s:783    .text._ZN6PrintAD2Ev:0000000000000000 .L0 
     /tmp/ccaOOzD6.s:785    .text._ZN6PrintAD2Ev:0000000000000000 .L0 
     /tmp/ccaOOzD6.s:786    .text._ZN6PrintAD2Ev:0000000000000004 .L0 
     /tmp/ccaOOzD6.s:789    .text._ZN6PrintAD2Ev:000000000000000c .L0 
     /tmp/ccaOOzD6.s:790    .text._ZN6PrintAD2Ev:000000000000000c .L0 
     /tmp/ccaOOzD6.s:792    .text._ZN6PrintAD2Ev:0000000000000010 .L0 
     /tmp/ccaOOzD6.s:797    .text._ZN6PrintAD2Ev:0000000000000010 .L0 
     /tmp/ccaOOzD6.s:804    .text._ZN6PrintAD2Ev:0000000000000024 .L0 
     /tmp/ccaOOzD6.s:805    .text._ZN6PrintAD2Ev:0000000000000028 .L0 
     /tmp/ccaOOzD6.s:807    .text._ZN6PrintAD2Ev:000000000000002c .L0 
     /tmp/ccaOOzD6.s:808    .text._ZN6PrintAD2Ev:000000000000002c .L0 
     /tmp/ccaOOzD6.s:810    .text._ZN6PrintAD2Ev:0000000000000030 .L0 
     /tmp/ccaOOzD6.s:812    .text._ZN6PrintAD2Ev:0000000000000034 .L0 
     /tmp/ccaOOzD6.s:780    .text._ZN6PrintAD2Ev:0000000000000000 _ZN6PrintAD1Ev
     /tmp/ccaOOzD6.s:821    .text._ZN6PrintAD0Ev:0000000000000000 _ZN6PrintAD0Ev
     /tmp/ccaOOzD6.s:824    .text._ZN6PrintAD0Ev:0000000000000000 .L0 
     /tmp/ccaOOzD6.s:826    .text._ZN6PrintAD0Ev:0000000000000000 .L0 
     /tmp/ccaOOzD6.s:827    .text._ZN6PrintAD0Ev:0000000000000004 .L0 
     /tmp/ccaOOzD6.s:831    .text._ZN6PrintAD0Ev:0000000000000010 .L0 
     /tmp/ccaOOzD6.s:832    .text._ZN6PrintAD0Ev:0000000000000010 .L0 
     /tmp/ccaOOzD6.s:833    .text._ZN6PrintAD0Ev:0000000000000010 .L0 
     /tmp/ccaOOzD6.s:835    .text._ZN6PrintAD0Ev:0000000000000014 .L0 
     /tmp/ccaOOzD6.s:842    .text._ZN6PrintAD0Ev:0000000000000018 .L0 
     /tmp/ccaOOzD6.s:850    .text._ZN6PrintAD0Ev:000000000000002c .L0 
     /tmp/ccaOOzD6.s:854    .text._ZN6PrintAD0Ev:000000000000003c .L0 
     /tmp/ccaOOzD6.s:856    .text._ZN6PrintAD0Ev:0000000000000040 .L0 
     /tmp/ccaOOzD6.s:857    .text._ZN6PrintAD0Ev:0000000000000040 .L0 
     /tmp/ccaOOzD6.s:859    .text._ZN6PrintAD0Ev:0000000000000044 .L0 
     /tmp/ccaOOzD6.s:862    .text._ZN6PrintAD0Ev:0000000000000048 .L0 
     /tmp/ccaOOzD6.s:864    .text._ZN6PrintAD0Ev:000000000000004c .L0 
     /tmp/ccaOOzD6.s:871    .text._ZN6PrintP18periodicActivationEv:0000000000000000 _ZN6PrintP18periodicActivationEv
     /tmp/ccaOOzD6.s:874    .text._ZN6PrintP18periodicActivationEv:0000000000000000 .L0 
     /tmp/ccaOOzD6.s:876    .text._ZN6PrintP18periodicActivationEv:0000000000000000 .L0 
     /tmp/ccaOOzD6.s:877    .text._ZN6PrintP18periodicActivationEv:0000000000000004 .L0 
     /tmp/ccaOOzD6.s:880    .text._ZN6PrintP18periodicActivationEv:000000000000000c .L0 
     /tmp/ccaOOzD6.s:881    .text._ZN6PrintP18periodicActivationEv:000000000000000c .L0 
     /tmp/ccaOOzD6.s:883    .text._ZN6PrintP18periodicActivationEv:0000000000000010 .L0 
     /tmp/ccaOOzD6.s:885    .text._ZN6PrintP18periodicActivationEv:0000000000000010 .L0 
     /tmp/ccaOOzD6.s:886    .text._ZN6PrintP18periodicActivationEv:0000000000000010 .L0 
     /tmp/ccaOOzD6.s:891    .text._ZN6PrintP18periodicActivationEv:000000000000001c .L0 
     /tmp/ccaOOzD6.s:892    .text._ZN6PrintP18periodicActivationEv:000000000000001c .L0 
     /tmp/ccaOOzD6.s:896    .text._ZN6PrintP18periodicActivationEv:0000000000000028 .L0 
     /tmp/ccaOOzD6.s:897    .text._ZN6PrintP18periodicActivationEv:000000000000002c .L0 
     /tmp/ccaOOzD6.s:899    .text._ZN6PrintP18periodicActivationEv:0000000000000030 .L0 
     /tmp/ccaOOzD6.s:900    .text._ZN6PrintP18periodicActivationEv:0000000000000030 .L0 
     /tmp/ccaOOzD6.s:902    .text._ZN6PrintP18periodicActivationEv:0000000000000034 .L0 
     /tmp/ccaOOzD6.s:904    .text._ZN6PrintP18periodicActivationEv:0000000000000038 .L0 
     /tmp/ccaOOzD6.s:911    .text._ZN6PrintA18periodicActivationEv:0000000000000000 _ZN6PrintA18periodicActivationEv
     /tmp/ccaOOzD6.s:914    .text._ZN6PrintA18periodicActivationEv:0000000000000000 .L0 
     /tmp/ccaOOzD6.s:916    .text._ZN6PrintA18periodicActivationEv:0000000000000000 .L0 
     /tmp/ccaOOzD6.s:917    .text._ZN6PrintA18periodicActivationEv:0000000000000004 .L0 
     /tmp/ccaOOzD6.s:920    .text._ZN6PrintA18periodicActivationEv:000000000000000c .L0 
     /tmp/ccaOOzD6.s:921    .text._ZN6PrintA18periodicActivationEv:000000000000000c .L0 
     /tmp/ccaOOzD6.s:923    .text._ZN6PrintA18periodicActivationEv:0000000000000010 .L0 
     /tmp/ccaOOzD6.s:925    .text._ZN6PrintA18periodicActivationEv:0000000000000010 .L0 
     /tmp/ccaOOzD6.s:926    .text._ZN6PrintA18periodicActivationEv:0000000000000010 .L0 
     /tmp/ccaOOzD6.s:931    .text._ZN6PrintA18periodicActivationEv:000000000000001c .L0 
GAS LISTING /tmp/ccaOOzD6.s 			page 69


     /tmp/ccaOOzD6.s:932    .text._ZN6PrintA18periodicActivationEv:000000000000001c .L0 
     /tmp/ccaOOzD6.s:936    .text._ZN6PrintA18periodicActivationEv:0000000000000028 .L0 
     /tmp/ccaOOzD6.s:937    .text._ZN6PrintA18periodicActivationEv:000000000000002c .L0 
     /tmp/ccaOOzD6.s:939    .text._ZN6PrintA18periodicActivationEv:0000000000000030 .L0 
     /tmp/ccaOOzD6.s:940    .text._ZN6PrintA18periodicActivationEv:0000000000000030 .L0 
     /tmp/ccaOOzD6.s:942    .text._ZN6PrintA18periodicActivationEv:0000000000000034 .L0 
     /tmp/ccaOOzD6.s:944    .text._ZN6PrintA18periodicActivationEv:0000000000000038 .L0 
     /tmp/ccaOOzD6.s:951    .text:000000000000001c _Z4initv
     /tmp/ccaOOzD6.s:954    .text:000000000000001c .L0 
     /tmp/ccaOOzD6.s:11261  .data.rel.local.DW.ref.__gxx_personality_v0:0000000000000000 DW.ref.__gxx_personality_v0
     /tmp/ccaOOzD6.s:957    .text:000000000000001c .L0 
     /tmp/ccaOOzD6.s:958    .text:0000000000000020 .L0 
     /tmp/ccaOOzD6.s:964    .text:0000000000000034 .L0 
     /tmp/ccaOOzD6.s:965    .text:0000000000000034 .L0 
     /tmp/ccaOOzD6.s:966    .text:0000000000000034 .L0 
     /tmp/ccaOOzD6.s:967    .text:0000000000000034 .L0 
     /tmp/ccaOOzD6.s:968    .text:0000000000000034 .L0 
     /tmp/ccaOOzD6.s:970    .text:0000000000000038 .L0 
     /tmp/ccaOOzD6.s:972    .text:0000000000000038 .L0 
     /tmp/ccaOOzD6.s:973    .text:0000000000000038 .L0 
     /tmp/ccaOOzD6.s:978    .text:0000000000000048 .L0 
     /tmp/ccaOOzD6.s:979    .text:0000000000000048 .L0 
     /tmp/ccaOOzD6.s:991    .text:000000000000006c .L0 
     /tmp/ccaOOzD6.s:992    .text:000000000000006c .L0 
     /tmp/ccaOOzD6.s:997    .text:0000000000000078 .L0 
     /tmp/ccaOOzD6.s:998    .text:0000000000000078 .L0 
     /tmp/ccaOOzD6.s:1009   .text:0000000000000090 .L0 
     /tmp/ccaOOzD6.s:1012   .text:000000000000009c .L0 
     /tmp/ccaOOzD6.s:1013   .text:000000000000009c .L0 
     /tmp/ccaOOzD6.s:1024   .text:00000000000000b4 .L0 
     /tmp/ccaOOzD6.s:1027   .text:00000000000000c0 .L0 
     /tmp/ccaOOzD6.s:1028   .text:00000000000000c0 .L0 
     /tmp/ccaOOzD6.s:1039   .text:00000000000000d0 .L0 
     /tmp/ccaOOzD6.s:1043   .text:00000000000000d8 .L0 
     /tmp/ccaOOzD6.s:1049   .text:00000000000000e4 .L0 
     /tmp/ccaOOzD6.s:1050   .text:00000000000000e4 .L0 
     /tmp/ccaOOzD6.s:1061   .text:00000000000000f4 .L0 
     /tmp/ccaOOzD6.s:1070   .text:0000000000000108 .L0 
     /tmp/ccaOOzD6.s:1071   .text:0000000000000108 .L0 
     /tmp/ccaOOzD6.s:1083   .text:0000000000000124 .L0 
     /tmp/ccaOOzD6.s:1086   .text:0000000000000130 .L0 
     /tmp/ccaOOzD6.s:1087   .text:0000000000000130 .L0 
     /tmp/ccaOOzD6.s:1099   .text:000000000000014c .L0 
     /tmp/ccaOOzD6.s:1102   .text:0000000000000158 .L0 
     /tmp/ccaOOzD6.s:1103   .text:0000000000000158 .L0 
     /tmp/ccaOOzD6.s:1108   .text:0000000000000164 .L0 
     /tmp/ccaOOzD6.s:1109   .text:0000000000000164 .L0 
     /tmp/ccaOOzD6.s:1113   .text:0000000000000170 .L0 
     /tmp/ccaOOzD6.s:1114   .text:0000000000000170 .L0 
     /tmp/ccaOOzD6.s:1117   .text:0000000000000178 .L0 
     /tmp/ccaOOzD6.s:1118   .text:000000000000017c .L0 
     /tmp/ccaOOzD6.s:1119   .text:000000000000017c .L0 
     /tmp/ccaOOzD6.s:1121   .text:0000000000000180 .L0 
     /tmp/ccaOOzD6.s:1122   .text:0000000000000180 .L0 
     /tmp/ccaOOzD6.s:1124   .text:0000000000000184 .L0 
     /tmp/ccaOOzD6.s:1126   .text:0000000000000188 .L0 
     /tmp/ccaOOzD6.s:1128   .text:000000000000018c .L0 
GAS LISTING /tmp/ccaOOzD6.s 			page 70


     /tmp/ccaOOzD6.s:1130   .text:0000000000000190 .L0 
     /tmp/ccaOOzD6.s:1133   .text:0000000000000194 .L0 
     /tmp/ccaOOzD6.s:1136   .text:0000000000000198 .L0 
     /tmp/ccaOOzD6.s:1145   .text:00000000000001b4 .L0 
     /tmp/ccaOOzD6.s:1154   .text:00000000000001d0 .L0 
     /tmp/ccaOOzD6.s:1163   .text:00000000000001ec .L0 
     /tmp/ccaOOzD6.s:1172   .text:0000000000000208 .L0 
     /tmp/ccaOOzD6.s:1181   .text:0000000000000224 .L0 
     /tmp/ccaOOzD6.s:1190   .text:0000000000000240 .L0 
     /tmp/ccaOOzD6.s:1197   .text:0000000000000258 .L0 
     /tmp/ccaOOzD6.s:1271   .text:0000000000000258 _Z4destv
     /tmp/ccaOOzD6.s:1274   .text:0000000000000258 .L0 
     /tmp/ccaOOzD6.s:1275   .text:0000000000000258 .L0 
     /tmp/ccaOOzD6.s:1276   .text:000000000000025c .L0 
     /tmp/ccaOOzD6.s:1279   .text:0000000000000264 .L0 
     /tmp/ccaOOzD6.s:1280   .text:0000000000000264 .L0 
     /tmp/ccaOOzD6.s:1282   .text:0000000000000268 .L0 
     /tmp/ccaOOzD6.s:1285   .text:0000000000000268 .L0 
     /tmp/ccaOOzD6.s:1286   .text:0000000000000268 .L0 
     /tmp/ccaOOzD6.s:1287   .text:0000000000000268 .L0 
     /tmp/ccaOOzD6.s:1292   .text:000000000000027c .L0 
     /tmp/ccaOOzD6.s:1294   .text:0000000000000280 .L0 
     /tmp/ccaOOzD6.s:1295   .text:0000000000000280 .L0 
     /tmp/ccaOOzD6.s:1298   .text:0000000000000288 .L0 
     /tmp/ccaOOzD6.s:1301   .text:000000000000028c .L0 
     /tmp/ccaOOzD6.s:1302   .text:0000000000000290 .L0 
     /tmp/ccaOOzD6.s:1304   .text:0000000000000294 .L0 
     /tmp/ccaOOzD6.s:1305   .text:0000000000000294 .L0 
     /tmp/ccaOOzD6.s:1307   .text:0000000000000298 .L0 
     /tmp/ccaOOzD6.s:1309   .text:000000000000029c .L0 
     /tmp/ccaOOzD6.s:1315   .text:000000000000029c _ZN16ProducerKeyboard16producerKeyboardEPv
     /tmp/ccaOOzD6.s:1318   .text:000000000000029c .L0 
     /tmp/ccaOOzD6.s:1320   .text:000000000000029c .L0 
     /tmp/ccaOOzD6.s:1321   .text:00000000000002a0 .L0 
     /tmp/ccaOOzD6.s:1327   .text:00000000000002b4 .L0 
     /tmp/ccaOOzD6.s:1328   .text:00000000000002b4 .L0 
     /tmp/ccaOOzD6.s:1329   .text:00000000000002b4 .L0 
     /tmp/ccaOOzD6.s:1330   .text:00000000000002b4 .L0 
     /tmp/ccaOOzD6.s:1331   .text:00000000000002b4 .L0 
     /tmp/ccaOOzD6.s:1333   .text:00000000000002b8 .L0 
     /tmp/ccaOOzD6.s:1338   .text:00000000000002c0 .L0 
     /tmp/ccaOOzD6.s:1339   .text:00000000000002c0 .L0 
     /tmp/ccaOOzD6.s:1340   .text:00000000000002c0 .L0 
     /tmp/ccaOOzD6.s:1341   .text:00000000000002c0 .L0 
     /tmp/ccaOOzD6.s:1346   .text:00000000000002c8 .L0 
     /tmp/ccaOOzD6.s:1347   .text:00000000000002c8 .L0 
     /tmp/ccaOOzD6.s:1351   .text:00000000000002d0 .L0 
     /tmp/ccaOOzD6.s:1352   .text:00000000000002d0 .L0 
     /tmp/ccaOOzD6.s:1353   .text:00000000000002d0 .L0 
     /tmp/ccaOOzD6.s:1356   .text:00000000000002d8 .L0 
     /tmp/ccaOOzD6.s:1359   .text:00000000000002dc .L0 
     /tmp/ccaOOzD6.s:1362   .text:00000000000002e4 .L0 
     /tmp/ccaOOzD6.s:1363   .text:00000000000002e4 .L0 
     /tmp/ccaOOzD6.s:1367   .text:00000000000002f0 .L0 
     /tmp/ccaOOzD6.s:1368   .text:00000000000002f0 .L0 
     /tmp/ccaOOzD6.s:1372   .text:00000000000002f8 .L0 
     /tmp/ccaOOzD6.s:1373   .text:00000000000002f8 .L0 
GAS LISTING /tmp/ccaOOzD6.s 			page 71


     /tmp/ccaOOzD6.s:1375   .text:00000000000002fc .L0 
     /tmp/ccaOOzD6.s:1379   .text:0000000000000308 .L0 
     /tmp/ccaOOzD6.s:1381   .text:000000000000030c .L0 
     /tmp/ccaOOzD6.s:1386   .text:0000000000000314 .L0 
     /tmp/ccaOOzD6.s:1387   .text:0000000000000314 .L0 
     /tmp/ccaOOzD6.s:1390   .text:0000000000000320 .L0 
     /tmp/ccaOOzD6.s:1392   .text:0000000000000324 .L0 
     /tmp/ccaOOzD6.s:1399   .text:0000000000000334 .L0 
     /tmp/ccaOOzD6.s:1400   .text:0000000000000334 .L0 
     /tmp/ccaOOzD6.s:1404   .text:0000000000000340 .L0 
     /tmp/ccaOOzD6.s:1405   .text:0000000000000344 .L0 
     /tmp/ccaOOzD6.s:1407   .text:0000000000000348 .L0 
     /tmp/ccaOOzD6.s:1408   .text:0000000000000348 .L0 
     /tmp/ccaOOzD6.s:1410   .text:000000000000034c .L0 
     /tmp/ccaOOzD6.s:1413   .text:0000000000000350 .L0 
     /tmp/ccaOOzD6.s:1416   .text:0000000000000354 .L0 
     /tmp/ccaOOzD6.s:1419   .text:0000000000000358 .L0 
     /tmp/ccaOOzD6.s:1421   .text:000000000000035c .L0 
     /tmp/ccaOOzD6.s:1428   .text._ZN16ProducerKeyboard3runEv:0000000000000000 _ZN16ProducerKeyboard3runEv
     /tmp/ccaOOzD6.s:1431   .text._ZN16ProducerKeyboard3runEv:0000000000000000 .L0 
     /tmp/ccaOOzD6.s:1433   .text._ZN16ProducerKeyboard3runEv:0000000000000000 .L0 
     /tmp/ccaOOzD6.s:1434   .text._ZN16ProducerKeyboard3runEv:0000000000000004 .L0 
     /tmp/ccaOOzD6.s:1437   .text._ZN16ProducerKeyboard3runEv:000000000000000c .L0 
     /tmp/ccaOOzD6.s:1438   .text._ZN16ProducerKeyboard3runEv:000000000000000c .L0 
     /tmp/ccaOOzD6.s:1440   .text._ZN16ProducerKeyboard3runEv:0000000000000010 .L0 
     /tmp/ccaOOzD6.s:1442   .text._ZN16ProducerKeyboard3runEv:0000000000000010 .L0 
     /tmp/ccaOOzD6.s:1443   .text._ZN16ProducerKeyboard3runEv:0000000000000010 .L0 
     /tmp/ccaOOzD6.s:1447   .text._ZN16ProducerKeyboard3runEv:000000000000001c .L0 
     /tmp/ccaOOzD6.s:1448   .text._ZN16ProducerKeyboard3runEv:0000000000000020 .L0 
     /tmp/ccaOOzD6.s:1450   .text._ZN16ProducerKeyboard3runEv:0000000000000024 .L0 
     /tmp/ccaOOzD6.s:1451   .text._ZN16ProducerKeyboard3runEv:0000000000000024 .L0 
     /tmp/ccaOOzD6.s:1453   .text._ZN16ProducerKeyboard3runEv:0000000000000028 .L0 
     /tmp/ccaOOzD6.s:1455   .text._ZN16ProducerKeyboard3runEv:000000000000002c .L0 
     /tmp/ccaOOzD6.s:1462   .text:000000000000035c _ZN8Producer8producerEPv
     /tmp/ccaOOzD6.s:1465   .text:000000000000035c .L0 
     /tmp/ccaOOzD6.s:1467   .text:000000000000035c .L0 
     /tmp/ccaOOzD6.s:1468   .text:0000000000000360 .L0 
     /tmp/ccaOOzD6.s:1473   .text:0000000000000370 .L0 
     /tmp/ccaOOzD6.s:1474   .text:0000000000000370 .L0 
     /tmp/ccaOOzD6.s:1475   .text:0000000000000370 .L0 
     /tmp/ccaOOzD6.s:1476   .text:0000000000000370 .L0 
     /tmp/ccaOOzD6.s:1478   .text:0000000000000374 .L0 
     /tmp/ccaOOzD6.s:1482   .text:0000000000000378 .L0 
     /tmp/ccaOOzD6.s:1483   .text:0000000000000378 .L0 
     /tmp/ccaOOzD6.s:1484   .text:0000000000000378 .L0 
     /tmp/ccaOOzD6.s:1489   .text:0000000000000380 .L0 
     /tmp/ccaOOzD6.s:1490   .text:0000000000000380 .L0 
     /tmp/ccaOOzD6.s:1494   .text:0000000000000388 .L0 
     /tmp/ccaOOzD6.s:1495   .text:0000000000000388 .L0 
     /tmp/ccaOOzD6.s:1498   .text:0000000000000394 .L0 
     /tmp/ccaOOzD6.s:1499   .text:0000000000000394 .L0 
     /tmp/ccaOOzD6.s:1501   .text:0000000000000398 .L0 
     /tmp/ccaOOzD6.s:1506   .text:00000000000003a8 .L0 
     /tmp/ccaOOzD6.s:1507   .text:00000000000003a8 .L0 
     /tmp/ccaOOzD6.s:1511   .text:00000000000003b0 .L0 
     /tmp/ccaOOzD6.s:1512   .text:00000000000003b0 .L0 
     /tmp/ccaOOzD6.s:1514   .text:00000000000003b4 .L0 
GAS LISTING /tmp/ccaOOzD6.s 			page 72


     /tmp/ccaOOzD6.s:1518   .text:00000000000003c0 .L0 
     /tmp/ccaOOzD6.s:1520   .text:00000000000003c4 .L0 
     /tmp/ccaOOzD6.s:1525   .text:00000000000003cc .L0 
     /tmp/ccaOOzD6.s:1526   .text:00000000000003cc .L0 
     /tmp/ccaOOzD6.s:1530   .text:00000000000003d8 .L0 
     /tmp/ccaOOzD6.s:1531   .text:00000000000003dc .L0 
     /tmp/ccaOOzD6.s:1533   .text:00000000000003e0 .L0 
     /tmp/ccaOOzD6.s:1534   .text:00000000000003e0 .L0 
     /tmp/ccaOOzD6.s:1536   .text:00000000000003e4 .L0 
     /tmp/ccaOOzD6.s:1539   .text:00000000000003e8 .L0 
     /tmp/ccaOOzD6.s:1542   .text:00000000000003ec .L0 
     /tmp/ccaOOzD6.s:1544   .text:00000000000003f0 .L0 
     /tmp/ccaOOzD6.s:1551   .text._ZN8Producer3runEv:0000000000000000 _ZN8Producer3runEv
     /tmp/ccaOOzD6.s:1554   .text._ZN8Producer3runEv:0000000000000000 .L0 
     /tmp/ccaOOzD6.s:1556   .text._ZN8Producer3runEv:0000000000000000 .L0 
     /tmp/ccaOOzD6.s:1557   .text._ZN8Producer3runEv:0000000000000004 .L0 
     /tmp/ccaOOzD6.s:1560   .text._ZN8Producer3runEv:000000000000000c .L0 
     /tmp/ccaOOzD6.s:1561   .text._ZN8Producer3runEv:000000000000000c .L0 
     /tmp/ccaOOzD6.s:1563   .text._ZN8Producer3runEv:0000000000000010 .L0 
     /tmp/ccaOOzD6.s:1565   .text._ZN8Producer3runEv:0000000000000010 .L0 
     /tmp/ccaOOzD6.s:1566   .text._ZN8Producer3runEv:0000000000000010 .L0 
     /tmp/ccaOOzD6.s:1570   .text._ZN8Producer3runEv:000000000000001c .L0 
     /tmp/ccaOOzD6.s:1571   .text._ZN8Producer3runEv:0000000000000020 .L0 
     /tmp/ccaOOzD6.s:1573   .text._ZN8Producer3runEv:0000000000000024 .L0 
     /tmp/ccaOOzD6.s:1574   .text._ZN8Producer3runEv:0000000000000024 .L0 
     /tmp/ccaOOzD6.s:1576   .text._ZN8Producer3runEv:0000000000000028 .L0 
     /tmp/ccaOOzD6.s:1578   .text._ZN8Producer3runEv:000000000000002c .L0 
     /tmp/ccaOOzD6.s:1585   .text:00000000000003f0 _ZN8Consumer8consumerEPv
     /tmp/ccaOOzD6.s:1588   .text:00000000000003f0 .L0 
     /tmp/ccaOOzD6.s:1590   .text:00000000000003f0 .L0 
     /tmp/ccaOOzD6.s:1591   .text:00000000000003f4 .L0 
     /tmp/ccaOOzD6.s:1598   .text:000000000000040c .L0 
     /tmp/ccaOOzD6.s:1599   .text:000000000000040c .L0 
     /tmp/ccaOOzD6.s:1600   .text:000000000000040c .L0 
     /tmp/ccaOOzD6.s:1601   .text:000000000000040c .L0 
     /tmp/ccaOOzD6.s:1602   .text:000000000000040c .L0 
     /tmp/ccaOOzD6.s:1603   .text:000000000000040c .L0 
     /tmp/ccaOOzD6.s:1605   .text:0000000000000410 .L0 
     /tmp/ccaOOzD6.s:1610   .text:0000000000000418 .L0 
     /tmp/ccaOOzD6.s:1611   .text:0000000000000418 .L0 
     /tmp/ccaOOzD6.s:1612   .text:0000000000000418 .L0 
     /tmp/ccaOOzD6.s:1618   .text:0000000000000420 .L0 
     /tmp/ccaOOzD6.s:1619   .text:0000000000000420 .L0 
     /tmp/ccaOOzD6.s:1625   .text:000000000000042c .L0 
     /tmp/ccaOOzD6.s:1626   .text:000000000000042c .L0 
     /tmp/ccaOOzD6.s:1632   .text:0000000000000438 .L0 
     /tmp/ccaOOzD6.s:1633   .text:0000000000000438 .L0 
     /tmp/ccaOOzD6.s:1637   .text:0000000000000444 .L0 
     /tmp/ccaOOzD6.s:1638   .text:0000000000000444 .L0 
     /tmp/ccaOOzD6.s:1642   .text:0000000000000450 .L0 
     /tmp/ccaOOzD6.s:1643   .text:0000000000000450 .L0 
     /tmp/ccaOOzD6.s:1647   .text:0000000000000458 .L0 
     /tmp/ccaOOzD6.s:1648   .text:0000000000000458 .L0 
     /tmp/ccaOOzD6.s:1653   .text:0000000000000464 .L0 
     /tmp/ccaOOzD6.s:1654   .text:0000000000000464 .L0 
     /tmp/ccaOOzD6.s:1656   .text:0000000000000468 .L0 
     /tmp/ccaOOzD6.s:1659   .text:0000000000000470 .L0 
GAS LISTING /tmp/ccaOOzD6.s 			page 73


     /tmp/ccaOOzD6.s:1661   .text:0000000000000474 .L0 
     /tmp/ccaOOzD6.s:1664   .text:0000000000000478 .L0 
     /tmp/ccaOOzD6.s:1665   .text:0000000000000478 .L0 
     /tmp/ccaOOzD6.s:1669   .text:0000000000000480 .L0 
     /tmp/ccaOOzD6.s:1675   .text:0000000000000488 .L0 
     /tmp/ccaOOzD6.s:1676   .text:0000000000000488 .L0 
     /tmp/ccaOOzD6.s:1678   .text:000000000000048c .L0 
     /tmp/ccaOOzD6.s:1682   .text:0000000000000498 .L0 
     /tmp/ccaOOzD6.s:1683   .text:0000000000000498 .L0 
     /tmp/ccaOOzD6.s:1690   .text:00000000000004a4 .L0 
     /tmp/ccaOOzD6.s:1691   .text:00000000000004a4 .L0 
     /tmp/ccaOOzD6.s:1692   .text:00000000000004a4 .L0 
     /tmp/ccaOOzD6.s:1694   .text:00000000000004a8 .L0 
     /tmp/ccaOOzD6.s:1698   .text:00000000000004b4 .L0 
     /tmp/ccaOOzD6.s:1700   .text:00000000000004b8 .L0 
     /tmp/ccaOOzD6.s:1701   .text:00000000000004b8 .L0 
     /tmp/ccaOOzD6.s:1705   .text:00000000000004c4 .L0 
     /tmp/ccaOOzD6.s:1706   .text:00000000000004c8 .L0 
     /tmp/ccaOOzD6.s:1708   .text:00000000000004cc .L0 
     /tmp/ccaOOzD6.s:1709   .text:00000000000004cc .L0 
     /tmp/ccaOOzD6.s:1711   .text:00000000000004d0 .L0 
     /tmp/ccaOOzD6.s:1713   .text:00000000000004d4 .L0 
     /tmp/ccaOOzD6.s:1716   .text:00000000000004d8 .L0 
     /tmp/ccaOOzD6.s:1719   .text:00000000000004dc .L0 
     /tmp/ccaOOzD6.s:1722   .text:00000000000004e0 .L0 
     /tmp/ccaOOzD6.s:1724   .text:00000000000004e4 .L0 
     /tmp/ccaOOzD6.s:1731   .text._ZN8Consumer3runEv:0000000000000000 _ZN8Consumer3runEv
     /tmp/ccaOOzD6.s:1734   .text._ZN8Consumer3runEv:0000000000000000 .L0 
     /tmp/ccaOOzD6.s:1736   .text._ZN8Consumer3runEv:0000000000000000 .L0 
     /tmp/ccaOOzD6.s:1737   .text._ZN8Consumer3runEv:0000000000000004 .L0 
     /tmp/ccaOOzD6.s:1740   .text._ZN8Consumer3runEv:000000000000000c .L0 
     /tmp/ccaOOzD6.s:1741   .text._ZN8Consumer3runEv:000000000000000c .L0 
     /tmp/ccaOOzD6.s:1743   .text._ZN8Consumer3runEv:0000000000000010 .L0 
     /tmp/ccaOOzD6.s:1745   .text._ZN8Consumer3runEv:0000000000000010 .L0 
     /tmp/ccaOOzD6.s:1746   .text._ZN8Consumer3runEv:0000000000000010 .L0 
     /tmp/ccaOOzD6.s:1750   .text._ZN8Consumer3runEv:000000000000001c .L0 
     /tmp/ccaOOzD6.s:1751   .text._ZN8Consumer3runEv:0000000000000020 .L0 
     /tmp/ccaOOzD6.s:1753   .text._ZN8Consumer3runEv:0000000000000024 .L0 
     /tmp/ccaOOzD6.s:1754   .text._ZN8Consumer3runEv:0000000000000024 .L0 
     /tmp/ccaOOzD6.s:1756   .text._ZN8Consumer3runEv:0000000000000028 .L0 
     /tmp/ccaOOzD6.s:1758   .text._ZN8Consumer3runEv:000000000000002c .L0 
     /tmp/ccaOOzD6.s:1787   .text:00000000000004e4 _Z29producerConsumer_CPP_Sync_APIv
     /tmp/ccaOOzD6.s:1790   .text:00000000000004e4 .L0 
     /tmp/ccaOOzD6.s:1793   .text:00000000000004e4 .L0 
     /tmp/ccaOOzD6.s:1794   .text:00000000000004e8 .L0 
     /tmp/ccaOOzD6.s:1806   .text:0000000000000514 .L0 
     /tmp/ccaOOzD6.s:1807   .text:0000000000000514 .L0 
     /tmp/ccaOOzD6.s:1808   .text:0000000000000514 .L0 
     /tmp/ccaOOzD6.s:1809   .text:0000000000000514 .L0 
     /tmp/ccaOOzD6.s:1810   .text:0000000000000514 .L0 
     /tmp/ccaOOzD6.s:1811   .text:0000000000000514 .L0 
     /tmp/ccaOOzD6.s:1812   .text:0000000000000514 .L0 
     /tmp/ccaOOzD6.s:1813   .text:0000000000000514 .L0 
     /tmp/ccaOOzD6.s:1814   .text:0000000000000514 .L0 
     /tmp/ccaOOzD6.s:1815   .text:0000000000000514 .L0 
     /tmp/ccaOOzD6.s:1816   .text:0000000000000514 .L0 
     /tmp/ccaOOzD6.s:1818   .text:0000000000000518 .L0 
GAS LISTING /tmp/ccaOOzD6.s 			page 74


     /tmp/ccaOOzD6.s:1820   .text:0000000000000518 .L0 
     /tmp/ccaOOzD6.s:1822   .text:000000000000051c .L0 
     /tmp/ccaOOzD6.s:1823   .text:000000000000051c .L0 
     /tmp/ccaOOzD6.s:1824   .text:000000000000051c .L0 
     /tmp/ccaOOzD6.s:1825   .text:000000000000051c .L0 
     /tmp/ccaOOzD6.s:1830   .text:000000000000052c .L0 
     /tmp/ccaOOzD6.s:1831   .text:000000000000052c .L0 
     /tmp/ccaOOzD6.s:1837   .text:0000000000000540 .L0 
     /tmp/ccaOOzD6.s:1838   .text:0000000000000540 .L0 
     /tmp/ccaOOzD6.s:1844   .text:0000000000000550 .L0 
     /tmp/ccaOOzD6.s:1845   .text:0000000000000550 .L0 
     /tmp/ccaOOzD6.s:1849   .text:0000000000000560 .L0 
     /tmp/ccaOOzD6.s:1850   .text:0000000000000560 .L0 
     /tmp/ccaOOzD6.s:1855   .text:0000000000000570 .L0 
     /tmp/ccaOOzD6.s:1856   .text:0000000000000570 .L0 
     /tmp/ccaOOzD6.s:1862   .text:0000000000000580 .L0 
     /tmp/ccaOOzD6.s:1863   .text:0000000000000580 .L0 
     /tmp/ccaOOzD6.s:1867   .text:0000000000000590 .L0 
     /tmp/ccaOOzD6.s:1868   .text:0000000000000590 .L0 
     /tmp/ccaOOzD6.s:1874   .text:00000000000005a4 .L0 
     /tmp/ccaOOzD6.s:1875   .text:00000000000005a4 .L0 
     /tmp/ccaOOzD6.s:1879   .text:00000000000005b4 .L0 
     /tmp/ccaOOzD6.s:1880   .text:00000000000005b4 .L0 
     /tmp/ccaOOzD6.s:1886   .text:00000000000005c8 .L0 
     /tmp/ccaOOzD6.s:1887   .text:00000000000005c8 .L0 
     /tmp/ccaOOzD6.s:1891   .text:00000000000005d8 .L0 
     /tmp/ccaOOzD6.s:1893   .text:00000000000005dc .L0 
     /tmp/ccaOOzD6.s:1895   .text:00000000000005e0 .L0 
     /tmp/ccaOOzD6.s:1896   .text:00000000000005e0 .L0 
     /tmp/ccaOOzD6.s:1909   .text:0000000000000600 .L0 
     /tmp/ccaOOzD6.s:1910   .text:0000000000000600 .L0 
     /tmp/ccaOOzD6.s:1915   .text:0000000000000610 .L0 
     /tmp/ccaOOzD6.s:1918   .text:0000000000000614 .L0 
     /tmp/ccaOOzD6.s:1919   .text:0000000000000614 .L0 
     /tmp/ccaOOzD6.s:1924   .text:0000000000000624 .L0 
     /tmp/ccaOOzD6.s:1929   .text:000000000000062c .L0 
     /tmp/ccaOOzD6.s:1930   .text:000000000000062c .L0 
     /tmp/ccaOOzD6.s:1942   .text:0000000000000648 .L0 
     /tmp/ccaOOzD6.s:1946   .text:0000000000000654 .L0 
     /tmp/ccaOOzD6.s:1947   .text:0000000000000654 .L0 
     /tmp/ccaOOzD6.s:1954   .text:0000000000000668 .L0 
     /tmp/ccaOOzD6.s:1955   .text:0000000000000668 .L0 
     /tmp/ccaOOzD6.s:1956   .text:0000000000000668 .L0 
     /tmp/ccaOOzD6.s:1959   .text:000000000000066c .L0 
     /tmp/ccaOOzD6.s:1969   .text:0000000000000688 .L0 
     /tmp/ccaOOzD6.s:1970   .text:0000000000000688 .L0 
     /tmp/ccaOOzD6.s:1976   .text:000000000000069c .L0 
     /tmp/ccaOOzD6.s:1977   .text:000000000000069c .L0 
     /tmp/ccaOOzD6.s:1979   .text:00000000000006a0 .L0 
     /tmp/ccaOOzD6.s:1980   .text:00000000000006a0 .L0 
     /tmp/ccaOOzD6.s:1983   .text:00000000000006a8 .L0 
     /tmp/ccaOOzD6.s:1984   .text:00000000000006a8 .L0 
     /tmp/ccaOOzD6.s:1991   .text:00000000000006b8 .L0 
     /tmp/ccaOOzD6.s:1994   .text:00000000000006c0 .L0 
     /tmp/ccaOOzD6.s:2000   .text:00000000000006c4 .L0 
     /tmp/ccaOOzD6.s:2004   .text:00000000000006cc .L0 
     /tmp/ccaOOzD6.s:2011   .text:00000000000006dc .L0 
GAS LISTING /tmp/ccaOOzD6.s 			page 75


     /tmp/ccaOOzD6.s:2012   .text:00000000000006dc .L0 
     /tmp/ccaOOzD6.s:2018   .text:00000000000006e8 .L0 
     /tmp/ccaOOzD6.s:2025   .text:00000000000006f0 .L0 
     /tmp/ccaOOzD6.s:2032   .text:0000000000000700 .L0 
     /tmp/ccaOOzD6.s:2037   .text:000000000000070c .L0 
     /tmp/ccaOOzD6.s:2038   .text:000000000000070c .L0 
     /tmp/ccaOOzD6.s:2041   .text:0000000000000714 .L0 
     /tmp/ccaOOzD6.s:2045   .text:0000000000000720 .L0 
     /tmp/ccaOOzD6.s:2049   .text:0000000000000724 .L0 
     /tmp/ccaOOzD6.s:2051   .text:0000000000000728 .L0 
     /tmp/ccaOOzD6.s:2052   .text:0000000000000728 .L0 
     /tmp/ccaOOzD6.s:2058   .text:000000000000073c .L0 
     /tmp/ccaOOzD6.s:2059   .text:000000000000073c .L0 
     /tmp/ccaOOzD6.s:2061   .text:0000000000000740 .L0 
     /tmp/ccaOOzD6.s:2062   .text:0000000000000740 .L0 
     /tmp/ccaOOzD6.s:2065   .text:000000000000074c .L0 
     /tmp/ccaOOzD6.s:2067   .text:0000000000000750 .L0 
     /tmp/ccaOOzD6.s:2068   .text:0000000000000750 .L0 
     /tmp/ccaOOzD6.s:2074   .text:0000000000000760 .L0 
     /tmp/ccaOOzD6.s:2078   .text:000000000000076c .L0 
     /tmp/ccaOOzD6.s:2084   .text:0000000000000770 .L0 
     /tmp/ccaOOzD6.s:2093   .text:000000000000077c .L0 
     /tmp/ccaOOzD6.s:2094   .text:000000000000077c .L0 
     /tmp/ccaOOzD6.s:2101   .text:000000000000078c .L0 
     /tmp/ccaOOzD6.s:2105   .text:0000000000000798 .L0 
     /tmp/ccaOOzD6.s:2111   .text:000000000000079c .L0 
     /tmp/ccaOOzD6.s:2121   .text:00000000000007b4 .L0 
     /tmp/ccaOOzD6.s:2129   .text:00000000000007c4 .L0 
     /tmp/ccaOOzD6.s:2130   .text:00000000000007c4 .L0 
     /tmp/ccaOOzD6.s:2134   .text:00000000000007cc .L0 
     /tmp/ccaOOzD6.s:2138   .text:00000000000007d0 .L0 
     /tmp/ccaOOzD6.s:2140   .text:00000000000007d4 .L0 
     /tmp/ccaOOzD6.s:2141   .text:00000000000007d4 .L0 
     /tmp/ccaOOzD6.s:2145   .text:00000000000007e4 .L0 
     /tmp/ccaOOzD6.s:2153   .text:00000000000007ec .L0 
     /tmp/ccaOOzD6.s:2159   .text:00000000000007f4 .L0 
     /tmp/ccaOOzD6.s:2163   .text:00000000000007f8 .L0 
     /tmp/ccaOOzD6.s:2165   .text:00000000000007fc .L0 
     /tmp/ccaOOzD6.s:2166   .text:00000000000007fc .L0 
     /tmp/ccaOOzD6.s:2170   .text:0000000000000808 .L0 
     /tmp/ccaOOzD6.s:2172   .text:000000000000080c .L0 
     /tmp/ccaOOzD6.s:2180   .text:000000000000081c .L0 
     /tmp/ccaOOzD6.s:2181   .text:000000000000081c .L0 
     /tmp/ccaOOzD6.s:2183   .text:0000000000000820 .L0 
     /tmp/ccaOOzD6.s:2190   .text:0000000000000830 .L0 
     /tmp/ccaOOzD6.s:2191   .text:0000000000000830 .L0 
     /tmp/ccaOOzD6.s:2193   .text:0000000000000838 .L0 
     /tmp/ccaOOzD6.s:2195   .text:000000000000083c .L0 
     /tmp/ccaOOzD6.s:2201   .text:0000000000000848 .L0 
     /tmp/ccaOOzD6.s:2202   .text:0000000000000848 .L0 
     /tmp/ccaOOzD6.s:2204   .text:000000000000084c .L0 
     /tmp/ccaOOzD6.s:2215   .text:0000000000000868 .L0 
     /tmp/ccaOOzD6.s:2216   .text:000000000000086c .L0 
     /tmp/ccaOOzD6.s:2217   .text:000000000000086c .L0 
     /tmp/ccaOOzD6.s:2219   .text:0000000000000870 .L0 
     /tmp/ccaOOzD6.s:2221   .text:0000000000000874 .L0 
     /tmp/ccaOOzD6.s:2223   .text:0000000000000878 .L0 
GAS LISTING /tmp/ccaOOzD6.s 			page 76


     /tmp/ccaOOzD6.s:2225   .text:000000000000087c .L0 
     /tmp/ccaOOzD6.s:2228   .text:0000000000000880 .L0 
     /tmp/ccaOOzD6.s:2230   .text:0000000000000884 .L0 
     /tmp/ccaOOzD6.s:2232   .text:0000000000000888 .L0 
     /tmp/ccaOOzD6.s:2234   .text:000000000000088c .L0 
     /tmp/ccaOOzD6.s:2236   .text:0000000000000890 .L0 
     /tmp/ccaOOzD6.s:2238   .text:0000000000000894 .L0 
     /tmp/ccaOOzD6.s:2240   .text:0000000000000898 .L0 
     /tmp/ccaOOzD6.s:2242   .text:000000000000089c .L0 
     /tmp/ccaOOzD6.s:2246   .text:00000000000008a0 .L0 
     /tmp/ccaOOzD6.s:2250   .text:00000000000008a4 .L0 
     /tmp/ccaOOzD6.s:2260   .text:00000000000008c0 .L0 
     /tmp/ccaOOzD6.s:2270   .text:00000000000008dc .L0 
     /tmp/ccaOOzD6.s:2281   .text:00000000000008f8 .L0 
     /tmp/ccaOOzD6.s:2291   .text:0000000000000914 .L0 
     /tmp/ccaOOzD6.s:2299   .text:000000000000092c .L0 
     /tmp/ccaOOzD6.s:2356   .text:000000000000092c _Z8userMainv
     /tmp/ccaOOzD6.s:2359   .text:000000000000092c .L0 
     /tmp/ccaOOzD6.s:2360   .text:000000000000092c .L0 
     /tmp/ccaOOzD6.s:2361   .text:0000000000000930 .L0 
     /tmp/ccaOOzD6.s:2364   .text:0000000000000938 .L0 
     /tmp/ccaOOzD6.s:2365   .text:0000000000000938 .L0 
     /tmp/ccaOOzD6.s:2367   .text:000000000000093c .L0 
     /tmp/ccaOOzD6.s:2369   .text:000000000000093c .L0 
     /tmp/ccaOOzD6.s:2370   .text:000000000000093c .L0 
     /tmp/ccaOOzD6.s:2373   .text:0000000000000944 .L0 
     /tmp/ccaOOzD6.s:2374   .text:0000000000000948 .L0 
     /tmp/ccaOOzD6.s:2376   .text:000000000000094c .L0 
     /tmp/ccaOOzD6.s:2377   .text:000000000000094c .L0 
     /tmp/ccaOOzD6.s:2379   .text:0000000000000950 .L0 
     /tmp/ccaOOzD6.s:2381   .text:0000000000000954 .L0 
     /tmp/ccaOOzD6.s:2387   .text:0000000000000954 main
     /tmp/ccaOOzD6.s:2390   .text:0000000000000954 .L0 
     /tmp/ccaOOzD6.s:2393   .text:0000000000000954 .L0 
     /tmp/ccaOOzD6.s:2394   .text:0000000000000958 .L0 
     /tmp/ccaOOzD6.s:2399   .text:0000000000000968 .L0 
     /tmp/ccaOOzD6.s:2400   .text:0000000000000968 .L0 
     /tmp/ccaOOzD6.s:2401   .text:0000000000000968 .L0 
     /tmp/ccaOOzD6.s:2402   .text:0000000000000968 .L0 
     /tmp/ccaOOzD6.s:2404   .text:000000000000096c .L0 
     /tmp/ccaOOzD6.s:2407   .text:000000000000096c .L0 
     /tmp/ccaOOzD6.s:2408   .text:000000000000096c .L0 
     /tmp/ccaOOzD6.s:2411   .text:0000000000000974 .L0 
     /tmp/ccaOOzD6.s:2412   .text:0000000000000974 .L0 
     /tmp/ccaOOzD6.s:2421   .text:0000000000000984 .L0 
     /tmp/ccaOOzD6.s:2575   .data.rel.ro.local._ZTV6PrintP:0000000000000000 _ZTV6PrintP
     /tmp/ccaOOzD6.s:2432   .text:000000000000099c .L0 
     /tmp/ccaOOzD6.s:2433   .text:000000000000099c .L0 
     /tmp/ccaOOzD6.s:2443   .text:00000000000009ac .L0 
     /tmp/ccaOOzD6.s:2587   .data.rel.ro.local._ZTV6PrintA:0000000000000000 _ZTV6PrintA
     /tmp/ccaOOzD6.s:2454   .text:00000000000009c4 .L0 
     /tmp/ccaOOzD6.s:2455   .text:00000000000009c4 .L0 
     /tmp/ccaOOzD6.s:2460   .text:00000000000009d0 .L0 
     /tmp/ccaOOzD6.s:2461   .text:00000000000009d0 .L0 
     /tmp/ccaOOzD6.s:2469   .text:00000000000009e0 .L0 
     /tmp/ccaOOzD6.s:2470   .text:00000000000009e0 .L0 
     /tmp/ccaOOzD6.s:2476   .text:00000000000009e8 .L0 
GAS LISTING /tmp/ccaOOzD6.s 			page 77


     /tmp/ccaOOzD6.s:2477   .text:00000000000009e8 .L0 
     /tmp/ccaOOzD6.s:2478   .text:00000000000009e8 .L0 
     /tmp/ccaOOzD6.s:2481   .text:00000000000009f0 .L0 
     /tmp/ccaOOzD6.s:2489   .text:0000000000000a00 .L0 
     /tmp/ccaOOzD6.s:2499   .text:0000000000000a1c .L0 
     /tmp/ccaOOzD6.s:2506   .text:0000000000000a34 .L0 
     /tmp/ccaOOzD6.s:2634   .bss:0000000000000000 threadEnd
     /tmp/ccaOOzD6.s:2639   .bss:0000000000000008 waitForAll
     /tmp/ccaOOzD6.s:2631   .bss:0000000000000000 .LANCHOR0
     /tmp/ccaOOzD6.s:32     .text._ZN6Thread3runEv:0000000000000018 .L0 
     /tmp/ccaOOzD6.s:57     .text._ZN14PeriodicThread18periodicActivationEv:0000000000000018 .L0 
     /tmp/ccaOOzD6.s:2651   .text:0000000000000a34 .L0 
     /tmp/ccaOOzD6.s:117    .text._ZN13GetCharThread3runEv:000000000000001c .L0 
     /tmp/ccaOOzD6.s:180    .text._ZN13PutCharThread3runEv:0000000000000068 .L0 
     /tmp/ccaOOzD6.s:217    .text._ZN13PutCharThreadD2Ev:0000000000000034 .L0 
     /tmp/ccaOOzD6.s:264    .text._ZN13PutCharThreadD0Ev:000000000000004c .L0 
     /tmp/ccaOOzD6.s:301    .text._ZN13GetCharThreadD2Ev:0000000000000034 .L0 
     /tmp/ccaOOzD6.s:348    .text._ZN13GetCharThreadD0Ev:000000000000004c .L0 
     /tmp/ccaOOzD6.s:386    .text._ZN8ConsumerD2Ev:0000000000000034 .L0 
     /tmp/ccaOOzD6.s:433    .text._ZN8ConsumerD0Ev:000000000000004c .L0 
     /tmp/ccaOOzD6.s:470    .text._ZN8ProducerD2Ev:0000000000000034 .L0 
     /tmp/ccaOOzD6.s:517    .text._ZN8ProducerD0Ev:000000000000004c .L0 
     /tmp/ccaOOzD6.s:554    .text._ZN16ProducerKeyboardD2Ev:0000000000000034 .L0 
     /tmp/ccaOOzD6.s:601    .text._ZN16ProducerKeyboardD0Ev:000000000000004c .L0 
     /tmp/ccaOOzD6.s:638    .text._ZN14PeriodicThreadD2Ev:0000000000000034 .L0 
     /tmp/ccaOOzD6.s:685    .text._ZN14PeriodicThreadD0Ev:000000000000004c .L0 
     /tmp/ccaOOzD6.s:726    .text._ZN6PrintPD2Ev:0000000000000034 .L0 
     /tmp/ccaOOzD6.s:776    .text._ZN6PrintPD0Ev:000000000000004c .L0 
     /tmp/ccaOOzD6.s:817    .text._ZN6PrintAD2Ev:0000000000000034 .L0 
     /tmp/ccaOOzD6.s:867    .text._ZN6PrintAD0Ev:000000000000004c .L0 
     /tmp/ccaOOzD6.s:907    .text._ZN6PrintP18periodicActivationEv:0000000000000038 .L0 
     /tmp/ccaOOzD6.s:947    .text._ZN6PrintA18periodicActivationEv:0000000000000038 .L0 
     /tmp/ccaOOzD6.s:1458   .text._ZN16ProducerKeyboard3runEv:000000000000002c .L0 
     /tmp/ccaOOzD6.s:1581   .text._ZN8Producer3runEv:000000000000002c .L0 
     /tmp/ccaOOzD6.s:1761   .text._ZN8Consumer3runEv:000000000000002c .L0 
     /tmp/ccaOOzD6.s:973    .text:0000000000000038 .L0 
     /tmp/ccaOOzD6.s:985    .text:000000000000005c .L0 
     /tmp/ccaOOzD6.s:1009   .text:0000000000000090 .L0 
     /tmp/ccaOOzD6.s:1024   .text:00000000000000b4 .L0 
     /tmp/ccaOOzD6.s:1043   .text:00000000000000d8 .L0 
     /tmp/ccaOOzD6.s:1064   .text:00000000000000fc .L0 
     /tmp/ccaOOzD6.s:1083   .text:0000000000000124 .L0 
     /tmp/ccaOOzD6.s:1099   .text:000000000000014c .L0 
     /tmp/ccaOOzD6.s:1287   .text:0000000000000268 .L0 
     /tmp/ccaOOzD6.s:1388   .text:0000000000000318 .L0 
     /tmp/ccaOOzD6.s:1495   .text:0000000000000388 .L0 
     /tmp/ccaOOzD6.s:1633   .text:0000000000000438 .L0 
     /tmp/ccaOOzD6.s:1763   .rodata.str1.8:0000000000000000 .LC0
     /tmp/ccaOOzD6.s:1825   .text:000000000000051c .L0 
     /tmp/ccaOOzD6.s:1766   .rodata.str1.8:0000000000000020 .LC1
     /tmp/ccaOOzD6.s:1845   .text:0000000000000550 .L0 
     /tmp/ccaOOzD6.s:1769   .rodata.str1.8:0000000000000040 .LC2
     /tmp/ccaOOzD6.s:1863   .text:0000000000000580 .L0 
     /tmp/ccaOOzD6.s:1772   .rodata.str1.8:0000000000000058 .LC3
     /tmp/ccaOOzD6.s:1875   .text:00000000000005a4 .L0 
     /tmp/ccaOOzD6.s:1775   .rodata.str1.8:0000000000000070 .LC4
     /tmp/ccaOOzD6.s:1887   .text:00000000000005c8 .L0 
GAS LISTING /tmp/ccaOOzD6.s 			page 78


     /tmp/ccaOOzD6.s:1778   .rodata.str1.8:0000000000000078 .LC5
     /tmp/ccaOOzD6.s:1910   .text:0000000000000600 .L0 
     /tmp/ccaOOzD6.s:1781   .rodata.str1.8:00000000000000b8 .LC6
     /tmp/ccaOOzD6.s:1919   .text:0000000000000614 .L0 
     /tmp/ccaOOzD6.s:1942   .text:0000000000000648 .L0 
     /tmp/ccaOOzD6.s:2004   .text:00000000000006cc .L0 
     /tmp/ccaOOzD6.s:2025   .text:00000000000006f0 .L0 
     /tmp/ccaOOzD6.s:2062   .text:0000000000000740 .L0 
     /tmp/ccaOOzD6.s:2114   .text:00000000000007a4 .L0 
     /tmp/ccaOOzD6.s:2141   .text:00000000000007d4 .L0 
     /tmp/ccaOOzD6.s:2191   .text:0000000000000830 .L0 
     /tmp/ccaOOzD6.s:2426   .text:0000000000000990 .L0 
     /tmp/ccaOOzD6.s:2448   .text:00000000000009b8 .L0 
     /tmp/ccaOOzD6.s:76     .text:0000000000000010 .L6
     /tmp/ccaOOzD6.s:1299   .text:000000000000028c .L68
     /tmp/ccaOOzD6.s:1283   .text:0000000000000268 .L70
     /tmp/ccaOOzD6.s:1349   .text:00000000000002d0 .L73
     /tmp/ccaOOzD6.s:1384   .text:0000000000000314 .L74
     /tmp/ccaOOzD6.s:1344   .text:00000000000002c8 .L77
     /tmp/ccaOOzD6.s:1492   .text:0000000000000388 .L81
     /tmp/ccaOOzD6.s:1523   .text:00000000000003cc .L82
     /tmp/ccaOOzD6.s:1487   .text:0000000000000380 .L85
     /tmp/ccaOOzD6.s:1629   .text:0000000000000438 .L89
     /tmp/ccaOOzD6.s:1662   .text:0000000000000478 .L91
     /tmp/ccaOOzD6.s:1687   .text:00000000000004a4 .L90
     /tmp/ccaOOzD6.s:1615   .text:0000000000000420 .L95
     /tmp/ccaOOzD6.s:1623   .text:000000000000042c .L96
     /tmp/ccaOOzD6.s:1671   .text:0000000000000488 .L97
     /tmp/ccaOOzD6.s:1907   .text:0000000000000600 .L128
     /tmp/ccaOOzD6.s:1916   .text:0000000000000614 .L129
     /tmp/ccaOOzD6.s:1926   .text:000000000000062c .L130
     /tmp/ccaOOzD6.s:1923   .text:0000000000000624 .L102
     /tmp/ccaOOzD6.s:2213   .text:0000000000000868 .L100
     /tmp/ccaOOzD6.s:2047   .text:0000000000000724 .L107
     /tmp/ccaOOzD6.s:2125   .text:00000000000007c4 .L104
     /tmp/ccaOOzD6.s:2089   .text:000000000000077c .L105
     /tmp/ccaOOzD6.s:2021   .text:00000000000006f0 .L131
     /tmp/ccaOOzD6.s:2035   .text:000000000000070c .L106
     /tmp/ccaOOzD6.s:2149   .text:00000000000007ec .L121
     /tmp/ccaOOzD6.s:2136   .text:00000000000007d0 .L109
     /tmp/ccaOOzD6.s:2161   .text:00000000000007f8 .L108
     /tmp/ccaOOzD6.s:2177   .text:000000000000081c .L110
     /tmp/ccaOOzD6.s:2157   .text:00000000000007f4 .L111
     /tmp/ccaOOzD6.s:2188   .text:0000000000000830 .L112
     /tmp/ccaOOzD6.s:2199   .text:0000000000000848 .L113
     /tmp/ccaOOzD6.s:2210   .text:0000000000000864 .L114
     /tmp/ccaOOzD6.s:2472   .text:00000000000009e8 .L135
     /tmp/ccaOOzD6.s:2466   .text:00000000000009e0 .L142
     /tmp/ccaOOzD6.s:106    .text._ZN13GetCharThread3runEv:0000000000000010 .L9
     /tmp/ccaOOzD6.s:142    .text._ZN13PutCharThread3runEv:0000000000000014 .L0 
     /tmp/ccaOOzD6.s:159    .text._ZN13PutCharThread3runEv:0000000000000038 .L0 
     /tmp/ccaOOzD6.s:164    .text._ZN13PutCharThread3runEv:000000000000004c .L0 
     /tmp/ccaOOzD6.s:137    .text._ZN13PutCharThread3runEv:0000000000000014 .L12
     /tmp/ccaOOzD6.s:147    .text._ZN13PutCharThread3runEv:0000000000000028 .L13
     /tmp/ccaOOzD6.s:199    .text._ZN13PutCharThreadD2Ev:0000000000000010 .L0 
     /tmp/ccaOOzD6.s:241    .text._ZN13PutCharThreadD0Ev:0000000000000018 .L0 
     /tmp/ccaOOzD6.s:283    .text._ZN13GetCharThreadD2Ev:0000000000000010 .L0 
GAS LISTING /tmp/ccaOOzD6.s 			page 79


     /tmp/ccaOOzD6.s:325    .text._ZN13GetCharThreadD0Ev:0000000000000018 .L0 
     /tmp/ccaOOzD6.s:368    .text._ZN8ConsumerD2Ev:0000000000000010 .L0 
     /tmp/ccaOOzD6.s:410    .text._ZN8ConsumerD0Ev:0000000000000018 .L0 
     /tmp/ccaOOzD6.s:452    .text._ZN8ProducerD2Ev:0000000000000010 .L0 
     /tmp/ccaOOzD6.s:494    .text._ZN8ProducerD0Ev:0000000000000018 .L0 
     /tmp/ccaOOzD6.s:536    .text._ZN16ProducerKeyboardD2Ev:0000000000000010 .L0 
     /tmp/ccaOOzD6.s:578    .text._ZN16ProducerKeyboardD0Ev:0000000000000018 .L0 
     /tmp/ccaOOzD6.s:620    .text._ZN14PeriodicThreadD2Ev:0000000000000010 .L0 
     /tmp/ccaOOzD6.s:662    .text._ZN14PeriodicThreadD0Ev:0000000000000018 .L0 
     /tmp/ccaOOzD6.s:706    .text._ZN6PrintPD2Ev:0000000000000010 .L0 
     /tmp/ccaOOzD6.s:751    .text._ZN6PrintPD0Ev:0000000000000018 .L0 
     /tmp/ccaOOzD6.s:797    .text._ZN6PrintAD2Ev:0000000000000010 .L0 
     /tmp/ccaOOzD6.s:842    .text._ZN6PrintAD0Ev:0000000000000018 .L0 
     /tmp/ccaOOzD6.s:974    .text:0000000000000040 .LEHB0
     /tmp/ccaOOzD6.s:952    .text:000000000000001c .LFB23
     /tmp/ccaOOzD6.s:982    .text:0000000000000054 .LEHE0
     /tmp/ccaOOzD6.s:986    .text:0000000000000064 .LEHB1
     /tmp/ccaOOzD6.s:989    .text:000000000000006c .LEHE1
     /tmp/ccaOOzD6.s:1132   .text:0000000000000194 .L59
     /tmp/ccaOOzD6.s:993    .text:0000000000000070 .LEHB2
     /tmp/ccaOOzD6.s:1001   .text:0000000000000084 .LEHE2
     /tmp/ccaOOzD6.s:1004   .text:0000000000000088 .LEHB3
     /tmp/ccaOOzD6.s:1007   .text:0000000000000090 .LEHE3
     /tmp/ccaOOzD6.s:1142   .text:00000000000001b0 .L60
     /tmp/ccaOOzD6.s:1014   .text:00000000000000a0 .LEHB4
     /tmp/ccaOOzD6.s:1017   .text:00000000000000a8 .LEHE4
     /tmp/ccaOOzD6.s:1019   .text:00000000000000ac .LEHB5
     /tmp/ccaOOzD6.s:1022   .text:00000000000000b4 .LEHE5
     /tmp/ccaOOzD6.s:1151   .text:00000000000001cc .L61
     /tmp/ccaOOzD6.s:1029   .text:00000000000000c4 .LEHB6
     /tmp/ccaOOzD6.s:1032   .text:00000000000000cc .LEHE6
     /tmp/ccaOOzD6.s:1035   .text:00000000000000d0 .LEHB7
     /tmp/ccaOOzD6.s:1041   .text:00000000000000d8 .LEHE7
     /tmp/ccaOOzD6.s:1160   .text:00000000000001e8 .L62
     /tmp/ccaOOzD6.s:1051   .text:00000000000000e8 .LEHB8
     /tmp/ccaOOzD6.s:1054   .text:00000000000000f0 .LEHE8
     /tmp/ccaOOzD6.s:1057   .text:00000000000000f4 .LEHB9
     /tmp/ccaOOzD6.s:1063   .text:00000000000000fc .LEHE9
     /tmp/ccaOOzD6.s:1169   .text:0000000000000204 .L63
     /tmp/ccaOOzD6.s:1072   .text:000000000000010c .LEHB10
     /tmp/ccaOOzD6.s:1075   .text:0000000000000114 .LEHE10
     /tmp/ccaOOzD6.s:1078   .text:000000000000011c .LEHB11
     /tmp/ccaOOzD6.s:1081   .text:0000000000000124 .LEHE11
     /tmp/ccaOOzD6.s:1178   .text:0000000000000220 .L64
     /tmp/ccaOOzD6.s:1088   .text:0000000000000134 .LEHB12
     /tmp/ccaOOzD6.s:1091   .text:000000000000013c .LEHE12
     /tmp/ccaOOzD6.s:1094   .text:0000000000000144 .LEHB13
     /tmp/ccaOOzD6.s:1097   .text:000000000000014c .LEHE13
     /tmp/ccaOOzD6.s:1187   .text:000000000000023c .L65
     /tmp/ccaOOzD6.s:1104   .text:000000000000015c .LEHB14
     /tmp/ccaOOzD6.s:1196   .text:0000000000000258 .LEHE14
     /tmp/ccaOOzD6.s:1826   .text:0000000000000524 .LEHB15
     /tmp/ccaOOzD6.s:1788   .text:00000000000004e4 .LFB40
     /tmp/ccaOOzD6.s:1899   .text:00000000000005ec .LEHE15
     /tmp/ccaOOzD6.s:1902   .text:00000000000005f4 .LEHB16
     /tmp/ccaOOzD6.s:1905   .text:00000000000005fc .LEHE16
     /tmp/ccaOOzD6.s:2245   .text:00000000000008a0 .L122
GAS LISTING /tmp/ccaOOzD6.s 			page 80


     /tmp/ccaOOzD6.s:1911   .text:0000000000000608 .LEHB17
     /tmp/ccaOOzD6.s:1933   .text:0000000000000638 .LEHE17
     /tmp/ccaOOzD6.s:1937   .text:0000000000000640 .LEHB18
     /tmp/ccaOOzD6.s:1940   .text:0000000000000648 .LEHE18
     /tmp/ccaOOzD6.s:2256   .text:00000000000008bc .L123
     /tmp/ccaOOzD6.s:1985   .text:00000000000006ac .LEHB19
     /tmp/ccaOOzD6.s:1988   .text:00000000000006b4 .LEHE19
     /tmp/ccaOOzD6.s:1996   .text:00000000000006c4 .LEHB20
     /tmp/ccaOOzD6.s:2002   .text:00000000000006cc .LEHE20
     /tmp/ccaOOzD6.s:2266   .text:00000000000008d8 .L124
     /tmp/ccaOOzD6.s:2013   .text:00000000000006e0 .LEHB21
     /tmp/ccaOOzD6.s:2071   .text:000000000000075c .LEHE21
     /tmp/ccaOOzD6.s:2080   .text:0000000000000770 .LEHB22
     /tmp/ccaOOzD6.s:2086   .text:0000000000000778 .LEHE22
     /tmp/ccaOOzD6.s:2276   .text:00000000000008f4 .L125
     /tmp/ccaOOzD6.s:2095   .text:0000000000000780 .LEHB23
     /tmp/ccaOOzD6.s:2098   .text:0000000000000788 .LEHE23
     /tmp/ccaOOzD6.s:2107   .text:000000000000079c .LEHB24
     /tmp/ccaOOzD6.s:2113   .text:00000000000007a4 .LEHE24
     /tmp/ccaOOzD6.s:2287   .text:0000000000000910 .L126
     /tmp/ccaOOzD6.s:2128   .text:00000000000007c4 .LEHB25
     /tmp/ccaOOzD6.s:2297   .text:000000000000092c .LEHE25
     /tmp/ccaOOzD6.s:2406   .text:000000000000096c .LEHB26
     /tmp/ccaOOzD6.s:2388   .text:0000000000000954 .LFB42
     /tmp/ccaOOzD6.s:2415   .text:0000000000000980 .LEHE26
     /tmp/ccaOOzD6.s:2422   .text:0000000000000988 .LEHB27
     /tmp/ccaOOzD6.s:2425   .text:0000000000000990 .LEHE27
     /tmp/ccaOOzD6.s:2485   .text:00000000000009fc .L139
     /tmp/ccaOOzD6.s:2434   .text:00000000000009a0 .LEHB28
     /tmp/ccaOOzD6.s:2437   .text:00000000000009a8 .LEHE28
     /tmp/ccaOOzD6.s:2444   .text:00000000000009b0 .LEHB29
     /tmp/ccaOOzD6.s:2447   .text:00000000000009b8 .LEHE29
     /tmp/ccaOOzD6.s:2495   .text:0000000000000a18 .L140
     /tmp/ccaOOzD6.s:2456   .text:00000000000009c8 .LEHB30
     /tmp/ccaOOzD6.s:2505   .text:0000000000000a34 .LEHE30
     /tmp/ccaOOzD6.s:7791   .debug_abbrev:0000000000000000 .Ldebug_abbrev0
     /tmp/ccaOOzD6.s:11101  .debug_str:00000000000012bd .LASF368
     /tmp/ccaOOzD6.s:10933  .debug_str:0000000000000dad .LASF369
     /tmp/ccaOOzD6.s:10547  .debug_str:0000000000000184 .LASF370
     /tmp/ccaOOzD6.s:10419  .debug_ranges:0000000000000000 .Ldebug_ranges0
     /tmp/ccaOOzD6.s:10499  .debug_line:0000000000000000 .Ldebug_line0
     /tmp/ccaOOzD6.s:10557  .debug_str:00000000000001e5 .LASF0
     /tmp/ccaOOzD6.s:11199  .debug_str:00000000000016dd .LASF1
     /tmp/ccaOOzD6.s:11105  .debug_str:000000000000139b .LASF2
     /tmp/ccaOOzD6.s:11059  .debug_str:0000000000001180 .LASF4
     /tmp/ccaOOzD6.s:11077  .debug_str:0000000000001201 .LASF3
     /tmp/ccaOOzD6.s:10731  .debug_str:000000000000075d .LASF5
     /tmp/ccaOOzD6.s:10835  .debug_str:0000000000000a9d .LASF6
     /tmp/ccaOOzD6.s:10797  .debug_str:0000000000000954 .LASF7
     /tmp/ccaOOzD6.s:10985  .debug_str:0000000000000f37 .LASF8
     /tmp/ccaOOzD6.s:10595  .debug_str:00000000000002df .LASF9
     /tmp/ccaOOzD6.s:11181  .debug_str:0000000000001631 .LASF10
     /tmp/ccaOOzD6.s:10735  .debug_str:0000000000000770 .LASF11
     /tmp/ccaOOzD6.s:10637  .debug_str:000000000000047a .LASF12
     /tmp/ccaOOzD6.s:10839  .debug_str:0000000000000ab9 .LASF13
     /tmp/ccaOOzD6.s:10745  .debug_str:00000000000007b3 .LASF14
     /tmp/ccaOOzD6.s:11043  .debug_str:000000000000111c .LASF15
GAS LISTING /tmp/ccaOOzD6.s 			page 81


     /tmp/ccaOOzD6.s:10751  .debug_str:00000000000007de .LASF16
     /tmp/ccaOOzD6.s:10685  .debug_str:00000000000005c3 .LASF17
     /tmp/ccaOOzD6.s:10781  .debug_str:00000000000008d2 .LASF18
     /tmp/ccaOOzD6.s:11139  .debug_str:00000000000014e0 .LASF234
     /tmp/ccaOOzD6.s:10949  .debug_str:0000000000000e18 .LASF19
     /tmp/ccaOOzD6.s:10559  .debug_str:00000000000001f2 .LASF20
     /tmp/ccaOOzD6.s:10979  .debug_str:0000000000000f03 .LASF371
     /tmp/ccaOOzD6.s:10503  .debug_str:000000000000001c .LASF22
     /tmp/ccaOOzD6.s:10993  .debug_str:0000000000000f78 .LASF27
     /tmp/ccaOOzD6.s:11061  .debug_str:0000000000001187 .LASF29
     /tmp/ccaOOzD6.s:10759  .debug_str:0000000000000836 .LASF21
     /tmp/ccaOOzD6.s:10819  .debug_str:0000000000000a10 .LASF25
     /tmp/ccaOOzD6.s:11249  .debug_str:000000000000186e .LASF90
     /tmp/ccaOOzD6.s:11183  .debug_str:000000000000163f .LASF372
     /tmp/ccaOOzD6.s:11215  .debug_str:0000000000001758 .LASF23
     /tmp/ccaOOzD6.s:10777  .debug_str:00000000000008bb .LASF24
     /tmp/ccaOOzD6.s:10977  .debug_str:0000000000000eec .LASF26
     /tmp/ccaOOzD6.s:11081  .debug_str:000000000000121b .LASF28
     /tmp/ccaOOzD6.s:11009  .debug_str:0000000000001007 .LASF30
     /tmp/ccaOOzD6.s:10563  .debug_str:0000000000000218 .LASF31
     /tmp/ccaOOzD6.s:10693  .debug_str:0000000000000616 .LASF32
     /tmp/ccaOOzD6.s:10771  .debug_str:0000000000000892 .LASF33
     /tmp/ccaOOzD6.s:10737  .debug_str:000000000000077f .LASF34
     /tmp/ccaOOzD6.s:10853  .debug_str:0000000000000b49 .LASF122
     /tmp/ccaOOzD6.s:10959  .debug_str:0000000000000e53 .LASF124
     /tmp/ccaOOzD6.s:11179  .debug_str:0000000000001629 .LASF35
     /tmp/ccaOOzD6.s:10671  .debug_str:0000000000000571 .LASF36
     /tmp/ccaOOzD6.s:10653  .debug_str:00000000000004f0 .LASF37
     /tmp/ccaOOzD6.s:10613  .debug_str:0000000000000383 .LASF38
     /tmp/ccaOOzD6.s:11045  .debug_str:0000000000001128 .LASF39
     /tmp/ccaOOzD6.s:10817  .debug_str:0000000000000a00 .LASF40
     /tmp/ccaOOzD6.s:11131  .debug_str:000000000000148b .LASF55
     /tmp/ccaOOzD6.s:11117  .debug_str:000000000000141a .LASF57
     /tmp/ccaOOzD6.s:11091  .debug_str:0000000000001258 .LASF41
     /tmp/ccaOOzD6.s:11041  .debug_str:0000000000001105 .LASF42
     /tmp/ccaOOzD6.s:11203  .debug_str:00000000000016fd .LASF43
     /tmp/ccaOOzD6.s:10511  .debug_str:0000000000000056 .LASF44
     /tmp/ccaOOzD6.s:10779  .debug_str:00000000000008c7 .LASF45
     /tmp/ccaOOzD6.s:10767  .debug_str:000000000000086a .LASF46
     /tmp/ccaOOzD6.s:11205  .debug_str:000000000000170a .LASF47
     /tmp/ccaOOzD6.s:10695  .debug_str:000000000000062d .LASF48
     /tmp/ccaOOzD6.s:10937  .debug_str:0000000000000dc5 .LASF49
     /tmp/ccaOOzD6.s:10615  .debug_str:0000000000000395 .LASF50
     /tmp/ccaOOzD6.s:11239  .debug_str:0000000000001820 .LASF51
     /tmp/ccaOOzD6.s:10729  .debug_str:0000000000000750 .LASF52
     /tmp/ccaOOzD6.s:10707  .debug_str:0000000000000695 .LASF53
     /tmp/ccaOOzD6.s:11143  .debug_str:00000000000014ef .LASF98
     /tmp/ccaOOzD6.s:10611  .debug_str:0000000000000373 .LASF100
     /tmp/ccaOOzD6.s:10513  .debug_str:000000000000006e .LASF67
     /tmp/ccaOOzD6.s:11141  .debug_str:00000000000014e8 .LASF54
     /tmp/ccaOOzD6.s:10889  .debug_str:0000000000000c41 .LASF56
     /tmp/ccaOOzD6.s:11133  .debug_str:0000000000001497 .LASF58
     /tmp/ccaOOzD6.s:10533  .debug_str:000000000000010d .LASF59
     /tmp/ccaOOzD6.s:10591  .debug_str:00000000000002b6 .LASF60
     /tmp/ccaOOzD6.s:11129  .debug_str:0000000000001485 .LASF61
     /tmp/ccaOOzD6.s:11207  .debug_str:0000000000001710 .LASF62
     /tmp/ccaOOzD6.s:10699  .debug_str:0000000000000657 .LASF63
GAS LISTING /tmp/ccaOOzD6.s 			page 82


     /tmp/ccaOOzD6.s:10633  .debug_str:0000000000000450 .LASF64
     /tmp/ccaOOzD6.s:10913  .debug_str:0000000000000d2b .LASF65
     /tmp/ccaOOzD6.s:10927  .debug_str:0000000000000d8e .LASF66
     /tmp/ccaOOzD6.s:10935  .debug_str:0000000000000dba .LASF68
     /tmp/ccaOOzD6.s:10749  .debug_str:00000000000007cc .LASF69
     /tmp/ccaOOzD6.s:11201  .debug_str:00000000000016f0 .LASF70
     /tmp/ccaOOzD6.s:10605  .debug_str:000000000000033b .LASF71
     /tmp/ccaOOzD6.s:11053  .debug_str:0000000000001145 .LASF72
     /tmp/ccaOOzD6.s:11245  .debug_str:0000000000001852 .LASF73
     /tmp/ccaOOzD6.s:10941  .debug_str:0000000000000ddc .LASF74
     /tmp/ccaOOzD6.s:10875  .debug_str:0000000000000bf0 .LASF75
     /tmp/ccaOOzD6.s:10529  .debug_str:00000000000000eb .LASF76
     /tmp/ccaOOzD6.s:10747  .debug_str:00000000000007c3 .LASF77
     /tmp/ccaOOzD6.s:11015  .debug_str:0000000000001040 .LASF78
     /tmp/ccaOOzD6.s:10571  .debug_str:0000000000000240 .LASF79
     /tmp/ccaOOzD6.s:11067  .debug_str:00000000000011ac .LASF80
     /tmp/ccaOOzD6.s:11093  .debug_str:0000000000001263 .LASF81
     /tmp/ccaOOzD6.s:11227  .debug_str:00000000000017b5 .LASF373
     /tmp/ccaOOzD6.s:10787  .debug_str:0000000000000910 .LASF374
     /tmp/ccaOOzD6.s:11167  .debug_str:00000000000015cb .LASF82
     /tmp/ccaOOzD6.s:10545  .debug_str:000000000000015c .LASF84
     /tmp/ccaOOzD6.s:10507  .debug_str:0000000000000032 .LASF83
     /tmp/ccaOOzD6.s:10537  .debug_str:000000000000011b .LASF85
     /tmp/ccaOOzD6.s:10643  .debug_str:00000000000004a9 .LASF162
     /tmp/ccaOOzD6.s:10639  .debug_str:0000000000000489 .LASF375
     /tmp/ccaOOzD6.s:11151  .debug_str:0000000000001530 .LASF86
     /tmp/ccaOOzD6.s:10569  .debug_str:000000000000023b .LASF87
     /tmp/ccaOOzD6.s:11123  .debug_str:0000000000001450 .LASF88
     /tmp/ccaOOzD6.s:10691  .debug_str:0000000000000605 .LASF89
     /tmp/ccaOOzD6.s:10947  .debug_str:0000000000000e01 .LASF91
     /tmp/ccaOOzD6.s:11037  .debug_str:00000000000010d6 .LASF212
     /tmp/ccaOOzD6.s:10973  .debug_str:0000000000000eda .LASF92
     /tmp/ccaOOzD6.s:10701  .debug_str:000000000000065e .LASF93
     /tmp/ccaOOzD6.s:11085  .debug_str:000000000000122e .LASF94
     /tmp/ccaOOzD6.s:10501  .debug_str:0000000000000000 .LASF95
     /tmp/ccaOOzD6.s:10657  .debug_str:0000000000000507 .LASF96
     /tmp/ccaOOzD6.s:10651  .debug_str:00000000000004d9 .LASF97
     /tmp/ccaOOzD6.s:11185  .debug_str:0000000000001644 .LASF99
     /tmp/ccaOOzD6.s:10793  .debug_str:0000000000000935 .LASF101
     /tmp/ccaOOzD6.s:10649  .debug_str:00000000000004d3 .LASF102
     /tmp/ccaOOzD6.s:10963  .debug_str:0000000000000e6d .LASF103
     /tmp/ccaOOzD6.s:10733  .debug_str:0000000000000764 .LASF104
     /tmp/ccaOOzD6.s:11055  .debug_str:000000000000114b .LASF105
     /tmp/ccaOOzD6.s:11243  .debug_str:0000000000001846 .LASF106
     /tmp/ccaOOzD6.s:10929  .debug_str:0000000000000d9e .LASF107
     /tmp/ccaOOzD6.s:10815  .debug_str:00000000000009f1 .LASF108
     /tmp/ccaOOzD6.s:10535  .debug_str:0000000000000114 .LASF109
     /tmp/ccaOOzD6.s:11163  .debug_str:00000000000015ab .LASF110
     /tmp/ccaOOzD6.s:11233  .debug_str:00000000000017ef .LASF111
     /tmp/ccaOOzD6.s:10807  .debug_str:00000000000009a9 .LASF112
     /tmp/ccaOOzD6.s:10599  .debug_str:0000000000000308 .LASF113
     /tmp/ccaOOzD6.s:10997  .debug_str:0000000000000f9e .LASF114
     /tmp/ccaOOzD6.s:11029  .debug_str:00000000000010ad .LASF115
     /tmp/ccaOOzD6.s:11189  .debug_str:0000000000001666 .LASF116
     /tmp/ccaOOzD6.s:10555  .debug_str:00000000000001dd .LASF117
     /tmp/ccaOOzD6.s:11193  .debug_str:00000000000016a0 .LASF118
     /tmp/ccaOOzD6.s:10885  .debug_str:0000000000000c33 .LASF119
GAS LISTING /tmp/ccaOOzD6.s 			page 83


     /tmp/ccaOOzD6.s:10789  .debug_str:0000000000000929 .LASF120
     /tmp/ccaOOzD6.s:10931  .debug_str:0000000000000da3 .LASF121
     /tmp/ccaOOzD6.s:10967  .debug_str:0000000000000ea4 .LASF123
     /tmp/ccaOOzD6.s:10711  .debug_str:00000000000006be .LASF125
     /tmp/ccaOOzD6.s:10517  .debug_str:0000000000000084 .LASF126
     /tmp/ccaOOzD6.s:11115  .debug_str:00000000000013fc .LASF127
     /tmp/ccaOOzD6.s:10743  .debug_str:00000000000007aa .LASF128
     /tmp/ccaOOzD6.s:10867  .debug_str:0000000000000bb6 .LASF129
     /tmp/ccaOOzD6.s:10915  .debug_str:0000000000000d31 .LASF130
     /tmp/ccaOOzD6.s:11175  .debug_str:0000000000001609 .LASF131
     /tmp/ccaOOzD6.s:10829  .debug_str:0000000000000a59 .LASF132
     /tmp/ccaOOzD6.s:11219  .debug_str:000000000000177e .LASF133
     /tmp/ccaOOzD6.s:10719  .debug_str:0000000000000710 .LASF134
     /tmp/ccaOOzD6.s:11149  .debug_str:0000000000001522 .LASF135
     /tmp/ccaOOzD6.s:10619  .debug_str:00000000000003bb .LASF136
     /tmp/ccaOOzD6.s:11033  .debug_str:00000000000010c2 .LASF137
     /tmp/ccaOOzD6.s:10823  .debug_str:0000000000000a29 .LASF138
     /tmp/ccaOOzD6.s:10887  .debug_str:0000000000000c38 .LASF139
     /tmp/ccaOOzD6.s:11237  .debug_str:0000000000001807 .LASF140
     /tmp/ccaOOzD6.s:11121  .debug_str:0000000000001448 .LASF141
     /tmp/ccaOOzD6.s:10811  .debug_str:00000000000009c0 .LASF142
     /tmp/ccaOOzD6.s:10515  .debug_str:000000000000007b .LASF143
     /tmp/ccaOOzD6.s:11125  .debug_str:0000000000001455 .LASF144
     /tmp/ccaOOzD6.s:10903  .debug_str:0000000000000ce1 .LASF145
     /tmp/ccaOOzD6.s:10813  .debug_str:00000000000009d8 .LASF146
     /tmp/ccaOOzD6.s:10667  .debug_str:0000000000000554 .LASF147
     /tmp/ccaOOzD6.s:11197  .debug_str:00000000000016c3 .LASF148
     /tmp/ccaOOzD6.s:11069  .debug_str:00000000000011b2 .LASF149
     /tmp/ccaOOzD6.s:10635  .debug_str:0000000000000461 .LASF150
     /tmp/ccaOOzD6.s:10575  .debug_str:000000000000025a .LASF151
     /tmp/ccaOOzD6.s:11113  .debug_str:00000000000013e2 .LASF152
     /tmp/ccaOOzD6.s:11027  .debug_str:00000000000010a4 .LASF153
     /tmp/ccaOOzD6.s:11177  .debug_str:0000000000001610 .LASF154
     /tmp/ccaOOzD6.s:11071  .debug_str:00000000000011bb .LASF155
     /tmp/ccaOOzD6.s:10509  .debug_str:000000000000003c .LASF156
     /tmp/ccaOOzD6.s:11223  .debug_str:000000000000179b .LASF157
     /tmp/ccaOOzD6.s:10971  .debug_str:0000000000000ec1 .LASF158
     /tmp/ccaOOzD6.s:10755  .debug_str:0000000000000805 .LASF159
     /tmp/ccaOOzD6.s:11103  .debug_str:0000000000001381 .LASF160
     /tmp/ccaOOzD6.s:10609  .debug_str:0000000000000359 .LASF161
     /tmp/ccaOOzD6.s:10831  .debug_str:0000000000000a70 .LASF163
     /tmp/ccaOOzD6.s:10713  .debug_str:00000000000006dd .LASF164
     /tmp/ccaOOzD6.s:10801  .debug_str:000000000000096e .LASF165
     /tmp/ccaOOzD6.s:10725  .debug_str:000000000000073b .LASF166
     /tmp/ccaOOzD6.s:11087  .debug_str:000000000000123a .LASF167
     /tmp/ccaOOzD6.s:10921  .debug_str:0000000000000d70 .LASF168
     /tmp/ccaOOzD6.s:10593  .debug_str:00000000000002c7 .LASF169
     /tmp/ccaOOzD6.s:10955  .debug_str:0000000000000e35 .LASF170
     /tmp/ccaOOzD6.s:10527  .debug_str:00000000000000d4 .LASF171
     /tmp/ccaOOzD6.s:11051  .debug_str:000000000000113d .LASF172
     /tmp/ccaOOzD6.s:11005  .debug_str:0000000000000fd5 .LASF173
     /tmp/ccaOOzD6.s:10791  .debug_str:000000000000092e .LASF174
     /tmp/ccaOOzD6.s:10987  .debug_str:0000000000000f4a .LASF175
     /tmp/ccaOOzD6.s:10989  .debug_str:0000000000000f61 .LASF176
     /tmp/ccaOOzD6.s:10897  .debug_str:0000000000000ca6 .LASF177
     /tmp/ccaOOzD6.s:10799  .debug_str:0000000000000967 .LASF178
     /tmp/ccaOOzD6.s:10877  .debug_str:0000000000000bf8 .LASF179
GAS LISTING /tmp/ccaOOzD6.s 			page 84


     /tmp/ccaOOzD6.s:10679  .debug_str:000000000000059c .LASF180
     /tmp/ccaOOzD6.s:10519  .debug_str:0000000000000091 .LASF181
     /tmp/ccaOOzD6.s:10553  .debug_str:00000000000001bf .LASF182
     /tmp/ccaOOzD6.s:10521  .debug_str:000000000000009e .LASF183
     /tmp/ccaOOzD6.s:11095  .debug_str:0000000000001268 .LASF184
     /tmp/ccaOOzD6.s:10773  .debug_str:00000000000008a0 .LASF185
     /tmp/ccaOOzD6.s:11097  .debug_str:0000000000001286 .LASF186
     /tmp/ccaOOzD6.s:10551  .debug_str:00000000000001b0 .LASF187
     /tmp/ccaOOzD6.s:10919  .debug_str:0000000000000d50 .LASF188
     /tmp/ccaOOzD6.s:11159  .debug_str:0000000000001584 .LASF189
     /tmp/ccaOOzD6.s:11075  .debug_str:00000000000011dc .LASF190
     /tmp/ccaOOzD6.s:10865  .debug_str:0000000000000ba4 .LASF191
     /tmp/ccaOOzD6.s:10983  .debug_str:0000000000000f14 .LASF192
     /tmp/ccaOOzD6.s:10769  .debug_str:0000000000000880 .LASF193
     /tmp/ccaOOzD6.s:10505  .debug_str:000000000000002a .LASF194
     /tmp/ccaOOzD6.s:11025  .debug_str:0000000000001088 .LASF195
     /tmp/ccaOOzD6.s:10677  .debug_str:0000000000000594 .LASF196
     /tmp/ccaOOzD6.s:11049  .debug_str:0000000000001138 .LASF197
     /tmp/ccaOOzD6.s:10909  .debug_str:0000000000000d02 .LASF198
     /tmp/ccaOOzD6.s:10705  .debug_str:0000000000000690 .LASF199
     /tmp/ccaOOzD6.s:11161  .debug_str:0000000000001598 .LASF200
     /tmp/ccaOOzD6.s:11253  .debug_str:0000000000001890 .LASF201
     /tmp/ccaOOzD6.s:10825  .debug_str:0000000000000a41 .LASF202
     /tmp/ccaOOzD6.s:10549  .debug_str:00000000000001a7 .LASF203
     /tmp/ccaOOzD6.s:10675  .debug_str:000000000000058d .LASF204
     /tmp/ccaOOzD6.s:10583  .debug_str:0000000000000285 .LASF205
     /tmp/ccaOOzD6.s:10907  .debug_str:0000000000000cfd .LASF206
     /tmp/ccaOOzD6.s:10999  .debug_str:0000000000000fb4 .LASF207
     /tmp/ccaOOzD6.s:10541  .debug_str:000000000000013e .LASF208
     /tmp/ccaOOzD6.s:11013  .debug_str:000000000000102c .LASF209
     /tmp/ccaOOzD6.s:11035  .debug_str:00000000000010ca .LASF210
     /tmp/ccaOOzD6.s:11147  .debug_str:000000000000150e .LASF211
     /tmp/ccaOOzD6.s:10647  .debug_str:00000000000004bd .LASF213
     /tmp/ccaOOzD6.s:10703  .debug_str:000000000000067a .LASF214
     /tmp/ccaOOzD6.s:10683  .debug_str:00000000000005bb .LASF215
     /tmp/ccaOOzD6.s:11187  .debug_str:000000000000164c .LASF216
     /tmp/ccaOOzD6.s:10623  .debug_str:00000000000003f7 .LASF217
     /tmp/ccaOOzD6.s:10995  .debug_str:0000000000000f80 .LASF218
     /tmp/ccaOOzD6.s:10883  .debug_str:0000000000000c29 .LASF219
     /tmp/ccaOOzD6.s:11247  .debug_str:000000000000185f .LASF220
     /tmp/ccaOOzD6.s:11063  .debug_str:0000000000001199 .LASF221
     /tmp/ccaOOzD6.s:11171  .debug_str:00000000000015e8 .LASF222
     /tmp/ccaOOzD6.s:11047  .debug_str:000000000000112e .LASF223
     /tmp/ccaOOzD6.s:10893  .debug_str:0000000000000c71 .LASF224
     /tmp/ccaOOzD6.s:11251  .debug_str:0000000000001885 .LASF225
     /tmp/ccaOOzD6.s:10589  .debug_str:00000000000002a4 .LASF226
     /tmp/ccaOOzD6.s:10601  .debug_str:0000000000000313 .LASF227
     /tmp/ccaOOzD6.s:10603  .debug_str:0000000000000327 .LASF228
     /tmp/ccaOOzD6.s:10871  .debug_str:0000000000000bd2 .LASF229
     /tmp/ccaOOzD6.s:11137  .debug_str:00000000000014c9 .LASF230
     /tmp/ccaOOzD6.s:10917  .debug_str:0000000000000d46 .LASF244
     /tmp/ccaOOzD6.s:10837  .debug_str:0000000000000aa4 .LASF231
     /tmp/ccaOOzD6.s:11173  .debug_str:00000000000015f2 .LASF232
     /tmp/ccaOOzD6.s:10861  .debug_str:0000000000000b7f .LASF233
     /tmp/ccaOOzD6.s:10991  .debug_str:0000000000000f6c .LASF235
     /tmp/ccaOOzD6.s:10741  .debug_str:00000000000007a0 .LASF236
     /tmp/ccaOOzD6.s:10981  .debug_str:0000000000000f0b .LASF237
GAS LISTING /tmp/ccaOOzD6.s 			page 85


     /tmp/ccaOOzD6.s:10833  .debug_str:0000000000000a8a .LASF238
     /tmp/ccaOOzD6.s:10849  .debug_str:0000000000000b2b .LASF239
     /tmp/ccaOOzD6.s:10673  .debug_str:0000000000000584 .LASF240
     /tmp/ccaOOzD6.s:10597  .debug_str:00000000000002ef .LASF241
     /tmp/ccaOOzD6.s:11211  .debug_str:0000000000001729 .LASF242
     /tmp/ccaOOzD6.s:10663  .debug_str:0000000000000527 .LASF246
     /tmp/ccaOOzD6.s:10859  .debug_str:0000000000000b75 .LASF243
     /tmp/ccaOOzD6.s:10881  .debug_str:0000000000000c18 .LASF258
     /tmp/ccaOOzD6.s:10809  .debug_str:00000000000009b9 .LASF245
     /tmp/ccaOOzD6.s:11221  .debug_str:000000000000178a .LASF247
     /tmp/ccaOOzD6.s:10669  .debug_str:000000000000055e .LASF248
     /tmp/ccaOOzD6.s:10911  .debug_str:0000000000000d15 .LASF249
     /tmp/ccaOOzD6.s:11209  .debug_str:0000000000001720 .LASF250
     /tmp/ccaOOzD6.s:11155  .debug_str:0000000000001560 .LASF251
     /tmp/ccaOOzD6.s:11229  .debug_str:00000000000017c3 .LASF252
     /tmp/ccaOOzD6.s:10879  .debug_str:0000000000000c0f .LASF253
     /tmp/ccaOOzD6.s:10617  .debug_str:00000000000003a2 .LASF254
     /tmp/ccaOOzD6.s:11057  .debug_str:0000000000001162 .LASF255
     /tmp/ccaOOzD6.s:10905  .debug_str:0000000000000cea .LASF256
     /tmp/ccaOOzD6.s:10975  .debug_str:0000000000000ee2 .LASF257
     /tmp/ccaOOzD6.s:10855  .debug_str:0000000000000b52 .LASF259
     /tmp/ccaOOzD6.s:10525  .debug_str:00000000000000c3 .LASF260
     /tmp/ccaOOzD6.s:11039  .debug_str:00000000000010e9 .LASF261
     /tmp/ccaOOzD6.s:10621  .debug_str:00000000000003da .LASF262
     /tmp/ccaOOzD6.s:11157  .debug_str:0000000000001573 .LASF263
     /tmp/ccaOOzD6.s:10965  .debug_str:0000000000000e79 .LASF264
     /tmp/ccaOOzD6.s:11153  .debug_str:0000000000001539 .LASF265
     /tmp/ccaOOzD6.s:10891  .debug_str:0000000000000c55 .LASF266
     /tmp/ccaOOzD6.s:10717  .debug_str:00000000000006fe .LASF267
     /tmp/ccaOOzD6.s:10697  .debug_str:000000000000063d .LASF268
     /tmp/ccaOOzD6.s:10567  .debug_str:0000000000000234 .LASF269
     /tmp/ccaOOzD6.s:11213  .debug_str:0000000000001747 .LASF270
     /tmp/ccaOOzD6.s:11235  .debug_str:00000000000017f5 .LASF271
     /tmp/ccaOOzD6.s:10539  .debug_str:000000000000012f .LASF272
     /tmp/ccaOOzD6.s:10945  .debug_str:0000000000000dee .LASF273
     /tmp/ccaOOzD6.s:11107  .debug_str:00000000000013a9 .LASF280
     /tmp/ccaOOzD6.s:10723  .debug_str:0000000000000733 .LASF274
     /tmp/ccaOOzD6.s:10847  .debug_str:0000000000000b1c .LASF275
     /tmp/ccaOOzD6.s:11165  .debug_str:00000000000015bc .LASF276
     /tmp/ccaOOzD6.s:10841  .debug_str:0000000000000ac9 .LASF277
     /tmp/ccaOOzD6.s:10845  .debug_str:0000000000000b01 .LASF278
     /tmp/ccaOOzD6.s:10629  .debug_str:000000000000041f .LASF279
     /tmp/ccaOOzD6.s:11191  .debug_str:0000000000001676 .LASF281
     /tmp/ccaOOzD6.s:10565  .debug_str:0000000000000224 .LASF282
     /tmp/ccaOOzD6.s:10531  .debug_str:00000000000000f5 .LASF283
     /tmp/ccaOOzD6.s:10577  .debug_str:0000000000000264 .LASF284
     /tmp/ccaOOzD6.s:10709  .debug_str:00000000000006ad .LASF285
     /tmp/ccaOOzD6.s:10857  .debug_str:0000000000000b63 .LASF286
     /tmp/ccaOOzD6.s:10969  .debug_str:0000000000000eb2 .LASF287
     /tmp/ccaOOzD6.s:10561  .debug_str:00000000000001f7 .LASF288
     /tmp/ccaOOzD6.s:10739  .debug_str:0000000000000798 .LASF289
     /tmp/ccaOOzD6.s:10785  .debug_str:0000000000000901 .LASF290
     /tmp/ccaOOzD6.s:10687  .debug_str:00000000000005d9 .LASF291
     /tmp/ccaOOzD6.s:11145  .debug_str:00000000000014f5 .LASF292
     /tmp/ccaOOzD6.s:10803  .debug_str:0000000000000988 .LASF293
     /tmp/ccaOOzD6.s:11099  .debug_str:00000000000012a6 .LASF294
     /tmp/ccaOOzD6.s:10763  .debug_str:0000000000000847 .LASF295
GAS LISTING /tmp/ccaOOzD6.s 			page 86


     /tmp/ccaOOzD6.s:10587  .debug_str:0000000000000295 .LASF296
     /tmp/ccaOOzD6.s:10715  .debug_str:00000000000006e7 .LASF297
     /tmp/ccaOOzD6.s:10727  .debug_str:0000000000000742 .LASF298
     /tmp/ccaOOzD6.s:10783  .debug_str:00000000000008e8 .LASF299
     /tmp/ccaOOzD6.s:10665  .debug_str:000000000000053a .LASF300
     /tmp/ccaOOzD6.s:11127  .debug_str:000000000000146e .LASF301
     /tmp/ccaOOzD6.s:10631  .debug_str:0000000000000437 .LASF376
     /tmp/ccaOOzD6.s:10607  .debug_str:000000000000034a .LASF302
     /tmp/ccaOOzD6.s:11073  .debug_str:00000000000011c5 .LASF303
     /tmp/ccaOOzD6.s:10953  .debug_str:0000000000000e30 .LASF304
     /tmp/ccaOOzD6.s:10645  .debug_str:00000000000004b3 .LASF305
     /tmp/ccaOOzD6.s:11119  .debug_str:0000000000001431 .LASF306
     /tmp/ccaOOzD6.s:222    .text._ZN13PutCharThreadD0Ev:0000000000000000 .LFB70
     /tmp/ccaOOzD6.s:262    .text._ZN13PutCharThreadD0Ev:000000000000004c .LFE70
     /tmp/ccaOOzD6.s:9249   .debug_loc:0000000000000000 .LLST4
     /tmp/ccaOOzD6.s:238    .text._ZN13PutCharThreadD0Ev:0000000000000018 .LBB66
     /tmp/ccaOOzD6.s:246    .text._ZN13PutCharThreadD0Ev:000000000000002c .LBE66
     /tmp/ccaOOzD6.s:9267   .debug_loc:000000000000004c .LLST5
     /tmp/ccaOOzD6.s:244    .text._ZN13PutCharThreadD0Ev:000000000000002c .LVL15
     /tmp/ccaOOzD6.s:249    .text._ZN13PutCharThreadD0Ev:0000000000000038 .LVL16
     /tmp/ccaOOzD6.s:10957  .debug_str:0000000000000e3c .LASF307
     /tmp/ccaOOzD6.s:185    .text._ZN13PutCharThreadD2Ev:0000000000000000 .LFB68
     /tmp/ccaOOzD6.s:213    .text._ZN13PutCharThreadD2Ev:0000000000000034 .LFE68
     /tmp/ccaOOzD6.s:9278   .debug_loc:0000000000000082 .LLST3
     /tmp/ccaOOzD6.s:202    .text._ZN13PutCharThreadD2Ev:0000000000000024 .LVL12
     /tmp/ccaOOzD6.s:11019  .debug_str:000000000000105d .LASF308
     /tmp/ccaOOzD6.s:306    .text._ZN13GetCharThreadD0Ev:0000000000000000 .LFB66
     /tmp/ccaOOzD6.s:346    .text._ZN13GetCharThreadD0Ev:000000000000004c .LFE66
     /tmp/ccaOOzD6.s:9292   .debug_loc:00000000000000bb .LLST7
     /tmp/ccaOOzD6.s:322    .text._ZN13GetCharThreadD0Ev:0000000000000018 .LBB69
     /tmp/ccaOOzD6.s:330    .text._ZN13GetCharThreadD0Ev:000000000000002c .LBE69
     /tmp/ccaOOzD6.s:9310   .debug_loc:0000000000000107 .LLST8
     /tmp/ccaOOzD6.s:328    .text._ZN13GetCharThreadD0Ev:000000000000002c .LVL22
     /tmp/ccaOOzD6.s:333    .text._ZN13GetCharThreadD0Ev:0000000000000038 .LVL23
     /tmp/ccaOOzD6.s:10873  .debug_str:0000000000000bd9 .LASF309
     /tmp/ccaOOzD6.s:269    .text._ZN13GetCharThreadD2Ev:0000000000000000 .LFB64
     /tmp/ccaOOzD6.s:297    .text._ZN13GetCharThreadD2Ev:0000000000000034 .LFE64
     /tmp/ccaOOzD6.s:9321   .debug_loc:000000000000013d .LLST6
     /tmp/ccaOOzD6.s:286    .text._ZN13GetCharThreadD2Ev:0000000000000024 .LVL19
     /tmp/ccaOOzD6.s:11031  .debug_str:00000000000010b3 .LASF310
     /tmp/ccaOOzD6.s:731    .text._ZN6PrintPD0Ev:0000000000000000 .LFB62
     /tmp/ccaOOzD6.s:774    .text._ZN6PrintPD0Ev:000000000000004c .LFE62
     /tmp/ccaOOzD6.s:9335   .debug_loc:0000000000000176 .LLST23
     /tmp/ccaOOzD6.s:747    .text._ZN6PrintPD0Ev:0000000000000018 .LBB85
     /tmp/ccaOOzD6.s:757    .text._ZN6PrintPD0Ev:000000000000002c .LBE85
     /tmp/ccaOOzD6.s:9353   .debug_loc:00000000000001c2 .LLST24
     /tmp/ccaOOzD6.s:748    .text._ZN6PrintPD0Ev:0000000000000018 .LBB86
     /tmp/ccaOOzD6.s:756    .text._ZN6PrintPD0Ev:000000000000002c .LBE86
     /tmp/ccaOOzD6.s:754    .text._ZN6PrintPD0Ev:000000000000002c .LVL58
     /tmp/ccaOOzD6.s:761    .text._ZN6PrintPD0Ev:0000000000000038 .LVL59
     /tmp/ccaOOzD6.s:10827  .debug_str:0000000000000a4a .LASF311
     /tmp/ccaOOzD6.s:690    .text._ZN6PrintPD2Ev:0000000000000000 .LFB60
     /tmp/ccaOOzD6.s:722    .text._ZN6PrintPD2Ev:0000000000000034 .LFE60
     /tmp/ccaOOzD6.s:9364   .debug_loc:00000000000001f8 .LLST21
     /tmp/ccaOOzD6.s:703    .text._ZN6PrintPD2Ev:0000000000000010 .LBB83
     /tmp/ccaOOzD6.s:711    .text._ZN6PrintPD2Ev:0000000000000024 .LBE83
     /tmp/ccaOOzD6.s:9378   .debug_loc:0000000000000231 .LLST22
GAS LISTING /tmp/ccaOOzD6.s 			page 87


     /tmp/ccaOOzD6.s:709    .text._ZN6PrintPD2Ev:0000000000000024 .LVL55
     /tmp/ccaOOzD6.s:11169  .debug_str:00000000000015d9 .LASF312
     /tmp/ccaOOzD6.s:822    .text._ZN6PrintAD0Ev:0000000000000000 .LFB58
     /tmp/ccaOOzD6.s:865    .text._ZN6PrintAD0Ev:000000000000004c .LFE58
     /tmp/ccaOOzD6.s:9392   .debug_loc:000000000000026a .LLST28
     /tmp/ccaOOzD6.s:838    .text._ZN6PrintAD0Ev:0000000000000018 .LBB90
     /tmp/ccaOOzD6.s:848    .text._ZN6PrintAD0Ev:000000000000002c .LBE90
     /tmp/ccaOOzD6.s:9410   .debug_loc:00000000000002b6 .LLST29
     /tmp/ccaOOzD6.s:839    .text._ZN6PrintAD0Ev:0000000000000018 .LBB91
     /tmp/ccaOOzD6.s:847    .text._ZN6PrintAD0Ev:000000000000002c .LBE91
     /tmp/ccaOOzD6.s:845    .text._ZN6PrintAD0Ev:000000000000002c .LVL66
     /tmp/ccaOOzD6.s:852    .text._ZN6PrintAD0Ev:0000000000000038 .LVL67
     /tmp/ccaOOzD6.s:11021  .debug_str:0000000000001074 .LASF313
     /tmp/ccaOOzD6.s:781    .text._ZN6PrintAD2Ev:0000000000000000 .LFB56
     /tmp/ccaOOzD6.s:813    .text._ZN6PrintAD2Ev:0000000000000034 .LFE56
     /tmp/ccaOOzD6.s:9421   .debug_loc:00000000000002ec .LLST26
     /tmp/ccaOOzD6.s:794    .text._ZN6PrintAD2Ev:0000000000000010 .LBB88
     /tmp/ccaOOzD6.s:802    .text._ZN6PrintAD2Ev:0000000000000024 .LBE88
     /tmp/ccaOOzD6.s:9435   .debug_loc:0000000000000325 .LLST27
     /tmp/ccaOOzD6.s:800    .text._ZN6PrintAD2Ev:0000000000000024 .LVL63
     /tmp/ccaOOzD6.s:11007  .debug_str:0000000000000fed .LASF314
     /tmp/ccaOOzD6.s:559    .text._ZN16ProducerKeyboardD0Ev:0000000000000000 .LFB54
     /tmp/ccaOOzD6.s:599    .text._ZN16ProducerKeyboardD0Ev:000000000000004c .LFE54
     /tmp/ccaOOzD6.s:9449   .debug_loc:000000000000035e .LLST16
     /tmp/ccaOOzD6.s:575    .text._ZN16ProducerKeyboardD0Ev:0000000000000018 .LBB78
     /tmp/ccaOOzD6.s:583    .text._ZN16ProducerKeyboardD0Ev:000000000000002c .LBE78
     /tmp/ccaOOzD6.s:9467   .debug_loc:00000000000003aa .LLST17
     /tmp/ccaOOzD6.s:581    .text._ZN16ProducerKeyboardD0Ev:000000000000002c .LVL43
     /tmp/ccaOOzD6.s:586    .text._ZN16ProducerKeyboardD0Ev:0000000000000038 .LVL44
     /tmp/ccaOOzD6.s:10863  .debug_str:0000000000000b8a .LASF315
     /tmp/ccaOOzD6.s:522    .text._ZN16ProducerKeyboardD2Ev:0000000000000000 .LFB52
     /tmp/ccaOOzD6.s:550    .text._ZN16ProducerKeyboardD2Ev:0000000000000034 .LFE52
     /tmp/ccaOOzD6.s:9478   .debug_loc:00000000000003e0 .LLST15
     /tmp/ccaOOzD6.s:539    .text._ZN16ProducerKeyboardD2Ev:0000000000000024 .LVL40
     /tmp/ccaOOzD6.s:11003  .debug_str:0000000000000fc4 .LASF316
     /tmp/ccaOOzD6.s:475    .text._ZN8ProducerD0Ev:0000000000000000 .LFB50
     /tmp/ccaOOzD6.s:515    .text._ZN8ProducerD0Ev:000000000000004c .LFE50
     /tmp/ccaOOzD6.s:9492   .debug_loc:0000000000000419 .LLST13
     /tmp/ccaOOzD6.s:491    .text._ZN8ProducerD0Ev:0000000000000018 .LBB75
     /tmp/ccaOOzD6.s:499    .text._ZN8ProducerD0Ev:000000000000002c .LBE75
     /tmp/ccaOOzD6.s:9510   .debug_loc:0000000000000465 .LLST14
     /tmp/ccaOOzD6.s:497    .text._ZN8ProducerD0Ev:000000000000002c .LVL36
     /tmp/ccaOOzD6.s:502    .text._ZN8ProducerD0Ev:0000000000000038 .LVL37
     /tmp/ccaOOzD6.s:11195  .debug_str:00000000000016b2 .LASF317
     /tmp/ccaOOzD6.s:438    .text._ZN8ProducerD2Ev:0000000000000000 .LFB48
     /tmp/ccaOOzD6.s:466    .text._ZN8ProducerD2Ev:0000000000000034 .LFE48
     /tmp/ccaOOzD6.s:9521   .debug_loc:000000000000049b .LLST12
     /tmp/ccaOOzD6.s:455    .text._ZN8ProducerD2Ev:0000000000000024 .LVL33
     /tmp/ccaOOzD6.s:10901  .debug_str:0000000000000cd0 .LASF318
     /tmp/ccaOOzD6.s:391    .text._ZN8ConsumerD0Ev:0000000000000000 .LFB46
     /tmp/ccaOOzD6.s:431    .text._ZN8ConsumerD0Ev:000000000000004c .LFE46
     /tmp/ccaOOzD6.s:9535   .debug_loc:00000000000004d4 .LLST10
     /tmp/ccaOOzD6.s:407    .text._ZN8ConsumerD0Ev:0000000000000018 .LBB72
     /tmp/ccaOOzD6.s:415    .text._ZN8ConsumerD0Ev:000000000000002c .LBE72
     /tmp/ccaOOzD6.s:9553   .debug_loc:0000000000000520 .LLST11
     /tmp/ccaOOzD6.s:413    .text._ZN8ConsumerD0Ev:000000000000002c .LVL29
     /tmp/ccaOOzD6.s:418    .text._ZN8ConsumerD0Ev:0000000000000038 .LVL30
GAS LISTING /tmp/ccaOOzD6.s 			page 88


     /tmp/ccaOOzD6.s:10753  .debug_str:00000000000007f4 .LASF319
     /tmp/ccaOOzD6.s:353    .text._ZN8ConsumerD2Ev:0000000000000000 .LFB44
     /tmp/ccaOOzD6.s:382    .text._ZN8ConsumerD2Ev:0000000000000034 .LFE44
     /tmp/ccaOOzD6.s:9564   .debug_loc:0000000000000556 .LLST9
     /tmp/ccaOOzD6.s:371    .text._ZN8ConsumerD2Ev:0000000000000024 .LVL26
     /tmp/ccaOOzD6.s:11065  .debug_str:00000000000011a7 .LASF320
     /tmp/ccaOOzD6.s:2507   .text:0000000000000a34 .LFE42
     /tmp/ccaOOzD6.s:11089  .debug_str:0000000000001251 .LASF321
     /tmp/ccaOOzD6.s:9578   .debug_loc:000000000000058f .LLST71
     /tmp/ccaOOzD6.s:10795  .debug_str:000000000000094c .LASF322
     /tmp/ccaOOzD6.s:9589   .debug_loc:00000000000005c5 .LLST72
     /tmp/ccaOOzD6.s:9596   .debug_loc:00000000000005e8 .LLST77
     /tmp/ccaOOzD6.s:2471   .text:00000000000009e8 .LVL255
     /tmp/ccaOOzD6.s:2479   .text:00000000000009f0 .LVL256
     /tmp/ccaOOzD6.s:2418   .text:0000000000000984 .LBB112
     /tmp/ccaOOzD6.s:2430   .text:000000000000099c .LBE112
     /tmp/ccaOOzD6.s:9607   .debug_loc:000000000000061e .LLST73
     /tmp/ccaOOzD6.s:9620   .debug_loc:0000000000000656 .LLST74
     /tmp/ccaOOzD6.s:2424   .text:0000000000000990 .LVL246
     /tmp/ccaOOzD6.s:2440   .text:00000000000009ac .LBB114
     /tmp/ccaOOzD6.s:2452   .text:00000000000009c4 .LBE114
     /tmp/ccaOOzD6.s:9635   .debug_loc:000000000000069f .LLST75
     /tmp/ccaOOzD6.s:9648   .debug_loc:00000000000006d7 .LLST76
     /tmp/ccaOOzD6.s:2446   .text:00000000000009b8 .LVL250
     /tmp/ccaOOzD6.s:2409   .text:0000000000000974 .LVL243
     /tmp/ccaOOzD6.s:2414   .text:0000000000000980 .LVL244
     /tmp/ccaOOzD6.s:2436   .text:00000000000009a8 .LVL248
     /tmp/ccaOOzD6.s:2458   .text:00000000000009d0 .LVL252
     /tmp/ccaOOzD6.s:2463   .text:00000000000009dc .LVL253
     /tmp/ccaOOzD6.s:2491   .text:0000000000000a0c .LVL258
     /tmp/ccaOOzD6.s:2494   .text:0000000000000a18 .LVL259
     /tmp/ccaOOzD6.s:2501   .text:0000000000000a28 .LVL261
     /tmp/ccaOOzD6.s:2504   .text:0000000000000a34 .LVL262
     /tmp/ccaOOzD6.s:10659  .debug_str:000000000000050f .LASF323
     /tmp/ccaOOzD6.s:11241  .debug_str:0000000000001839 .LASF324
     /tmp/ccaOOzD6.s:2357   .text:000000000000092c .LFB41
     /tmp/ccaOOzD6.s:2382   .text:0000000000000954 .LFE41
     /tmp/ccaOOzD6.s:2371   .text:0000000000000944 .LVL242
     /tmp/ccaOOzD6.s:11217  .debug_str:0000000000001760 .LASF325
     /tmp/ccaOOzD6.s:10895  .debug_str:0000000000000c83 .LASF326
     /tmp/ccaOOzD6.s:2300   .text:000000000000092c .LFE40
     /tmp/ccaOOzD6.s:10925  .debug_str:0000000000000d88 .LASF327
     /tmp/ccaOOzD6.s:9659   .debug_loc:000000000000070d .LLST56
     /tmp/ccaOOzD6.s:10765  .debug_str:0000000000000860 .LASF328
     /tmp/ccaOOzD6.s:9670   .debug_loc:0000000000000743 .LLST57
     /tmp/ccaOOzD6.s:9685   .debug_loc:000000000000078c .LLST58
     /tmp/ccaOOzD6.s:11079  .debug_str:0000000000001213 .LASF329
     /tmp/ccaOOzD6.s:9696   .debug_loc:00000000000007c2 .LLST59
     /tmp/ccaOOzD6.s:10655  .debug_str:00000000000004f8 .LASF330
     /tmp/ccaOOzD6.s:9714   .debug_loc:000000000000080e .LLST60
     /tmp/ccaOOzD6.s:10821  .debug_str:0000000000000a24 .LASF331
     /tmp/ccaOOzD6.s:9725   .debug_loc:0000000000000844 .LLST61
     /tmp/ccaOOzD6.s:9738   .debug_loc:000000000000087c .LLST64
     /tmp/ccaOOzD6.s:2022   .text:00000000000006f0 .LBB103
     /tmp/ccaOOzD6.s:9753   .debug_loc:00000000000008c5 .LLST65
     /tmp/ccaOOzD6.s:9768   .debug_loc:000000000000090e .LLST66
     /tmp/ccaOOzD6.s:2085   .text:0000000000000778 .LVL205
GAS LISTING /tmp/ccaOOzD6.s 			page 89


     /tmp/ccaOOzD6.s:2108   .text:000000000000079c .LBB107
     /tmp/ccaOOzD6.s:2119   .text:00000000000007b4 .LBE107
     /tmp/ccaOOzD6.s:9787   .debug_loc:000000000000096a .LLST67
     /tmp/ccaOOzD6.s:9798   .debug_loc:00000000000009a0 .LLST68
     /tmp/ccaOOzD6.s:2112   .text:00000000000007a4 .LVL209
     /tmp/ccaOOzD6.s:2043   .text:0000000000000720 .LVL201
     /tmp/ccaOOzD6.s:2070   .text:000000000000075c .LVL203
     /tmp/ccaOOzD6.s:2097   .text:0000000000000788 .LVL207
     /tmp/ccaOOzD6.s:2283   .text:0000000000000904 .LVL237
     /tmp/ccaOOzD6.s:2293   .text:0000000000000920 .LVL240
     /tmp/ccaOOzD6.s:2132   .text:00000000000007cc .LBB109
     /tmp/ccaOOzD6.s:2150   .text:00000000000007ec .LBE109
     /tmp/ccaOOzD6.s:9813   .debug_loc:00000000000009e9 .LLST69
     /tmp/ccaOOzD6.s:2143   .text:00000000000007e4 .LVL213
     /tmp/ccaOOzD6.s:2151   .text:00000000000007ec .LBB110
     /tmp/ccaOOzD6.s:2178   .text:000000000000081c .LBE110
     /tmp/ccaOOzD6.s:9824   .debug_loc:0000000000000a1f .LLST70
     /tmp/ccaOOzD6.s:9831   .debug_loc:0000000000000a42 .LLST53
     /tmp/ccaOOzD6.s:9862   .debug_loc:0000000000000a8c .LLST55
     /tmp/ccaOOzD6.s:1997   .text:00000000000006c4 .LBB100
     /tmp/ccaOOzD6.s:2009   .text:00000000000006dc .LBE100
     /tmp/ccaOOzD6.s:9893   .debug_loc:0000000000000ad6 .LLST62
     /tmp/ccaOOzD6.s:9920   .debug_loc:0000000000000b2b .LLST63
     /tmp/ccaOOzD6.s:2001   .text:00000000000006cc .LVL196
     /tmp/ccaOOzD6.s:1828   .text:000000000000052c .LVL168
     /tmp/ccaOOzD6.s:1835   .text:0000000000000540 .LVL169
     /tmp/ccaOOzD6.s:1840   .text:000000000000054c .LVL170
     /tmp/ccaOOzD6.s:1847   .text:0000000000000560 .LVL172
     /tmp/ccaOOzD6.s:1853   .text:0000000000000570 .LVL173
     /tmp/ccaOOzD6.s:1858   .text:000000000000057c .LVL174
     /tmp/ccaOOzD6.s:1865   .text:0000000000000590 .LVL176
     /tmp/ccaOOzD6.s:1872   .text:00000000000005a4 .LVL177
     /tmp/ccaOOzD6.s:1877   .text:00000000000005b4 .LVL178
     /tmp/ccaOOzD6.s:1884   .text:00000000000005c8 .LVL179
     /tmp/ccaOOzD6.s:1889   .text:00000000000005d8 .LVL180
     /tmp/ccaOOzD6.s:1898   .text:00000000000005ec .LVL181
     /tmp/ccaOOzD6.s:1904   .text:00000000000005fc .LVL182
     /tmp/ccaOOzD6.s:1913   .text:0000000000000610 .LVL183
     /tmp/ccaOOzD6.s:1921   .text:0000000000000624 .LVL184
     /tmp/ccaOOzD6.s:1932   .text:0000000000000638 .LVL186
     /tmp/ccaOOzD6.s:1939   .text:0000000000000648 .LVL188
     /tmp/ccaOOzD6.s:1987   .text:00000000000006b4 .LVL194
     /tmp/ccaOOzD6.s:2015   .text:00000000000006e8 .LVL198
     /tmp/ccaOOzD6.s:2131   .text:00000000000007cc .LVL211
     /tmp/ccaOOzD6.s:2187   .text:0000000000000830 .LVL220
     /tmp/ccaOOzD6.s:2206   .text:0000000000000858 .LVL222
     /tmp/ccaOOzD6.s:2209   .text:0000000000000864 .LVL223
     /tmp/ccaOOzD6.s:2252   .text:00000000000008b0 .LVL228
     /tmp/ccaOOzD6.s:2255   .text:00000000000008bc .LVL229
     /tmp/ccaOOzD6.s:2262   .text:00000000000008cc .LVL231
     /tmp/ccaOOzD6.s:2265   .text:00000000000008d8 .LVL232
     /tmp/ccaOOzD6.s:2272   .text:00000000000008e8 .LVL234
     /tmp/ccaOOzD6.s:2275   .text:00000000000008f4 .LVL235
     /tmp/ccaOOzD6.s:2286   .text:0000000000000910 .LVL238
     /tmp/ccaOOzD6.s:2296   .text:000000000000092c .LVL241
     /tmp/ccaOOzD6.s:1586   .text:00000000000003f0 .LFB39
     /tmp/ccaOOzD6.s:1725   .text:00000000000004e4 .LFE39
GAS LISTING /tmp/ccaOOzD6.s 			page 90


     /tmp/ccaOOzD6.s:9935   .debug_loc:0000000000000b74 .LLST45
     /tmp/ccaOOzD6.s:9953   .debug_loc:0000000000000bc0 .LLST46
     /tmp/ccaOOzD6.s:9971   .debug_loc:0000000000000c0c .LLST47
     /tmp/ccaOOzD6.s:9989   .debug_loc:0000000000000c58 .LLST48
     /tmp/ccaOOzD6.s:10013  .debug_loc:0000000000000cc8 .LLST49
     /tmp/ccaOOzD6.s:1620   .text:0000000000000428 .LVL150
     /tmp/ccaOOzD6.s:1628   .text:0000000000000438 .LVL152
     /tmp/ccaOOzD6.s:1640   .text:0000000000000450 .LVL153
     /tmp/ccaOOzD6.s:1651   .text:0000000000000464 .LVL156
     /tmp/ccaOOzD6.s:1673   .text:0000000000000488 .LBB99
     /tmp/ccaOOzD6.s:1688   .text:00000000000004a4 .LBE99
     /tmp/ccaOOzD6.s:10020  .debug_loc:0000000000000ceb .LLST50
     /tmp/ccaOOzD6.s:1680   .text:0000000000000498 .LVL158
     /tmp/ccaOOzD6.s:1686   .text:00000000000004a4 .LVL160
     /tmp/ccaOOzD6.s:1696   .text:00000000000004b4 .LVL161
     /tmp/ccaOOzD6.s:1703   .text:00000000000004c4 .LVL162
     /tmp/ccaOOzD6.s:1732   .text._ZN8Consumer3runEv:0000000000000000 .LFB38
     /tmp/ccaOOzD6.s:1759   .text._ZN8Consumer3runEv:000000000000002c .LFE38
     /tmp/ccaOOzD6.s:10027  .debug_loc:0000000000000d0e .LLST51
     /tmp/ccaOOzD6.s:1748   .text._ZN8Consumer3runEv:000000000000001c .LVL167
     /tmp/ccaOOzD6.s:10843  .debug_str:0000000000000ae3 .LASF332
     /tmp/ccaOOzD6.s:1463   .text:000000000000035c .LFB34
     /tmp/ccaOOzD6.s:1545   .text:00000000000003f0 .LFE34
     /tmp/ccaOOzD6.s:10041  .debug_loc:0000000000000d47 .LLST40
     /tmp/ccaOOzD6.s:10055  .debug_loc:0000000000000d80 .LLST41
     /tmp/ccaOOzD6.s:10073  .debug_loc:0000000000000dcc .LLST42
     /tmp/ccaOOzD6.s:10091  .debug_loc:0000000000000e18 .LLST43
     /tmp/ccaOOzD6.s:1491   .text:0000000000000388 .LVL138
     /tmp/ccaOOzD6.s:1504   .text:00000000000003a8 .LVL139
     /tmp/ccaOOzD6.s:1528   .text:00000000000003d8 .LVL142
     /tmp/ccaOOzD6.s:1552   .text._ZN8Producer3runEv:0000000000000000 .LFB33
     /tmp/ccaOOzD6.s:1579   .text._ZN8Producer3runEv:000000000000002c .LFE33
     /tmp/ccaOOzD6.s:10115  .debug_loc:0000000000000e88 .LLST44
     /tmp/ccaOOzD6.s:1568   .text._ZN8Producer3runEv:000000000000001c .LVL146
     /tmp/ccaOOzD6.s:10689  .debug_str:00000000000005e7 .LASF333
     /tmp/ccaOOzD6.s:1316   .text:000000000000029c .LFB29
     /tmp/ccaOOzD6.s:1422   .text:000000000000035c .LFE29
     /tmp/ccaOOzD6.s:10129  .debug_loc:0000000000000ec1 .LLST34
     /tmp/ccaOOzD6.s:10147  .debug_loc:0000000000000f0d .LLST35
     /tmp/ccaOOzD6.s:10165  .debug_loc:0000000000000f59 .LLST36
     /tmp/ccaOOzD6.s:10183  .debug_loc:0000000000000fa5 .LLST37
     /tmp/ccaOOzD6.s:10198  .debug_loc:0000000000000fee .LLST38
     /tmp/ccaOOzD6.s:1348   .text:00000000000002d0 .LVL120
     /tmp/ccaOOzD6.s:1354   .text:00000000000002d8 .LVL121
     /tmp/ccaOOzD6.s:1365   .text:00000000000002f0 .LVL123
     /tmp/ccaOOzD6.s:1397   .text:0000000000000334 .LVL128
     /tmp/ccaOOzD6.s:1402   .text:0000000000000340 .LVL129
     /tmp/ccaOOzD6.s:1429   .text._ZN16ProducerKeyboard3runEv:0000000000000000 .LFB28
     /tmp/ccaOOzD6.s:1456   .text._ZN16ProducerKeyboard3runEv:000000000000002c .LFE28
     /tmp/ccaOOzD6.s:10222  .debug_loc:000000000000105e .LLST39
     /tmp/ccaOOzD6.s:1445   .text._ZN16ProducerKeyboard3runEv:000000000000001c .LVL134
     /tmp/ccaOOzD6.s:10757  .debug_str:000000000000080f .LASF334
     /tmp/ccaOOzD6.s:11023  .debug_str:0000000000001083 .LASF335
     /tmp/ccaOOzD6.s:10761  .debug_str:000000000000083e .LASF336
     /tmp/ccaOOzD6.s:1272   .text:0000000000000258 .LFB24
     /tmp/ccaOOzD6.s:1310   .text:000000000000029c .LFE24
     /tmp/ccaOOzD6.s:1290   .text:000000000000027c .LVL115
GAS LISTING /tmp/ccaOOzD6.s 			page 91


     /tmp/ccaOOzD6.s:1296   .text:0000000000000288 .LVL116
     /tmp/ccaOOzD6.s:11083  .debug_str:0000000000001229 .LASF337
     /tmp/ccaOOzD6.s:11111  .debug_str:00000000000013d9 .LASF338
     /tmp/ccaOOzD6.s:1198   .text:0000000000000258 .LFE23
     /tmp/ccaOOzD6.s:10641  .debug_str:000000000000049d .LASF339
     /tmp/ccaOOzD6.s:10236  .debug_loc:0000000000001097 .LLST33
     /tmp/ccaOOzD6.s:10579  .debug_str:000000000000026b .LASF340
     /tmp/ccaOOzD6.s:10899  .debug_str:0000000000000cc2 .LASF341
     /tmp/ccaOOzD6.s:1036   .text:00000000000000d0 .LBB93
     /tmp/ccaOOzD6.s:1047   .text:00000000000000e4 .LBE93
     /tmp/ccaOOzD6.s:1040   .text:00000000000000d8 .LVL88
     /tmp/ccaOOzD6.s:1058   .text:00000000000000f4 .LBB95
     /tmp/ccaOOzD6.s:1068   .text:0000000000000108 .LBE95
     /tmp/ccaOOzD6.s:1062   .text:00000000000000fc .LVL92
     /tmp/ccaOOzD6.s:976    .text:0000000000000048 .LVL77
     /tmp/ccaOOzD6.s:981    .text:0000000000000054 .LVL78
     /tmp/ccaOOzD6.s:988    .text:000000000000006c .LVL79
     /tmp/ccaOOzD6.s:995    .text:0000000000000078 .LVL80
     /tmp/ccaOOzD6.s:1000   .text:0000000000000084 .LVL81
     /tmp/ccaOOzD6.s:1006   .text:0000000000000090 .LVL83
     /tmp/ccaOOzD6.s:1016   .text:00000000000000a8 .LVL84
     /tmp/ccaOOzD6.s:1021   .text:00000000000000b4 .LVL85
     /tmp/ccaOOzD6.s:1031   .text:00000000000000cc .LVL86
     /tmp/ccaOOzD6.s:1053   .text:00000000000000f0 .LVL90
     /tmp/ccaOOzD6.s:1074   .text:0000000000000114 .LVL94
     /tmp/ccaOOzD6.s:1080   .text:0000000000000124 .LVL95
     /tmp/ccaOOzD6.s:1090   .text:000000000000013c .LVL96
     /tmp/ccaOOzD6.s:1096   .text:000000000000014c .LVL97
     /tmp/ccaOOzD6.s:1106   .text:0000000000000164 .LVL98
     /tmp/ccaOOzD6.s:1111   .text:0000000000000170 .LVL99
     /tmp/ccaOOzD6.s:1115   .text:0000000000000178 .LVL100
     /tmp/ccaOOzD6.s:1138   .text:00000000000001a4 .LVL101
     /tmp/ccaOOzD6.s:1141   .text:00000000000001b0 .LVL102
     /tmp/ccaOOzD6.s:1147   .text:00000000000001c0 .LVL103
     /tmp/ccaOOzD6.s:1150   .text:00000000000001cc .LVL104
     /tmp/ccaOOzD6.s:1156   .text:00000000000001dc .LVL105
     /tmp/ccaOOzD6.s:1159   .text:00000000000001e8 .LVL106
     /tmp/ccaOOzD6.s:1165   .text:00000000000001f8 .LVL107
     /tmp/ccaOOzD6.s:1168   .text:0000000000000204 .LVL108
     /tmp/ccaOOzD6.s:1174   .text:0000000000000214 .LVL109
     /tmp/ccaOOzD6.s:1177   .text:0000000000000220 .LVL110
     /tmp/ccaOOzD6.s:1183   .text:0000000000000230 .LVL111
     /tmp/ccaOOzD6.s:1186   .text:000000000000023c .LVL112
     /tmp/ccaOOzD6.s:1192   .text:000000000000024c .LVL113
     /tmp/ccaOOzD6.s:1195   .text:0000000000000258 .LVL114
     /tmp/ccaOOzD6.s:10805  .debug_str:00000000000009a2 .LASF342
     /tmp/ccaOOzD6.s:10581  .debug_str:0000000000000279 .LASF343
     /tmp/ccaOOzD6.s:62     .text:0000000000000000 .LFB22
     /tmp/ccaOOzD6.s:85     .text:000000000000001c .LFE22
     /tmp/ccaOOzD6.s:10243  .debug_loc:00000000000010ba .LLST0
     /tmp/ccaOOzD6.s:81     .text:0000000000000018 .LVL4
     /tmp/ccaOOzD6.s:912    .text._ZN6PrintA18periodicActivationEv:0000000000000000 .LFB21
     /tmp/ccaOOzD6.s:945    .text._ZN6PrintA18periodicActivationEv:0000000000000038 .LFE21
     /tmp/ccaOOzD6.s:10257  .debug_loc:00000000000010f3 .LLST32
     /tmp/ccaOOzD6.s:929    .text._ZN6PrintA18periodicActivationEv:000000000000001c .LVL75
     /tmp/ccaOOzD6.s:934    .text._ZN6PrintA18periodicActivationEv:0000000000000028 .LVL76
     /tmp/ccaOOzD6.s:10625  .debug_str:0000000000000402 .LASF344
GAS LISTING /tmp/ccaOOzD6.s 			page 92


     /tmp/ccaOOzD6.s:10573  .debug_str:000000000000024b .LASF345
     /tmp/ccaOOzD6.s:872    .text._ZN6PrintP18periodicActivationEv:0000000000000000 .LFB17
     /tmp/ccaOOzD6.s:905    .text._ZN6PrintP18periodicActivationEv:0000000000000038 .LFE17
     /tmp/ccaOOzD6.s:10271  .debug_loc:000000000000112c .LLST31
     /tmp/ccaOOzD6.s:889    .text._ZN6PrintP18periodicActivationEv:000000000000001c .LVL71
     /tmp/ccaOOzD6.s:894    .text._ZN6PrintP18periodicActivationEv:0000000000000028 .LVL72
     /tmp/ccaOOzD6.s:10661  .debug_str:0000000000000518 .LASF346
     /tmp/ccaOOzD6.s:10627  .debug_str:0000000000000407 .LASF347
     /tmp/ccaOOzD6.s:643    .text._ZN14PeriodicThreadD0Ev:0000000000000000 .LFB14
     /tmp/ccaOOzD6.s:683    .text._ZN14PeriodicThreadD0Ev:000000000000004c .LFE14
     /tmp/ccaOOzD6.s:10285  .debug_loc:0000000000001165 .LLST19
     /tmp/ccaOOzD6.s:659    .text._ZN14PeriodicThreadD0Ev:0000000000000018 .LBB81
     /tmp/ccaOOzD6.s:667    .text._ZN14PeriodicThreadD0Ev:000000000000002c .LBE81
     /tmp/ccaOOzD6.s:10303  .debug_loc:00000000000011b1 .LLST20
     /tmp/ccaOOzD6.s:665    .text._ZN14PeriodicThreadD0Ev:000000000000002c .LVL50
     /tmp/ccaOOzD6.s:670    .text._ZN14PeriodicThreadD0Ev:0000000000000038 .LVL51
     /tmp/ccaOOzD6.s:11231  .debug_str:00000000000017d7 .LASF348
     /tmp/ccaOOzD6.s:606    .text._ZN14PeriodicThreadD2Ev:0000000000000000 .LFB12
     /tmp/ccaOOzD6.s:634    .text._ZN14PeriodicThreadD2Ev:0000000000000034 .LFE12
     /tmp/ccaOOzD6.s:10314  .debug_loc:00000000000011e7 .LLST18
     /tmp/ccaOOzD6.s:623    .text._ZN14PeriodicThreadD2Ev:0000000000000024 .LVL47
     /tmp/ccaOOzD6.s:92     .text._ZN13GetCharThread3runEv:0000000000000000 .LFB9
     /tmp/ccaOOzD6.s:115    .text._ZN13GetCharThread3runEv:000000000000001c .LFE9
     /tmp/ccaOOzD6.s:10328  .debug_loc:0000000000001220 .LLST1
     /tmp/ccaOOzD6.s:111    .text._ZN13GetCharThread3runEv:0000000000000018 .LVL7
     /tmp/ccaOOzD6.s:10869  .debug_str:0000000000000bbb .LASF349
     /tmp/ccaOOzD6.s:122    .text._ZN13PutCharThread3runEv:0000000000000000 .LFB5
     /tmp/ccaOOzD6.s:178    .text._ZN13PutCharThread3runEv:0000000000000068 .LFE5
     /tmp/ccaOOzD6.s:10342  .debug_loc:0000000000001259 .LLST2
     /tmp/ccaOOzD6.s:139    .text._ZN13PutCharThread3runEv:0000000000000014 .LBB63
     /tmp/ccaOOzD6.s:176    .text._ZN13PutCharThread3runEv:0000000000000068 .LBE63
     /tmp/ccaOOzD6.s:11001  .debug_str:0000000000000fbd .LASF350
     /tmp/ccaOOzD6.s:156    .text._ZN13PutCharThread3runEv:0000000000000038 .LBB64
     /tmp/ccaOOzD6.s:173    .text._ZN13PutCharThread3runEv:0000000000000064 .LBE64
     /tmp/ccaOOzD6.s:162    .text._ZN13PutCharThread3runEv:000000000000004c .LVL10
     /tmp/ccaOOzD6.s:10543  .debug_str:0000000000000145 .LASF351
     /tmp/ccaOOzD6.s:37     .text._ZN14PeriodicThread18periodicActivationEv:0000000000000000 .LFB1
     /tmp/ccaOOzD6.s:55     .text._ZN14PeriodicThread18periodicActivationEv:0000000000000018 .LFE1
     /tmp/ccaOOzD6.s:11     .text._ZN6Thread3runEv:0000000000000000 .LFB0
     /tmp/ccaOOzD6.s:30     .text._ZN6Thread3runEv:0000000000000018 .LFE0
     /tmp/ccaOOzD6.s:10961  .debug_str:0000000000000e66 .LASF353
     /tmp/ccaOOzD6.s:10939  .debug_str:0000000000000dcc .LASF355
     /tmp/ccaOOzD6.s:11135  .debug_str:00000000000014b6 .LASF352
     /tmp/ccaOOzD6.s:10721  .debug_str:000000000000072d .LASF354
     /tmp/ccaOOzD6.s:10943  .debug_str:0000000000000de1 .LASF356
     /tmp/ccaOOzD6.s:11109  .debug_str:00000000000013ca .LASF357
     /tmp/ccaOOzD6.s:10523  .debug_str:00000000000000ab .LASF358
     /tmp/ccaOOzD6.s:11017  .debug_str:000000000000104a .LASF359
     /tmp/ccaOOzD6.s:11011  .debug_str:0000000000001020 .LASF360
     /tmp/ccaOOzD6.s:10923  .debug_str:0000000000000d78 .LASF361
     /tmp/ccaOOzD6.s:10851  .debug_str:0000000000000b3f .LASF362
     /tmp/ccaOOzD6.s:10681  .debug_str:00000000000005a8 .LASF363
     /tmp/ccaOOzD6.s:10775  .debug_str:00000000000008af .LASF364
     /tmp/ccaOOzD6.s:10951  .debug_str:0000000000000e21 .LASF365
     /tmp/ccaOOzD6.s:10585  .debug_str:000000000000028c .LASF366
     /tmp/ccaOOzD6.s:11225  .debug_str:00000000000017a4 .LASF367
     /tmp/ccaOOzD6.s:225    .text._ZN13PutCharThreadD0Ev:0000000000000000 .LVL13
GAS LISTING /tmp/ccaOOzD6.s 			page 93


     /tmp/ccaOOzD6.s:257    .text._ZN13PutCharThreadD0Ev:0000000000000044 .LVL17
     /tmp/ccaOOzD6.s:237    .text._ZN13PutCharThreadD0Ev:0000000000000018 .LVL14
     /tmp/ccaOOzD6.s:188    .text._ZN13PutCharThreadD2Ev:0000000000000000 .LVL11
     /tmp/ccaOOzD6.s:309    .text._ZN13GetCharThreadD0Ev:0000000000000000 .LVL20
     /tmp/ccaOOzD6.s:341    .text._ZN13GetCharThreadD0Ev:0000000000000044 .LVL24
     /tmp/ccaOOzD6.s:321    .text._ZN13GetCharThreadD0Ev:0000000000000018 .LVL21
     /tmp/ccaOOzD6.s:272    .text._ZN13GetCharThreadD2Ev:0000000000000000 .LVL18
     /tmp/ccaOOzD6.s:734    .text._ZN6PrintPD0Ev:0000000000000000 .LVL56
     /tmp/ccaOOzD6.s:769    .text._ZN6PrintPD0Ev:0000000000000044 .LVL60
     /tmp/ccaOOzD6.s:746    .text._ZN6PrintPD0Ev:0000000000000018 .LVL57
     /tmp/ccaOOzD6.s:693    .text._ZN6PrintPD2Ev:0000000000000000 .LVL53
     /tmp/ccaOOzD6.s:702    .text._ZN6PrintPD2Ev:0000000000000010 .LVL54
     /tmp/ccaOOzD6.s:825    .text._ZN6PrintAD0Ev:0000000000000000 .LVL64
     /tmp/ccaOOzD6.s:860    .text._ZN6PrintAD0Ev:0000000000000044 .LVL68
     /tmp/ccaOOzD6.s:837    .text._ZN6PrintAD0Ev:0000000000000018 .LVL65
     /tmp/ccaOOzD6.s:784    .text._ZN6PrintAD2Ev:0000000000000000 .LVL61
     /tmp/ccaOOzD6.s:793    .text._ZN6PrintAD2Ev:0000000000000010 .LVL62
     /tmp/ccaOOzD6.s:562    .text._ZN16ProducerKeyboardD0Ev:0000000000000000 .LVL41
     /tmp/ccaOOzD6.s:594    .text._ZN16ProducerKeyboardD0Ev:0000000000000044 .LVL45
     /tmp/ccaOOzD6.s:574    .text._ZN16ProducerKeyboardD0Ev:0000000000000018 .LVL42
     /tmp/ccaOOzD6.s:525    .text._ZN16ProducerKeyboardD2Ev:0000000000000000 .LVL39
     /tmp/ccaOOzD6.s:478    .text._ZN8ProducerD0Ev:0000000000000000 .LVL34
     /tmp/ccaOOzD6.s:510    .text._ZN8ProducerD0Ev:0000000000000044 .LVL38
     /tmp/ccaOOzD6.s:490    .text._ZN8ProducerD0Ev:0000000000000018 .LVL35
     /tmp/ccaOOzD6.s:441    .text._ZN8ProducerD2Ev:0000000000000000 .LVL32
     /tmp/ccaOOzD6.s:394    .text._ZN8ConsumerD0Ev:0000000000000000 .LVL27
     /tmp/ccaOOzD6.s:426    .text._ZN8ConsumerD0Ev:0000000000000044 .LVL31
     /tmp/ccaOOzD6.s:406    .text._ZN8ConsumerD0Ev:0000000000000018 .LVL28
     /tmp/ccaOOzD6.s:357    .text._ZN8ConsumerD2Ev:0000000000000000 .LVL25
     /tmp/ccaOOzD6.s:2428   .text:000000000000099c .LVL247
     /tmp/ccaOOzD6.s:2484   .text:00000000000009fc .LVL257
     /tmp/ccaOOzD6.s:2497   .text:0000000000000a1c .LVL260
     /tmp/ccaOOzD6.s:2450   .text:00000000000009c4 .LVL251
     /tmp/ccaOOzD6.s:2465   .text:00000000000009e0 .LVL254
     /tmp/ccaOOzD6.s:2417   .text:0000000000000984 .LVL245
     /tmp/ccaOOzD6.s:2439   .text:00000000000009ac .LVL249
     /tmp/ccaOOzD6.s:1860   .text:0000000000000580 .LVL175
     /tmp/ccaOOzD6.s:1935   .text:000000000000063c .LVL187
     /tmp/ccaOOzD6.s:2244   .text:00000000000008a0 .LVL226
     /tmp/ccaOOzD6.s:2248   .text:00000000000008a4 .LVL227
     /tmp/ccaOOzD6.s:1842   .text:0000000000000550 .LVL171
     /tmp/ccaOOzD6.s:2226   .text:000000000000087c .LVL225
     /tmp/ccaOOzD6.s:2258   .text:00000000000008c0 .LVL230
     /tmp/ccaOOzD6.s:1927   .text:000000000000062c .LVL185
     /tmp/ccaOOzD6.s:2212   .text:0000000000000868 .LVL224
     /tmp/ccaOOzD6.s:1952   .text:0000000000000668 .LVL190
     /tmp/ccaOOzD6.s:1965   .text:0000000000000684 .LVL192
     /tmp/ccaOOzD6.s:2007   .text:00000000000006dc .LVL197
     /tmp/ccaOOzD6.s:1967   .text:0000000000000688 .LVL193
     /tmp/ccaOOzD6.s:2020   .text:00000000000006f0 .LVL199
     /tmp/ccaOOzD6.s:2135   .text:00000000000007d0 .LVL212
     /tmp/ccaOOzD6.s:2278   .text:00000000000008f8 .LVL236
     /tmp/ccaOOzD6.s:2289   .text:0000000000000914 .LVL239
     /tmp/ccaOOzD6.s:2028   .text:0000000000000700 .LVL200
     /tmp/ccaOOzD6.s:2079   .text:0000000000000770 .LVL204
     /tmp/ccaOOzD6.s:2088   .text:000000000000077c .LVL206
     /tmp/ccaOOzD6.s:2106   .text:000000000000079c .LVL208
GAS LISTING /tmp/ccaOOzD6.s 			page 94


     /tmp/ccaOOzD6.s:2117   .text:00000000000007b4 .LVL210
     /tmp/ccaOOzD6.s:2146   .text:00000000000007e8 .LVL214
     /tmp/ccaOOzD6.s:2148   .text:00000000000007ec .LVL215
     /tmp/ccaOOzD6.s:2154   .text:00000000000007f0 .LVL216
     /tmp/ccaOOzD6.s:2156   .text:00000000000007f4 .LVL217
     /tmp/ccaOOzD6.s:1945   .text:0000000000000654 .LVL189
     /tmp/ccaOOzD6.s:1957   .text:000000000000066c .LVL191
     /tmp/ccaOOzD6.s:1995   .text:00000000000006c4 .LVL195
     /tmp/ccaOOzD6.s:2268   .text:00000000000008dc .LVL233
     /tmp/ccaOOzD6.s:1589   .text:00000000000003f0 .LVL147
     /tmp/ccaOOzD6.s:1614   .text:0000000000000420 .LVL149
     /tmp/ccaOOzD6.s:1717   .text:00000000000004d8 .LVL164
     /tmp/ccaOOzD6.s:1714   .text:00000000000004d4 .LVL163
     /tmp/ccaOOzD6.s:1609   .text:0000000000000418 .LVL148
     /tmp/ccaOOzD6.s:1622   .text:000000000000042c .LVL151
     /tmp/ccaOOzD6.s:1645   .text:0000000000000458 .LVL154
     /tmp/ccaOOzD6.s:1667   .text:0000000000000480 .LVL157
     /tmp/ccaOOzD6.s:1720   .text:00000000000004dc .LVL165
     /tmp/ccaOOzD6.s:1649   .text:000000000000045c .LVL155
     /tmp/ccaOOzD6.s:1684   .text:000000000000049c .LVL159
     /tmp/ccaOOzD6.s:1735   .text._ZN8Consumer3runEv:0000000000000000 .LVL166
     /tmp/ccaOOzD6.s:1466   .text:000000000000035c .LVL135
     /tmp/ccaOOzD6.s:1486   .text:0000000000000380 .LVL137
     /tmp/ccaOOzD6.s:1537   .text:00000000000003e4 .LVL143
     /tmp/ccaOOzD6.s:1481   .text:0000000000000378 .LVL136
     /tmp/ccaOOzD6.s:1509   .text:00000000000003b0 .LVL140
     /tmp/ccaOOzD6.s:1522   .text:00000000000003cc .LVL141
     /tmp/ccaOOzD6.s:1540   .text:00000000000003e8 .LVL144
     /tmp/ccaOOzD6.s:1555   .text._ZN8Producer3runEv:0000000000000000 .LVL145
     /tmp/ccaOOzD6.s:1319   .text:000000000000029c .LVL117
     /tmp/ccaOOzD6.s:1343   .text:00000000000002c8 .LVL119
     /tmp/ccaOOzD6.s:1417   .text:0000000000000354 .LVL132
     /tmp/ccaOOzD6.s:1411   .text:000000000000034c .LVL130
     /tmp/ccaOOzD6.s:1337   .text:00000000000002c0 .LVL118
     /tmp/ccaOOzD6.s:1357   .text:00000000000002dc .LVL122
     /tmp/ccaOOzD6.s:1383   .text:0000000000000314 .LVL125
     /tmp/ccaOOzD6.s:1393   .text:0000000000000328 .LVL126
     /tmp/ccaOOzD6.s:1395   .text:000000000000032c .LVL127
     /tmp/ccaOOzD6.s:1370   .text:00000000000002f8 .LVL124
     /tmp/ccaOOzD6.s:1414   .text:0000000000000350 .LVL131
     /tmp/ccaOOzD6.s:1432   .text._ZN16ProducerKeyboard3runEv:0000000000000000 .LVL133
     /tmp/ccaOOzD6.s:1003   .text:0000000000000088 .LVL82
     /tmp/ccaOOzD6.s:66     .text:0000000000000000 .LVL2
     /tmp/ccaOOzD6.s:75     .text:0000000000000010 .LVL3
     /tmp/ccaOOzD6.s:915    .text._ZN6PrintA18periodicActivationEv:0000000000000000 .LVL73
     /tmp/ccaOOzD6.s:927    .text._ZN6PrintA18periodicActivationEv:0000000000000014 .LVL74
     /tmp/ccaOOzD6.s:875    .text._ZN6PrintP18periodicActivationEv:0000000000000000 .LVL69
     /tmp/ccaOOzD6.s:887    .text._ZN6PrintP18periodicActivationEv:0000000000000014 .LVL70
     /tmp/ccaOOzD6.s:646    .text._ZN14PeriodicThreadD0Ev:0000000000000000 .LVL48
     /tmp/ccaOOzD6.s:678    .text._ZN14PeriodicThreadD0Ev:0000000000000044 .LVL52
     /tmp/ccaOOzD6.s:658    .text._ZN14PeriodicThreadD0Ev:0000000000000018 .LVL49
     /tmp/ccaOOzD6.s:609    .text._ZN14PeriodicThreadD2Ev:0000000000000000 .LVL46
     /tmp/ccaOOzD6.s:96     .text._ZN13GetCharThread3runEv:0000000000000000 .LVL5
     /tmp/ccaOOzD6.s:105    .text._ZN13GetCharThread3runEv:0000000000000010 .LVL6
     /tmp/ccaOOzD6.s:125    .text._ZN13PutCharThread3runEv:0000000000000000 .LVL8
     /tmp/ccaOOzD6.s:136    .text._ZN13PutCharThread3runEv:0000000000000014 .LVL9
     /tmp/ccaOOzD6.s:2652   .debug_info:0000000000000000 .Ldebug_info0
GAS LISTING /tmp/ccaOOzD6.s 			page 95


     /tmp/ccaOOzD6.s:5      .text:0000000000000000 .Ltext0
     /tmp/ccaOOzD6.s:2642   .text:0000000000000a34 .Letext0
     /tmp/ccaOOzD6.s:1616   .text:0000000000000420 .LBB97
     /tmp/ccaOOzD6.s:1630   .text:0000000000000438 .LBE97
     /tmp/ccaOOzD6.s:1635   .text:0000000000000444 .LBB98
     /tmp/ccaOOzD6.s:1672   .text:0000000000000488 .LBE98
     /tmp/ccaOOzD6.s:2016   .text:00000000000006e8 .LBB102
     /tmp/ccaOOzD6.s:2126   .text:00000000000007c4 .LBE102
     /tmp/ccaOOzD6.s:2279   .text:00000000000008f8 .LBB111
     /tmp/ccaOOzD6.s:2298   .text:000000000000092c .LBE111
     /tmp/ccaOOzD6.s:2030   .text:0000000000000700 .LBE103
     /tmp/ccaOOzD6.s:2081   .text:0000000000000770 .LBB106
     /tmp/ccaOOzD6.s:2091   .text:000000000000077c .LBE106
     /tmp/ccaOOzD6.s:2467   .text:00000000000009e0 .LBB116
     /tmp/ccaOOzD6.s:2473   .text:00000000000009e8 .LBE116
     /tmp/ccaOOzD6.s:2475   .text:00000000000009e8 .LBB117
     /tmp/ccaOOzD6.s:2487   .text:0000000000000a00 .LBE117
     /tmp/ccaOOzD6.s:1201   .gcc_except_table:0000000000000000 .LLSDA23
     /tmp/ccaOOzD6.s:2302   .gcc_except_table:00000000000000c8 .LLSDA40
     /tmp/ccaOOzD6.s:2509   .gcc_except_table:000000000000015c .LLSDA42
                           .group:0000000000000000 _ZN13PutCharThreadD5Ev
                           .group:0000000000000000 _ZN13GetCharThreadD5Ev
                           .group:0000000000000000 _ZN8ConsumerD5Ev
                           .group:0000000000000000 _ZN8ProducerD5Ev
                           .group:0000000000000000 _ZN16ProducerKeyboardD5Ev
                           .group:0000000000000000 _ZN14PeriodicThreadD5Ev
                           .group:0000000000000000 _ZN6PrintPD5Ev
                           .group:0000000000000000 _ZN6PrintAD5Ev

UNDEFINED SYMBOLS
_ZN6Thread8dispatchEv
CONSOLE_STATUS
_ZN4Cons12outputBufferE
_ZN10CharBuffer3getEv
CONSOLE_TX_DATA
_ZN6ThreadD2Ev
_ZdlPv
_ZN7Console4putcEc
_ZN9Interrupt11callRoutineEv
_ZN9Interrupt7w_stvecEm
_Znwm
_ZN6ThreadC1EPFvPvES0_
_ZN6Thread5startEv
_ZN8PCB_ListC1Ev
_ZN3PCB13sleeping_listE
_ZN3PCB12perioThreadsE
_ZN6ThreadC2Ev
_ZN10CharBufferC1Ei
_ZN4Cons11inputBufferE
switchToUserMode
_Unwind_Resume
__gxx_personality_v0
_ZN10CharBuffer7getSizeEv
getc
_ZN9BufferCPP3putEi
_ZN9Semaphore6signalEv
putc
GAS LISTING /tmp/ccaOOzD6.s 			page 96


_ZN9BufferCPP3getEv
_ZN9BufferCPP6getCntEv
_Z11printStringPKc
_Z9getStringPci
_Z11stringToIntPKc
_Z8printIntiii
_ZN9BufferCPPC1Ei
_ZN9SemaphoreC1Ej
_ZN9Semaphore4waitEv
_ZN9BufferCPPD1Ev
_ZN14PeriodicThreadC2Em
block_All_Periodic
_ZN7Console4getcEv
